
build/rexusb.elf:     file format elf32-littlearm

Sections:
Idx Name          Size      VMA       LMA       File off  Algn
  0 .text         00008b80  08000000  08000000  00008000  2**2
                  CONTENTS, ALLOC, LOAD, READONLY, CODE
  1 .ARM.attributes 0000002d  00000000  00000000  00010b80  2**0
                  CONTENTS, READONLY
  2 .comment      00000070  00000000  00000000  00010bad  2**0
                  CONTENTS, READONLY
  3 .debug_frame  000000ec  00000000  00000000  00010c20  2**2
                  CONTENTS, READONLY, DEBUGGING

Disassembly of section .text:

08000000 <int_vectors>:
 8000000:	20002000 	.word	0x20002000
 8000004:	080000c1 	.word	0x080000c1
 8000008:	0800018f 	.word	0x0800018f
 800000c:	08000111 	.word	0x08000111
 8000010:	00000000 	.word	0x00000000
 8000014:	00000000 	.word	0x00000000
 8000018:	00000000 	.word	0x00000000
 800001c:	00000000 	.word	0x00000000
 8000020:	00000000 	.word	0x00000000
 8000024:	00000000 	.word	0x00000000
 8000028:	00000000 	.word	0x00000000
 800002c:	08000127 	.word	0x08000127
 8000030:	00000000 	.word	0x00000000
 8000034:	00000000 	.word	0x00000000
 8000038:	08000135 	.word	0x08000135
 800003c:	0800018f 	.word	0x0800018f
 8000040:	08000197 	.word	0x08000197
 8000044:	08000197 	.word	0x08000197
 8000048:	08000197 	.word	0x08000197
 800004c:	08000197 	.word	0x08000197
 8000050:	08000197 	.word	0x08000197
 8000054:	08000197 	.word	0x08000197
 8000058:	08000197 	.word	0x08000197
 800005c:	08000197 	.word	0x08000197
 8000060:	08000197 	.word	0x08000197
 8000064:	08000197 	.word	0x08000197
 8000068:	08000197 	.word	0x08000197
 800006c:	08000197 	.word	0x08000197
 8000070:	08000197 	.word	0x08000197
 8000074:	08000197 	.word	0x08000197
 8000078:	08000197 	.word	0x08000197
 800007c:	08000197 	.word	0x08000197
 8000080:	08000197 	.word	0x08000197
 8000084:	08000197 	.word	0x08000197
 8000088:	08000197 	.word	0x08000197
 800008c:	08000197 	.word	0x08000197
 8000090:	08000197 	.word	0x08000197
 8000094:	08000197 	.word	0x08000197
 8000098:	08000197 	.word	0x08000197
 800009c:	08000197 	.word	0x08000197
 80000a0:	08000197 	.word	0x08000197
 80000a4:	08000197 	.word	0x08000197
 80000a8:	08000197 	.word	0x08000197
 80000ac:	08000197 	.word	0x08000197
 80000b0:	08000197 	.word	0x08000197
 80000b4:	08000197 	.word	0x08000197
 80000b8:	08000197 	.word	0x08000197
 80000bc:	08000197 	.word	0x08000197

080000c0 <Reset_Handler>:
 80000c0:	b672      	cpsid	i
 80000c2:	490a      	ldr	r1, [pc, #40]	; (80000ec <profiling_loop+0x10>)
 80000c4:	480a      	ldr	r0, [pc, #40]	; (80000f0 <profiling_loop+0x14>)
 80000c6:	6008      	str	r0, [r1, #0]
 80000c8:	490a      	ldr	r1, [pc, #40]	; (80000f4 <profiling_loop+0x18>)
 80000ca:	480b      	ldr	r0, [pc, #44]	; (80000f8 <profiling_loop+0x1c>)
 80000cc:	6008      	str	r0, [r1, #0]
 80000ce:	480b      	ldr	r0, [pc, #44]	; (80000fc <profiling_loop+0x20>)
 80000d0:	490b      	ldr	r1, [pc, #44]	; (8000100 <profiling_loop+0x24>)
 80000d2:	6008      	str	r0, [r1, #0]
 80000d4:	490b      	ldr	r1, [pc, #44]	; (8000104 <profiling_loop+0x28>)
 80000d6:	4a0c      	ldr	r2, [pc, #48]	; (8000108 <profiling_loop+0x2c>)
 80000d8:	1a88      	subs	r0, r1, r2
 80000da:	4a0c      	ldr	r2, [pc, #48]	; (800010c <profiling_loop+0x30>)

080000dc <profiling_loop>:
 80000dc:	6002      	str	r2, [r0, #0]
 80000de:	3004      	adds	r0, #4
 80000e0:	4288      	cmp	r0, r1
 80000e2:	d3fb      	bcc.n	80000dc <profiling_loop>
 80000e4:	f000 f9d4 	bl	8000490 <startup>
 80000e8:	b662      	cpsie	i
 80000ea:	e7fe      	b.n	80000ea <profiling_loop+0xe>
 80000ec:	e000ed1c 	.word	0xe000ed1c
 80000f0:	ff000000 	.word	0xff000000
 80000f4:	e000ed20 	.word	0xe000ed20
 80000f8:	00ff0000 	.word	0x00ff0000
 80000fc:	ffffffff 	.word	0xffffffff
 8000100:	e000e280 	.word	0xe000e280
 8000104:	20002000 	.word	0x20002000
 8000108:	00000200 	.word	0x00000200
 800010c:	cdcdcdcd 	.word	0xcdcdcdcd

08000110 <HardFault_Handler>:
 8000110:	4670      	mov	r0, lr
 8000112:	2100      	movs	r1, #0
 8000114:	3903      	subs	r1, #3
 8000116:	4288      	cmp	r0, r1
 8000118:	d102      	bne.n	8000120 <HardFault_Handler+0x10>
 800011a:	f3ef 8109 	mrs	r1, PSP
 800011e:	e001      	b.n	8000124 <HardFault_Handler+0x14>
 8000120:	f3ef 8108 	mrs	r1, MSP
 8000124:	e068      	b.n	80001f8 <on_hard_fault>

08000126 <SVC_Handler>:
 8000126:	f3ef 8009 	mrs	r0, PSP
 800012a:	c80f      	ldmia	r0, {r0, r1, r2, r3}
 800012c:	f000 f89e 	bl	800026c <svc>
 8000130:	4822      	ldr	r0, [pc, #136]	; (80001bc <process_setup_context+0x16>)
 8000132:	4700      	bx	r0

08000134 <PendSV_Handler>:
 8000134:	b672      	cpsid	i
 8000136:	4a22      	ldr	r2, [pc, #136]	; (80001c0 <process_setup_context+0x1a>)
 8000138:	4822      	ldr	r0, [pc, #136]	; (80001c4 <process_setup_context+0x1e>)
 800013a:	6010      	str	r0, [r2, #0]
 800013c:	4922      	ldr	r1, [pc, #136]	; (80001c8 <process_setup_context+0x22>)
 800013e:	68cb      	ldr	r3, [r1, #12]
 8000140:	2b00      	cmp	r3, #0
 8000142:	d00b      	beq.n	800015c <load_context>
 8000144:	f3ef 8009 	mrs	r0, PSP
 8000148:	3810      	subs	r0, #16
 800014a:	c0f0      	stmia	r0!, {r4, r5, r6, r7}
 800014c:	4644      	mov	r4, r8
 800014e:	464d      	mov	r5, r9
 8000150:	4656      	mov	r6, sl
 8000152:	465f      	mov	r7, fp
 8000154:	3820      	subs	r0, #32
 8000156:	c0f0      	stmia	r0!, {r4, r5, r6, r7}
 8000158:	3810      	subs	r0, #16
 800015a:	60d8      	str	r0, [r3, #12]

0800015c <load_context>:
 800015c:	690a      	ldr	r2, [r1, #16]
 800015e:	2a00      	cmp	r2, #0
 8000160:	d00e      	beq.n	8000180 <halt_core>
 8000162:	68d0      	ldr	r0, [r2, #12]
 8000164:	c8f0      	ldmia	r0!, {r4, r5, r6, r7}
 8000166:	46a0      	mov	r8, r4
 8000168:	46a9      	mov	r9, r5
 800016a:	46b2      	mov	sl, r6
 800016c:	46bb      	mov	fp, r7
 800016e:	c8f0      	ldmia	r0!, {r4, r5, r6, r7}
 8000170:	f380 8809 	msr	PSP, r0
 8000174:	60ca      	str	r2, [r1, #12]
 8000176:	2000      	movs	r0, #0
 8000178:	6108      	str	r0, [r1, #16]

0800017a <context_exit>:
 800017a:	b662      	cpsie	i
 800017c:	480f      	ldr	r0, [pc, #60]	; (80001bc <process_setup_context+0x16>)
 800017e:	4700      	bx	r0

08000180 <halt_core>:
 8000180:	b662      	cpsie	i
 8000182:	bf30      	wfi
 8000184:	b672      	cpsid	i
 8000186:	4a0e      	ldr	r2, [pc, #56]	; (80001c0 <process_setup_context+0x1a>)
 8000188:	480e      	ldr	r0, [pc, #56]	; (80001c4 <process_setup_context+0x1e>)
 800018a:	6010      	str	r0, [r2, #0]
 800018c:	e7e6      	b.n	800015c <load_context>

0800018e <NMI_Handler>:
 800018e:	f3ef 8005 	mrs	r0, IPSR
 8000192:	3810      	subs	r0, #16
 8000194:	e1ec      	b.n	8000570 <kirq_stub>

08000196 <irq_handler>:
 8000196:	f3ef 8005 	mrs	r0, IPSR
 800019a:	3810      	subs	r0, #16
 800019c:	e208      	b.n	80005b0 <kirq_enter>

0800019e <pend_switch_context>:
 800019e:	4908      	ldr	r1, [pc, #32]	; (80001c0 <process_setup_context+0x1a>)
 80001a0:	480a      	ldr	r0, [pc, #40]	; (80001cc <process_setup_context+0x26>)
 80001a2:	6008      	str	r0, [r1, #0]
 80001a4:	4770      	bx	lr

080001a6 <process_setup_context>:
 80001a6:	68c2      	ldr	r2, [r0, #12]
 80001a8:	08d2      	lsrs	r2, r2, #3
 80001aa:	00d2      	lsls	r2, r2, #3
 80001ac:	3a40      	subs	r2, #64	; 0x40
 80001ae:	4b08      	ldr	r3, [pc, #32]	; (80001d0 <process_setup_context+0x2a>)
 80001b0:	6353      	str	r3, [r2, #52]	; 0x34
 80001b2:	6391      	str	r1, [r2, #56]	; 0x38
 80001b4:	4b07      	ldr	r3, [pc, #28]	; (80001d4 <process_setup_context+0x2e>)
 80001b6:	63d3      	str	r3, [r2, #60]	; 0x3c
 80001b8:	60c2      	str	r2, [r0, #12]
 80001ba:	4770      	bx	lr
 80001bc:	fffffffd 	.word	0xfffffffd
 80001c0:	e000ed04 	.word	0xe000ed04
 80001c4:	08000000 	.word	0x08000000
 80001c8:	2000000c 	.word	0x2000000c
 80001cc:	10000000 	.word	0x10000000
 80001d0:	08000ce5 	.word	0x08000ce5
 80001d4:	01000000 	.word	0x01000000

080001d8 <svc_call>:
 80001d8:	df12      	svc	18
 80001da:	4770      	bx	lr

080001dc <process_fault>:
 80001dc:	b508      	push	{r3, lr}
 80001de:	1cc3      	adds	r3, r0, #3
 80001e0:	d105      	bne.n	80001ee <process_fault+0x12>
 80001e2:	f000 fd77 	bl	8000cd4 <kprocess_destroy_current>
 80001e6:	2200      	movs	r2, #0
 80001e8:	4b02      	ldr	r3, [pc, #8]	; (80001f4 <process_fault+0x18>)
 80001ea:	601a      	str	r2, [r3, #0]
 80001ec:	e001      	b.n	80001f2 <process_fault+0x16>
 80001ee:	f000 f937 	bl	8000460 <panic>
 80001f2:	bd08      	pop	{r3, pc}
 80001f4:	e000ed28 	.word	0xe000ed28

080001f8 <on_hard_fault>:
 80001f8:	b538      	push	{r3, r4, r5, lr}
 80001fa:	1c05      	adds	r5, r0, #0
 80001fc:	4812      	ldr	r0, [pc, #72]	; (8000248 <on_hard_fault+0x50>)
 80001fe:	1c0c      	adds	r4, r1, #0
 8000200:	f000 f972 	bl	80004e8 <printk>
 8000204:	4b11      	ldr	r3, [pc, #68]	; (800024c <on_hard_fault+0x54>)
 8000206:	681b      	ldr	r3, [r3, #0]
 8000208:	079b      	lsls	r3, r3, #30
 800020a:	d502      	bpl.n	8000212 <on_hard_fault+0x1a>
 800020c:	4810      	ldr	r0, [pc, #64]	; (8000250 <on_hard_fault+0x58>)
 800020e:	69a1      	ldr	r1, [r4, #24]
 8000210:	e00a      	b.n	8000228 <on_hard_fault+0x30>
 8000212:	69a1      	ldr	r1, [r4, #24]
 8000214:	480f      	ldr	r0, [pc, #60]	; (8000254 <on_hard_fault+0x5c>)
 8000216:	1e8b      	subs	r3, r1, #2
 8000218:	881a      	ldrh	r2, [r3, #0]
 800021a:	4b0f      	ldr	r3, [pc, #60]	; (8000258 <on_hard_fault+0x60>)
 800021c:	429a      	cmp	r2, r3
 800021e:	d103      	bne.n	8000228 <on_hard_fault+0x30>
 8000220:	2301      	movs	r3, #1
 8000222:	6961      	ldr	r1, [r4, #20]
 8000224:	480d      	ldr	r0, [pc, #52]	; (800025c <on_hard_fault+0x64>)
 8000226:	4399      	bics	r1, r3
 8000228:	f000 f95e 	bl	80004e8 <printk>
 800022c:	1ceb      	adds	r3, r5, #3
 800022e:	d106      	bne.n	800023e <on_hard_fault+0x46>
 8000230:	69a3      	ldr	r3, [r4, #24]
 8000232:	3b02      	subs	r3, #2
 8000234:	881a      	ldrh	r2, [r3, #0]
 8000236:	4b08      	ldr	r3, [pc, #32]	; (8000258 <on_hard_fault+0x60>)
 8000238:	429a      	cmp	r2, r3
 800023a:	d100      	bne.n	800023e <on_hard_fault+0x46>
 800023c:	b662      	cpsie	i
 800023e:	1c28      	adds	r0, r5, #0
 8000240:	f7ff ffcc 	bl	80001dc <process_fault>
 8000244:	bd38      	pop	{r3, r4, r5, pc}
 8000246:	46c0      	nop			; (mov r8, r8)
 8000248:	08007e68 	.word	0x08007e68
 800024c:	e000ed2c 	.word	0xe000ed2c
 8000250:	08007e75 	.word	0x08007e75
 8000254:	08007ec8 	.word	0x08007ec8
 8000258:	0000df12 	.word	0x0000df12
 800025c:	08007e99 	.word	0x08007e99

08000260 <stdout_stub>:
 8000260:	200c      	movs	r0, #12
 8000262:	b508      	push	{r3, lr}
 8000264:	4240      	negs	r0, r0
 8000266:	f000 fbe5 	bl	8000a34 <kprocess_error_current>
 800026a:	bd08      	pop	{r3, pc}

0800026c <svc>:
 800026c:	b538      	push	{r3, r4, r5, lr}
 800026e:	1c0c      	adds	r4, r1, #0
 8000270:	1c11      	adds	r1, r2, #0
 8000272:	1c1a      	adds	r2, r3, #0
 8000274:	2830      	cmp	r0, #48	; 0x30
 8000276:	d900      	bls.n	800027a <svc+0xe>
 8000278:	e0e4      	b.n	8000444 <svc+0x1d8>
 800027a:	f007 fb3d 	bl	80078f8 <__gnu_thumb1_case_uqi>
 800027e:	1d19      	.short	0x1d19
 8000280:	2d292521 	.word	0x2d292521
 8000284:	403d3531 	.word	0x403d3531
 8000288:	4e514743 	.word	0x4e514743
 800028c:	5d59554b 	.word	0x5d59554b
 8000290:	6d696561 	.word	0x6d696561
 8000294:	7d797571 	.word	0x7d797571
 8000298:	8d898581 	.word	0x8d898581
 800029c:	9d999591 	.word	0x9d999591
 80002a0:	ada9a5a1 	.word	0xada9a5a1
 80002a4:	bdb9b5b1 	.word	0xbdb9b5b1
 80002a8:	cdc9c5c1 	.word	0xcdc9c5c1
 80002ac:	ddd1      	.short	0xddd1
 80002ae:	e7          	.byte	0xe7
 80002af:	00          	.byte	0x00
 80002b0:	1c20      	adds	r0, r4, #0
 80002b2:	f000 fb0d 	bl	80008d0 <kprocess_create>
 80002b6:	e0c9      	b.n	800044c <svc+0x1e0>
 80002b8:	1c20      	adds	r0, r4, #0
 80002ba:	f000 fbb5 	bl	8000a28 <kprocess_get_current_svc>
 80002be:	e0c5      	b.n	800044c <svc+0x1e0>
 80002c0:	1c20      	adds	r0, r4, #0
 80002c2:	f000 fbc1 	bl	8000a48 <kprocess_get_flags>
 80002c6:	e0c1      	b.n	800044c <svc+0x1e0>
 80002c8:	1c20      	adds	r0, r4, #0
 80002ca:	f000 fbd7 	bl	8000a7c <kprocess_set_flags>
 80002ce:	e0bd      	b.n	800044c <svc+0x1e0>
 80002d0:	1c20      	adds	r0, r4, #0
 80002d2:	f000 fc31 	bl	8000b38 <kprocess_get_priority>
 80002d6:	e0b9      	b.n	800044c <svc+0x1e0>
 80002d8:	1c20      	adds	r0, r4, #0
 80002da:	f000 fc05 	bl	8000ae8 <kprocess_set_priority>
 80002de:	e0b5      	b.n	800044c <svc+0x1e0>
 80002e0:	1c20      	adds	r0, r4, #0
 80002e2:	f000 fc43 	bl	8000b6c <kprocess_destroy>
 80002e6:	e0b1      	b.n	800044c <svc+0x1e0>
 80002e8:	f000 fb90 	bl	8000a0c <kprocess_get_current>
 80002ec:	2200      	movs	r2, #0
 80002ee:	1c21      	adds	r1, r4, #0
 80002f0:	1c13      	adds	r3, r2, #0
 80002f2:	f000 fc89 	bl	8000c08 <kprocess_sleep>
 80002f6:	e0a9      	b.n	800044c <svc+0x1e0>
 80002f8:	f000 fd1c 	bl	8000d34 <kprocess_switch_test>
 80002fc:	e0a6      	b.n	800044c <svc+0x1e0>
 80002fe:	f000 fda3 	bl	8000e48 <kprocess_info>
 8000302:	e0a3      	b.n	800044c <svc+0x1e0>
 8000304:	1c20      	adds	r0, r4, #0
 8000306:	f000 f963 	bl	80005d0 <kirq_register>
 800030a:	e09f      	b.n	800044c <svc+0x1e0>
 800030c:	1c20      	adds	r0, r4, #0
 800030e:	f000 f98d 	bl	800062c <kirq_unregister>
 8000312:	e09b      	b.n	800044c <svc+0x1e0>
 8000314:	f000 ff32 	bl	800117c <ktimer_hpet_timeout>
 8000318:	e098      	b.n	800044c <svc+0x1e0>
 800031a:	f000 ff0d 	bl	8001138 <ktimer_second_pulse>
 800031e:	e095      	b.n	800044c <svc+0x1e0>
 8000320:	1c20      	adds	r0, r4, #0
 8000322:	f000 ff03 	bl	800112c <ktimer_get_uptime>
 8000326:	e091      	b.n	800044c <svc+0x1e0>
 8000328:	1c20      	adds	r0, r4, #0
 800032a:	f000 ff43 	bl	80011b4 <ktimer_setup>
 800032e:	e08d      	b.n	800044c <svc+0x1e0>
 8000330:	1c20      	adds	r0, r4, #0
 8000332:	f001 f801 	bl	8001338 <ktimer_create>
 8000336:	e089      	b.n	800044c <svc+0x1e0>
 8000338:	1c20      	adds	r0, r4, #0
 800033a:	f001 f845 	bl	80013c8 <ktimer_start>
 800033e:	e085      	b.n	800044c <svc+0x1e0>
 8000340:	1c20      	adds	r0, r4, #0
 8000342:	f001 f873 	bl	800142c <ktimer_stop>
 8000346:	e081      	b.n	800044c <svc+0x1e0>
 8000348:	1c20      	adds	r0, r4, #0
 800034a:	f001 f819 	bl	8001380 <ktimer_destroy>
 800034e:	e07d      	b.n	800044c <svc+0x1e0>
 8000350:	1c20      	adds	r0, r4, #0
 8000352:	f001 f9c6 	bl	80016e2 <kipc_post>
 8000356:	e079      	b.n	800044c <svc+0x1e0>
 8000358:	1c20      	adds	r0, r4, #0
 800035a:	f001 f9cb 	bl	80016f4 <kipc_read>
 800035e:	e075      	b.n	800044c <svc+0x1e0>
 8000360:	1c20      	adds	r0, r4, #0
 8000362:	f001 f9d6 	bl	8001712 <kipc_call>
 8000366:	e071      	b.n	800044c <svc+0x1e0>
 8000368:	1c20      	adds	r0, r4, #0
 800036a:	f001 faa1 	bl	80018b0 <kstream_create>
 800036e:	e06d      	b.n	800044c <svc+0x1e0>
 8000370:	1c20      	adds	r0, r4, #0
 8000372:	f001 fac7 	bl	8001904 <kstream_open>
 8000376:	e069      	b.n	800044c <svc+0x1e0>
 8000378:	1c20      	adds	r0, r4, #0
 800037a:	f001 faf5 	bl	8001968 <kstream_close>
 800037e:	e065      	b.n	800044c <svc+0x1e0>
 8000380:	1c20      	adds	r0, r4, #0
 8000382:	f001 fb23 	bl	80019cc <kstream_get_size>
 8000386:	e061      	b.n	800044c <svc+0x1e0>
 8000388:	1c20      	adds	r0, r4, #0
 800038a:	f001 fb3b 	bl	8001a04 <kstream_get_free>
 800038e:	e05d      	b.n	800044c <svc+0x1e0>
 8000390:	1c20      	adds	r0, r4, #0
 8000392:	f001 fb71 	bl	8001a78 <kstream_listen>
 8000396:	e059      	b.n	800044c <svc+0x1e0>
 8000398:	1c20      	adds	r0, r4, #0
 800039a:	f001 fba7 	bl	8001aec <kstream_stop_listen>
 800039e:	e055      	b.n	800044c <svc+0x1e0>
 80003a0:	1c20      	adds	r0, r4, #0
 80003a2:	f001 fbc9 	bl	8001b38 <kstream_write>
 80003a6:	e051      	b.n	800044c <svc+0x1e0>
 80003a8:	1c20      	adds	r0, r4, #0
 80003aa:	f001 fc5f 	bl	8001c6c <kstream_read>
 80003ae:	e04d      	b.n	800044c <svc+0x1e0>
 80003b0:	1c20      	adds	r0, r4, #0
 80003b2:	f001 fcdf 	bl	8001d74 <kstream_flush>
 80003b6:	e049      	b.n	800044c <svc+0x1e0>
 80003b8:	1c20      	adds	r0, r4, #0
 80003ba:	f001 fd05 	bl	8001dc8 <kstream_destroy>
 80003be:	e045      	b.n	800044c <svc+0x1e0>
 80003c0:	1c20      	adds	r0, r4, #0
 80003c2:	f001 fd4d 	bl	8001e60 <kdirect_read>
 80003c6:	e041      	b.n	800044c <svc+0x1e0>
 80003c8:	1c20      	adds	r0, r4, #0
 80003ca:	f001 fd6f 	bl	8001eac <kdirect_write>
 80003ce:	e03d      	b.n	800044c <svc+0x1e0>
 80003d0:	1c20      	adds	r0, r4, #0
 80003d2:	f001 fdc5 	bl	8001f60 <kblock_create>
 80003d6:	e039      	b.n	800044c <svc+0x1e0>
 80003d8:	1c20      	adds	r0, r4, #0
 80003da:	f001 fe25 	bl	8002028 <kblock_open>
 80003de:	e035      	b.n	800044c <svc+0x1e0>
 80003e0:	1c20      	adds	r0, r4, #0
 80003e2:	f001 fe5f 	bl	80020a4 <kblock_close>
 80003e6:	e031      	b.n	800044c <svc+0x1e0>
 80003e8:	1c20      	adds	r0, r4, #0
 80003ea:	f001 fe81 	bl	80020f0 <kblock_get_size>
 80003ee:	e02d      	b.n	800044c <svc+0x1e0>
 80003f0:	1c20      	adds	r0, r4, #0
 80003f2:	f001 fea3 	bl	800213c <kblock_send>
 80003f6:	e029      	b.n	800044c <svc+0x1e0>
 80003f8:	1c20      	adds	r0, r4, #0
 80003fa:	f001 fecf 	bl	800219c <kblock_send_ipc>
 80003fe:	e025      	b.n	800044c <svc+0x1e0>
 8000400:	1c20      	adds	r0, r4, #0
 8000402:	f001 fedb 	bl	80021bc <kblock_return>
 8000406:	e021      	b.n	800044c <svc+0x1e0>
 8000408:	1c20      	adds	r0, r4, #0
 800040a:	f001 fddb 	bl	8001fc4 <kblock_destroy>
 800040e:	e01d      	b.n	800044c <svc+0x1e0>
 8000410:	1c20      	adds	r0, r4, #0
 8000412:	f001 ff09 	bl	8002228 <kobject_set>
 8000416:	e019      	b.n	800044c <svc+0x1e0>
 8000418:	1c20      	adds	r0, r4, #0
 800041a:	f001 ff27 	bl	800226c <kobject_get>
 800041e:	e015      	b.n	800044c <svc+0x1e0>
 8000420:	4b0b      	ldr	r3, [pc, #44]	; (8000450 <svc+0x1e4>)
 8000422:	4a0c      	ldr	r2, [pc, #48]	; (8000454 <svc+0x1e8>)
 8000424:	6858      	ldr	r0, [r3, #4]
 8000426:	4290      	cmp	r0, r2
 8000428:	d10c      	bne.n	8000444 <svc+0x1d8>
 800042a:	6099      	str	r1, [r3, #8]
 800042c:	605c      	str	r4, [r3, #4]
 800042e:	480a      	ldr	r0, [pc, #40]	; (8000458 <svc+0x1ec>)
 8000430:	490a      	ldr	r1, [pc, #40]	; (800045c <svc+0x1f0>)
 8000432:	f000 f859 	bl	80004e8 <printk>
 8000436:	e009      	b.n	800044c <svc+0x1e0>
 8000438:	4b05      	ldr	r3, [pc, #20]	; (8000450 <svc+0x1e4>)
 800043a:	1c20      	adds	r0, r4, #0
 800043c:	685d      	ldr	r5, [r3, #4]
 800043e:	689a      	ldr	r2, [r3, #8]
 8000440:	47a8      	blx	r5
 8000442:	e003      	b.n	800044c <svc+0x1e0>
 8000444:	200a      	movs	r0, #10
 8000446:	4240      	negs	r0, r0
 8000448:	f000 faf4 	bl	8000a34 <kprocess_error_current>
 800044c:	bd38      	pop	{r3, r4, r5, pc}
 800044e:	46c0      	nop			; (mov r8, r8)
 8000450:	2000000c 	.word	0x2000000c
 8000454:	08000261 	.word	0x08000261
 8000458:	08008113 	.word	0x08008113
 800045c:	08008074 	.word	0x08008074

08000460 <panic>:
 8000460:	b508      	push	{r3, lr}
 8000462:	4808      	ldr	r0, [pc, #32]	; (8000484 <panic+0x24>)
 8000464:	f000 f840 	bl	80004e8 <printk>
 8000468:	2080      	movs	r0, #128	; 0x80
 800046a:	2180      	movs	r1, #128	; 0x80
 800046c:	0580      	lsls	r0, r0, #22
 800046e:	0089      	lsls	r1, r1, #2
 8000470:	f000 f84e 	bl	8000510 <dump>
 8000474:	f3bf 8f4f 	dsb	sy
 8000478:	4a03      	ldr	r2, [pc, #12]	; (8000488 <panic+0x28>)
 800047a:	4b04      	ldr	r3, [pc, #16]	; (800048c <panic+0x2c>)
 800047c:	601a      	str	r2, [r3, #0]
 800047e:	f3bf 8f4f 	dsb	sy
 8000482:	bd08      	pop	{r3, pc}
 8000484:	08008080 	.word	0x08008080
 8000488:	05fa0004 	.word	0x05fa0004
 800048c:	e000ed0c 	.word	0xe000ed0c

08000490 <startup>:
 8000490:	2380      	movs	r3, #128	; 0x80
 8000492:	4a0e      	ldr	r2, [pc, #56]	; (80004cc <startup+0x3c>)
 8000494:	059b      	lsls	r3, r3, #22
 8000496:	b510      	push	{r4, lr}
 8000498:	605a      	str	r2, [r3, #4]
 800049a:	4c0d      	ldr	r4, [pc, #52]	; (80004d0 <startup+0x40>)
 800049c:	4a0d      	ldr	r2, [pc, #52]	; (80004d4 <startup+0x44>)
 800049e:	2100      	movs	r1, #0
 80004a0:	609a      	str	r2, [r3, #8]
 80004a2:	1c20      	adds	r0, r4, #0
 80004a4:	22e0      	movs	r2, #224	; 0xe0
 80004a6:	f007 fc65 	bl	8007d74 <memset>
 80004aa:	4b0b      	ldr	r3, [pc, #44]	; (80004d8 <startup+0x48>)
 80004ac:	6063      	str	r3, [r4, #4]
 80004ae:	f000 f86b 	bl	8000588 <kirq_init>
 80004b2:	490a      	ldr	r1, [pc, #40]	; (80004dc <startup+0x4c>)
 80004b4:	480a      	ldr	r0, [pc, #40]	; (80004e0 <startup+0x50>)
 80004b6:	f002 f8b4 	bl	8002622 <pool_init>
 80004ba:	f000 ffd7 	bl	800146c <ktimer_init>
 80004be:	f001 fea5 	bl	800220c <kobject_init>
 80004c2:	4808      	ldr	r0, [pc, #32]	; (80004e4 <startup+0x54>)
 80004c4:	f000 fc22 	bl	8000d0c <kprocess_init>
 80004c8:	bd10      	pop	{r4, pc}
 80004ca:	46c0      	nop			; (mov r8, r8)
 80004cc:	0800026d 	.word	0x0800026d
 80004d0:	2000000c 	.word	0x2000000c
 80004d4:	0800837c 	.word	0x0800837c
 80004d8:	08000261 	.word	0x08000261
 80004dc:	200000ec 	.word	0x200000ec
 80004e0:	200000cc 	.word	0x200000cc
 80004e4:	080084e8 	.word	0x080084e8

080004e8 <printk>:
 80004e8:	b40f      	push	{r0, r1, r2, r3}
 80004ea:	b513      	push	{r0, r1, r4, lr}
 80004ec:	2480      	movs	r4, #128	; 0x80
 80004ee:	a904      	add	r1, sp, #16
 80004f0:	c901      	ldmia	r1!, {r0}
 80004f2:	05a4      	lsls	r4, r4, #22
 80004f4:	9101      	str	r1, [sp, #4]
 80004f6:	68a4      	ldr	r4, [r4, #8]
 80004f8:	4b04      	ldr	r3, [pc, #16]	; (800050c <printk+0x24>)
 80004fa:	6864      	ldr	r4, [r4, #4]
 80004fc:	685a      	ldr	r2, [r3, #4]
 80004fe:	6824      	ldr	r4, [r4, #0]
 8000500:	689b      	ldr	r3, [r3, #8]
 8000502:	47a0      	blx	r4
 8000504:	bc13      	pop	{r0, r1, r4}
 8000506:	bc08      	pop	{r3}
 8000508:	b004      	add	sp, #16
 800050a:	4718      	bx	r3
 800050c:	2000000c 	.word	0x2000000c

08000510 <dump>:
 8000510:	b5f7      	push	{r0, r1, r2, r4, r5, r6, r7, lr}
 8000512:	1c06      	adds	r6, r0, #0
 8000514:	1843      	adds	r3, r0, r1
 8000516:	1c0f      	adds	r7, r1, #0
 8000518:	4811      	ldr	r0, [pc, #68]	; (8000560 <dump+0x50>)
 800051a:	1c31      	adds	r1, r6, #0
 800051c:	1c1a      	adds	r2, r3, #0
 800051e:	9301      	str	r3, [sp, #4]
 8000520:	1c34      	adds	r4, r6, #0
 8000522:	f7ff ffe1 	bl	80004e8 <printk>
 8000526:	9a01      	ldr	r2, [sp, #4]
 8000528:	1ba5      	subs	r5, r4, r6
 800052a:	230f      	movs	r3, #15
 800052c:	4294      	cmp	r4, r2
 800052e:	d010      	beq.n	8000552 <dump+0x42>
 8000530:	401d      	ands	r5, r3
 8000532:	d103      	bne.n	800053c <dump+0x2c>
 8000534:	480b      	ldr	r0, [pc, #44]	; (8000564 <dump+0x54>)
 8000536:	1c21      	adds	r1, r4, #0
 8000538:	f7ff ffd6 	bl	80004e8 <printk>
 800053c:	7821      	ldrb	r1, [r4, #0]
 800053e:	480a      	ldr	r0, [pc, #40]	; (8000568 <dump+0x58>)
 8000540:	f7ff ffd2 	bl	80004e8 <printk>
 8000544:	2d0f      	cmp	r5, #15
 8000546:	d102      	bne.n	800054e <dump+0x3e>
 8000548:	4808      	ldr	r0, [pc, #32]	; (800056c <dump+0x5c>)
 800054a:	f7ff ffcd 	bl	80004e8 <printk>
 800054e:	3401      	adds	r4, #1
 8000550:	e7e9      	b.n	8000526 <dump+0x16>
 8000552:	421f      	tst	r7, r3
 8000554:	d002      	beq.n	800055c <dump+0x4c>
 8000556:	4805      	ldr	r0, [pc, #20]	; (800056c <dump+0x5c>)
 8000558:	f7ff ffc6 	bl	80004e8 <printk>
 800055c:	bdf7      	pop	{r0, r1, r2, r4, r5, r6, r7, pc}
 800055e:	46c0      	nop			; (mov r8, r8)
 8000560:	0800808f 	.word	0x0800808f
 8000564:	080080ab 	.word	0x080080ab
 8000568:	080080b4 	.word	0x080080b4
 800056c:	080087b2 	.word	0x080087b2

08000570 <kirq_stub>:
 8000570:	b508      	push	{r3, lr}
 8000572:	1c01      	adds	r1, r0, #0
 8000574:	4803      	ldr	r0, [pc, #12]	; (8000584 <kirq_stub+0x14>)
 8000576:	f7ff ffb7 	bl	80004e8 <printk>
 800057a:	200c      	movs	r0, #12
 800057c:	4240      	negs	r0, r0
 800057e:	f000 fa59 	bl	8000a34 <kprocess_error_current>
 8000582:	bd08      	pop	{r3, pc}
 8000584:	080080ba 	.word	0x080080ba

08000588 <kirq_init>:
 8000588:	4b05      	ldr	r3, [pc, #20]	; (80005a0 <kirq_init+0x18>)
 800058a:	4a06      	ldr	r2, [pc, #24]	; (80005a4 <kirq_init+0x1c>)
 800058c:	c304      	stmia	r3!, {r2}
 800058e:	4a06      	ldr	r2, [pc, #24]	; (80005a8 <kirq_init+0x20>)
 8000590:	4293      	cmp	r3, r2
 8000592:	d1fa      	bne.n	800058a <kirq_init+0x2>
 8000594:	2201      	movs	r2, #1
 8000596:	4b05      	ldr	r3, [pc, #20]	; (80005ac <kirq_init+0x24>)
 8000598:	4252      	negs	r2, r2
 800059a:	61da      	str	r2, [r3, #28]
 800059c:	4770      	bx	lr
 800059e:	46c0      	nop			; (mov r8, r8)
 80005a0:	2000002c 	.word	0x2000002c
 80005a4:	080080e0 	.word	0x080080e0
 80005a8:	200000ac 	.word	0x200000ac
 80005ac:	2000000c 	.word	0x2000000c

080005b0 <kirq_enter>:
 80005b0:	b538      	push	{r3, r4, r5, lr}
 80005b2:	1c03      	adds	r3, r0, #0
 80005b4:	4c05      	ldr	r4, [pc, #20]	; (80005cc <kirq_enter+0x1c>)
 80005b6:	3308      	adds	r3, #8
 80005b8:	009b      	lsls	r3, r3, #2
 80005ba:	591b      	ldr	r3, [r3, r4]
 80005bc:	69e5      	ldr	r5, [r4, #28]
 80005be:	681a      	ldr	r2, [r3, #0]
 80005c0:	61e0      	str	r0, [r4, #28]
 80005c2:	6859      	ldr	r1, [r3, #4]
 80005c4:	4790      	blx	r2
 80005c6:	61e5      	str	r5, [r4, #28]
 80005c8:	bd38      	pop	{r3, r4, r5, pc}
 80005ca:	46c0      	nop			; (mov r8, r8)
 80005cc:	2000000c 	.word	0x2000000c

080005d0 <kirq_register>:
 80005d0:	b5f7      	push	{r0, r1, r2, r4, r5, r6, r7, lr}
 80005d2:	1c0f      	adds	r7, r1, #0
 80005d4:	9201      	str	r2, [sp, #4]
 80005d6:	281f      	cmp	r0, #31
 80005d8:	dd01      	ble.n	80005de <kirq_register+0xe>
 80005da:	200d      	movs	r0, #13
 80005dc:	e014      	b.n	8000608 <kirq_register+0x38>
 80005de:	4b10      	ldr	r3, [pc, #64]	; (8000620 <kirq_register+0x50>)
 80005e0:	0080      	lsls	r0, r0, #2
 80005e2:	18c4      	adds	r4, r0, r3
 80005e4:	6a26      	ldr	r6, [r4, #32]
 80005e6:	4b0f      	ldr	r3, [pc, #60]	; (8000624 <kirq_register+0x54>)
 80005e8:	2006      	movs	r0, #6
 80005ea:	429e      	cmp	r6, r3
 80005ec:	d10c      	bne.n	8000608 <kirq_register+0x38>
 80005ee:	2380      	movs	r3, #128	; 0x80
 80005f0:	059b      	lsls	r3, r3, #22
 80005f2:	689b      	ldr	r3, [r3, #8]
 80005f4:	480c      	ldr	r0, [pc, #48]	; (8000628 <kirq_register+0x58>)
 80005f6:	681b      	ldr	r3, [r3, #0]
 80005f8:	210c      	movs	r1, #12
 80005fa:	68db      	ldr	r3, [r3, #12]
 80005fc:	4798      	blx	r3
 80005fe:	1e05      	subs	r5, r0, #0
 8000600:	6220      	str	r0, [r4, #32]
 8000602:	d105      	bne.n	8000610 <kirq_register+0x40>
 8000604:	201e      	movs	r0, #30
 8000606:	6226      	str	r6, [r4, #32]
 8000608:	4240      	negs	r0, r0
 800060a:	f000 fa13 	bl	8000a34 <kprocess_error_current>
 800060e:	e005      	b.n	800061c <kirq_register+0x4c>
 8000610:	9b01      	ldr	r3, [sp, #4]
 8000612:	6007      	str	r7, [r0, #0]
 8000614:	6043      	str	r3, [r0, #4]
 8000616:	f000 f9f9 	bl	8000a0c <kprocess_get_current>
 800061a:	60a8      	str	r0, [r5, #8]
 800061c:	bdf7      	pop	{r0, r1, r2, r4, r5, r6, r7, pc}
 800061e:	46c0      	nop			; (mov r8, r8)
 8000620:	2000000c 	.word	0x2000000c
 8000624:	080080e0 	.word	0x080080e0
 8000628:	200000cc 	.word	0x200000cc

0800062c <kirq_unregister>:
 800062c:	b538      	push	{r3, r4, r5, lr}
 800062e:	4b0c      	ldr	r3, [pc, #48]	; (8000660 <kirq_unregister+0x34>)
 8000630:	0080      	lsls	r0, r0, #2
 8000632:	18c4      	adds	r4, r0, r3
 8000634:	6a23      	ldr	r3, [r4, #32]
 8000636:	689d      	ldr	r5, [r3, #8]
 8000638:	f000 f9e8 	bl	8000a0c <kprocess_get_current>
 800063c:	4285      	cmp	r5, r0
 800063e:	d10a      	bne.n	8000656 <kirq_unregister+0x2a>
 8000640:	2380      	movs	r3, #128	; 0x80
 8000642:	059b      	lsls	r3, r3, #22
 8000644:	689b      	ldr	r3, [r3, #8]
 8000646:	4807      	ldr	r0, [pc, #28]	; (8000664 <kirq_unregister+0x38>)
 8000648:	681b      	ldr	r3, [r3, #0]
 800064a:	6a21      	ldr	r1, [r4, #32]
 800064c:	695b      	ldr	r3, [r3, #20]
 800064e:	4798      	blx	r3
 8000650:	4b05      	ldr	r3, [pc, #20]	; (8000668 <kirq_unregister+0x3c>)
 8000652:	6223      	str	r3, [r4, #32]
 8000654:	e003      	b.n	800065e <kirq_unregister+0x32>
 8000656:	200e      	movs	r0, #14
 8000658:	4240      	negs	r0, r0
 800065a:	f000 f9eb 	bl	8000a34 <kprocess_error_current>
 800065e:	bd38      	pop	{r3, r4, r5, pc}
 8000660:	2000000c 	.word	0x2000000c
 8000664:	200000cc 	.word	0x200000cc
 8000668:	080080e0 	.word	0x080080e0

0800066c <dlist_add_tail>:
 800066c:	6803      	ldr	r3, [r0, #0]
 800066e:	2b00      	cmp	r3, #0
 8000670:	d103      	bne.n	800067a <dlist_add_tail+0xe>
 8000672:	6001      	str	r1, [r0, #0]
 8000674:	6009      	str	r1, [r1, #0]
 8000676:	6049      	str	r1, [r1, #4]
 8000678:	e008      	b.n	800068c <dlist_add_tail+0x20>
 800067a:	604b      	str	r3, [r1, #4]
 800067c:	6803      	ldr	r3, [r0, #0]
 800067e:	681b      	ldr	r3, [r3, #0]
 8000680:	600b      	str	r3, [r1, #0]
 8000682:	6803      	ldr	r3, [r0, #0]
 8000684:	681b      	ldr	r3, [r3, #0]
 8000686:	6059      	str	r1, [r3, #4]
 8000688:	6803      	ldr	r3, [r0, #0]
 800068a:	6019      	str	r1, [r3, #0]
 800068c:	4770      	bx	lr

0800068e <dlist_remove_head>:
 800068e:	6803      	ldr	r3, [r0, #0]
 8000690:	685a      	ldr	r2, [r3, #4]
 8000692:	429a      	cmp	r2, r3
 8000694:	d101      	bne.n	800069a <dlist_remove_head+0xc>
 8000696:	2300      	movs	r3, #0
 8000698:	e007      	b.n	80006aa <dlist_remove_head+0x1c>
 800069a:	681b      	ldr	r3, [r3, #0]
 800069c:	6013      	str	r3, [r2, #0]
 800069e:	6803      	ldr	r3, [r0, #0]
 80006a0:	685a      	ldr	r2, [r3, #4]
 80006a2:	681b      	ldr	r3, [r3, #0]
 80006a4:	605a      	str	r2, [r3, #4]
 80006a6:	6803      	ldr	r3, [r0, #0]
 80006a8:	685b      	ldr	r3, [r3, #4]
 80006aa:	6003      	str	r3, [r0, #0]
 80006ac:	4770      	bx	lr

080006ae <dlist_remove>:
 80006ae:	b538      	push	{r3, r4, r5, lr}
 80006b0:	6805      	ldr	r5, [r0, #0]
 80006b2:	1c04      	adds	r4, r0, #0
 80006b4:	428d      	cmp	r5, r1
 80006b6:	d102      	bne.n	80006be <dlist_remove+0x10>
 80006b8:	f7ff ffe9 	bl	800068e <dlist_remove_head>
 80006bc:	e003      	b.n	80006c6 <dlist_remove+0x18>
 80006be:	6001      	str	r1, [r0, #0]
 80006c0:	f7ff ffe5 	bl	800068e <dlist_remove_head>
 80006c4:	6025      	str	r5, [r4, #0]
 80006c6:	bd38      	pop	{r3, r4, r5, pc}

080006c8 <kfree>:
 80006c8:	b508      	push	{r3, lr}
 80006ca:	2380      	movs	r3, #128	; 0x80
 80006cc:	059b      	lsls	r3, r3, #22
 80006ce:	689b      	ldr	r3, [r3, #8]
 80006d0:	1c01      	adds	r1, r0, #0
 80006d2:	681b      	ldr	r3, [r3, #0]
 80006d4:	4801      	ldr	r0, [pc, #4]	; (80006dc <kfree+0x14>)
 80006d6:	695b      	ldr	r3, [r3, #20]
 80006d8:	4798      	blx	r3
 80006da:	bd08      	pop	{r3, pc}
 80006dc:	200000cc 	.word	0x200000cc

080006e0 <switch_to_process>:
 80006e0:	b508      	push	{r3, lr}
 80006e2:	4b05      	ldr	r3, [pc, #20]	; (80006f8 <switch_to_process+0x18>)
 80006e4:	6118      	str	r0, [r3, #16]
 80006e6:	2800      	cmp	r0, #0
 80006e8:	d002      	beq.n	80006f0 <switch_to_process+0x10>
 80006ea:	6882      	ldr	r2, [r0, #8]
 80006ec:	3b0c      	subs	r3, #12
 80006ee:	601a      	str	r2, [r3, #0]
 80006f0:	f7ff fd55 	bl	800019e <pend_switch_context>
 80006f4:	bd08      	pop	{r3, pc}
 80006f6:	46c0      	nop			; (mov r8, r8)
 80006f8:	2000000c 	.word	0x2000000c

080006fc <dlist_enum>:
 80006fc:	1c03      	adds	r3, r0, #0
 80006fe:	7a00      	ldrb	r0, [r0, #8]
 8000700:	2800      	cmp	r0, #0
 8000702:	d009      	beq.n	8000718 <dlist_enum+0x1c>
 8000704:	685a      	ldr	r2, [r3, #4]
 8000706:	600a      	str	r2, [r1, #0]
 8000708:	685a      	ldr	r2, [r3, #4]
 800070a:	6819      	ldr	r1, [r3, #0]
 800070c:	6852      	ldr	r2, [r2, #4]
 800070e:	605a      	str	r2, [r3, #4]
 8000710:	1a52      	subs	r2, r2, r1
 8000712:	1e51      	subs	r1, r2, #1
 8000714:	418a      	sbcs	r2, r1
 8000716:	721a      	strb	r2, [r3, #8]
 8000718:	4770      	bx	lr

0800071a <kprocess_struct_ptr.isra.1>:
 800071a:	b508      	push	{r3, lr}
 800071c:	2380      	movs	r3, #128	; 0x80
 800071e:	059b      	lsls	r3, r3, #22
 8000720:	689b      	ldr	r3, [r3, #8]
 8000722:	68db      	ldr	r3, [r3, #12]
 8000724:	681b      	ldr	r3, [r3, #0]
 8000726:	4798      	blx	r3
 8000728:	bd08      	pop	{r3, pc}
 800072a:	0000      	movs	r0, r0

0800072c <dlist_add_head.constprop.5>:
 800072c:	4b08      	ldr	r3, [pc, #32]	; (8000750 <dlist_add_head.constprop.5+0x24>)
 800072e:	681a      	ldr	r2, [r3, #0]
 8000730:	2a00      	cmp	r2, #0
 8000732:	d102      	bne.n	800073a <dlist_add_head.constprop.5+0xe>
 8000734:	6000      	str	r0, [r0, #0]
 8000736:	6040      	str	r0, [r0, #4]
 8000738:	e008      	b.n	800074c <dlist_add_head.constprop.5+0x20>
 800073a:	6042      	str	r2, [r0, #4]
 800073c:	681a      	ldr	r2, [r3, #0]
 800073e:	6812      	ldr	r2, [r2, #0]
 8000740:	6002      	str	r2, [r0, #0]
 8000742:	681a      	ldr	r2, [r3, #0]
 8000744:	6812      	ldr	r2, [r2, #0]
 8000746:	6050      	str	r0, [r2, #4]
 8000748:	681a      	ldr	r2, [r3, #0]
 800074a:	6010      	str	r0, [r2, #0]
 800074c:	6018      	str	r0, [r3, #0]
 800074e:	4770      	bx	lr
 8000750:	20000020 	.word	0x20000020

08000754 <kprocess_add_to_active_list>:
 8000754:	b57f      	push	{r0, r1, r2, r3, r4, r5, r6, lr}
 8000756:	1c04      	adds	r4, r0, #0
 8000758:	3044      	adds	r0, #68	; 0x44
 800075a:	f000 fc69 	bl	8001030 <ktimer_get_uptime_internal>
 800075e:	4823      	ldr	r0, [pc, #140]	; (80007ec <kprocess_add_to_active_list+0x98>)
 8000760:	1c21      	adds	r1, r4, #0
 8000762:	f7ff ffa4 	bl	80006ae <dlist_remove>
 8000766:	4b22      	ldr	r3, [pc, #136]	; (80007f0 <kprocess_add_to_active_list+0x9c>)
 8000768:	695d      	ldr	r5, [r3, #20]
 800076a:	2d00      	cmp	r5, #0
 800076c:	d106      	bne.n	800077c <kprocess_add_to_active_list+0x28>
 800076e:	1c20      	adds	r0, r4, #0
 8000770:	f7ff ffdc 	bl	800072c <dlist_add_head.constprop.5>
 8000774:	1c20      	adds	r0, r4, #0
 8000776:	f7ff ffb3 	bl	80006e0 <switch_to_process>
 800077a:	e035      	b.n	80007e8 <kprocess_add_to_active_list+0x94>
 800077c:	69a3      	ldr	r3, [r4, #24]
 800077e:	69aa      	ldr	r2, [r5, #24]
 8000780:	4293      	cmp	r3, r2
 8000782:	d209      	bcs.n	8000798 <kprocess_add_to_active_list+0x44>
 8000784:	481b      	ldr	r0, [pc, #108]	; (80007f4 <kprocess_add_to_active_list+0xa0>)
 8000786:	f7ff ff82 	bl	800068e <dlist_remove_head>
 800078a:	1c20      	adds	r0, r4, #0
 800078c:	f7ff ffce 	bl	800072c <dlist_add_head.constprop.5>
 8000790:	1c20      	adds	r0, r4, #0
 8000792:	f7ff ffa5 	bl	80006e0 <switch_to_process>
 8000796:	1c2c      	adds	r4, r5, #0
 8000798:	4b16      	ldr	r3, [pc, #88]	; (80007f4 <kprocess_add_to_active_list+0xa0>)
 800079a:	ad01      	add	r5, sp, #4
 800079c:	681a      	ldr	r2, [r3, #0]
 800079e:	1c1e      	adds	r6, r3, #0
 80007a0:	9201      	str	r2, [sp, #4]
 80007a2:	681a      	ldr	r2, [r3, #0]
 80007a4:	606a      	str	r2, [r5, #4]
 80007a6:	681a      	ldr	r2, [r3, #0]
 80007a8:	1e51      	subs	r1, r2, #1
 80007aa:	418a      	sbcs	r2, r1
 80007ac:	722a      	strb	r2, [r5, #8]
 80007ae:	1c28      	adds	r0, r5, #0
 80007b0:	4669      	mov	r1, sp
 80007b2:	f7ff ffa3 	bl	80006fc <dlist_enum>
 80007b6:	2800      	cmp	r0, #0
 80007b8:	d012      	beq.n	80007e0 <kprocess_add_to_active_list+0x8c>
 80007ba:	9b00      	ldr	r3, [sp, #0]
 80007bc:	69a2      	ldr	r2, [r4, #24]
 80007be:	6999      	ldr	r1, [r3, #24]
 80007c0:	428a      	cmp	r2, r1
 80007c2:	d2f4      	bcs.n	80007ae <kprocess_add_to_active_list+0x5a>
 80007c4:	6832      	ldr	r2, [r6, #0]
 80007c6:	4293      	cmp	r3, r2
 80007c8:	d103      	bne.n	80007d2 <kprocess_add_to_active_list+0x7e>
 80007ca:	1c20      	adds	r0, r4, #0
 80007cc:	f7ff ffae 	bl	800072c <dlist_add_head.constprop.5>
 80007d0:	e00a      	b.n	80007e8 <kprocess_add_to_active_list+0x94>
 80007d2:	681a      	ldr	r2, [r3, #0]
 80007d4:	6063      	str	r3, [r4, #4]
 80007d6:	6022      	str	r2, [r4, #0]
 80007d8:	681a      	ldr	r2, [r3, #0]
 80007da:	6054      	str	r4, [r2, #4]
 80007dc:	601c      	str	r4, [r3, #0]
 80007de:	e003      	b.n	80007e8 <kprocess_add_to_active_list+0x94>
 80007e0:	4804      	ldr	r0, [pc, #16]	; (80007f4 <kprocess_add_to_active_list+0xa0>)
 80007e2:	1c21      	adds	r1, r4, #0
 80007e4:	f7ff ff42 	bl	800066c <dlist_add_tail>
 80007e8:	bd7f      	pop	{r0, r1, r2, r3, r4, r5, r6, pc}
 80007ea:	46c0      	nop			; (mov r8, r8)
 80007ec:	20000024 	.word	0x20000024
 80007f0:	2000000c 	.word	0x2000000c
 80007f4:	20000020 	.word	0x20000020

080007f8 <kprocess_remove_from_active_list>:
 80007f8:	b537      	push	{r0, r1, r2, r4, r5, lr}
 80007fa:	4d14      	ldr	r5, [pc, #80]	; (800084c <kprocess_remove_from_active_list+0x54>)
 80007fc:	1e04      	subs	r4, r0, #0
 80007fe:	696b      	ldr	r3, [r5, #20]
 8000800:	4813      	ldr	r0, [pc, #76]	; (8000850 <kprocess_remove_from_active_list+0x58>)
 8000802:	429c      	cmp	r4, r3
 8000804:	d105      	bne.n	8000812 <kprocess_remove_from_active_list+0x1a>
 8000806:	f7ff ff42 	bl	800068e <dlist_remove_head>
 800080a:	6968      	ldr	r0, [r5, #20]
 800080c:	f7ff ff68 	bl	80006e0 <switch_to_process>
 8000810:	e002      	b.n	8000818 <kprocess_remove_from_active_list+0x20>
 8000812:	1c21      	adds	r1, r4, #0
 8000814:	f7ff ff4b 	bl	80006ae <dlist_remove>
 8000818:	2580      	movs	r5, #128	; 0x80
 800081a:	1c21      	adds	r1, r4, #0
 800081c:	480d      	ldr	r0, [pc, #52]	; (8000854 <kprocess_remove_from_active_list+0x5c>)
 800081e:	f7ff ff25 	bl	800066c <dlist_add_tail>
 8000822:	4668      	mov	r0, sp
 8000824:	f000 fc04 	bl	8001030 <ktimer_get_uptime_internal>
 8000828:	1c20      	adds	r0, r4, #0
 800082a:	05ad      	lsls	r5, r5, #22
 800082c:	68ab      	ldr	r3, [r5, #8]
 800082e:	4669      	mov	r1, sp
 8000830:	689b      	ldr	r3, [r3, #8]
 8000832:	466a      	mov	r2, sp
 8000834:	3044      	adds	r0, #68	; 0x44
 8000836:	691b      	ldr	r3, [r3, #16]
 8000838:	4798      	blx	r3
 800083a:	1c22      	adds	r2, r4, #0
 800083c:	68ab      	ldr	r3, [r5, #8]
 800083e:	323c      	adds	r2, #60	; 0x3c
 8000840:	689b      	ldr	r3, [r3, #8]
 8000842:	4668      	mov	r0, sp
 8000844:	68db      	ldr	r3, [r3, #12]
 8000846:	1c11      	adds	r1, r2, #0
 8000848:	4798      	blx	r3
 800084a:	bd37      	pop	{r0, r1, r2, r4, r5, pc}
 800084c:	2000000c 	.word	0x2000000c
 8000850:	20000020 	.word	0x20000020
 8000854:	20000024 	.word	0x20000024

08000858 <kprocess_wakeup_internal>:
 8000858:	6943      	ldr	r3, [r0, #20]
 800085a:	b510      	push	{r4, lr}
 800085c:	079b      	lsls	r3, r3, #30
 800085e:	d515      	bpl.n	800088c <kprocess_wakeup_internal+0x34>
 8000860:	1c04      	adds	r4, r0, #0
 8000862:	301c      	adds	r0, #28
 8000864:	f000 fd4a 	bl	80012fc <ktimer_stop_internal>
 8000868:	6962      	ldr	r2, [r4, #20]
 800086a:	23f0      	movs	r3, #240	; 0xf0
 800086c:	1c11      	adds	r1, r2, #0
 800086e:	4399      	bics	r1, r3
 8000870:	2303      	movs	r3, #3
 8000872:	6161      	str	r1, [r4, #20]
 8000874:	4013      	ands	r3, r2
 8000876:	2b02      	cmp	r3, #2
 8000878:	d004      	beq.n	8000884 <kprocess_wakeup_internal+0x2c>
 800087a:	2b03      	cmp	r3, #3
 800087c:	d106      	bne.n	800088c <kprocess_wakeup_internal+0x34>
 800087e:	1c20      	adds	r0, r4, #0
 8000880:	f7ff ff68 	bl	8000754 <kprocess_add_to_active_list>
 8000884:	2302      	movs	r3, #2
 8000886:	6962      	ldr	r2, [r4, #20]
 8000888:	439a      	bics	r2, r3
 800088a:	6162      	str	r2, [r4, #20]
 800088c:	bd10      	pop	{r4, pc}

0800088e <kprocess_timeout>:
 800088e:	b510      	push	{r4, lr}
 8000890:	b672      	cpsid	i
 8000892:	6942      	ldr	r2, [r0, #20]
 8000894:	0793      	lsls	r3, r2, #30
 8000896:	d518      	bpl.n	80008ca <kprocess_timeout+0x3c>
 8000898:	23f0      	movs	r3, #240	; 0xf0
 800089a:	1c04      	adds	r4, r0, #0
 800089c:	4013      	ands	r3, r2
 800089e:	2b40      	cmp	r3, #64	; 0x40
 80008a0:	d006      	beq.n	80008b0 <kprocess_timeout+0x22>
 80008a2:	2b50      	cmp	r3, #80	; 0x50
 80008a4:	d106      	bne.n	80008b4 <kprocess_timeout+0x26>
 80008a6:	6b80      	ldr	r0, [r0, #56]	; 0x38
 80008a8:	1c21      	adds	r1, r4, #0
 80008aa:	f000 ffd9 	bl	8001860 <kstream_lock_release>
 80008ae:	e001      	b.n	80008b4 <kprocess_timeout+0x26>
 80008b0:	f000 fdf8 	bl	80014a4 <kipc_lock_release>
 80008b4:	23f0      	movs	r3, #240	; 0xf0
 80008b6:	6962      	ldr	r2, [r4, #20]
 80008b8:	421a      	tst	r2, r3
 80008ba:	d003      	beq.n	80008c4 <kprocess_timeout+0x36>
 80008bc:	2209      	movs	r2, #9
 80008be:	68a3      	ldr	r3, [r4, #8]
 80008c0:	4252      	negs	r2, r2
 80008c2:	601a      	str	r2, [r3, #0]
 80008c4:	1c20      	adds	r0, r4, #0
 80008c6:	f7ff ffc7 	bl	8000858 <kprocess_wakeup_internal>
 80008ca:	b662      	cpsie	i
 80008cc:	bd10      	pop	{r4, pc}
 80008ce:	0000      	movs	r0, r0

080008d0 <kprocess_create>:
 80008d0:	b5f8      	push	{r3, r4, r5, r6, r7, lr}
 80008d2:	2680      	movs	r6, #128	; 0x80
 80008d4:	2714      	movs	r7, #20
 80008d6:	1c0c      	adds	r4, r1, #0
 80008d8:	6901      	ldr	r1, [r0, #16]
 80008da:	1c05      	adds	r5, r0, #0
 80008dc:	05b6      	lsls	r6, r6, #22
 80008de:	68b3      	ldr	r3, [r6, #8]
 80008e0:	4379      	muls	r1, r7
 80008e2:	681b      	ldr	r3, [r3, #0]
 80008e4:	3168      	adds	r1, #104	; 0x68
 80008e6:	68db      	ldr	r3, [r3, #12]
 80008e8:	4845      	ldr	r0, [pc, #276]	; (8000a00 <kprocess_create+0x130>)
 80008ea:	4798      	blx	r3
 80008ec:	692a      	ldr	r2, [r5, #16]
 80008ee:	6020      	str	r0, [r4, #0]
 80008f0:	437a      	muls	r2, r7
 80008f2:	2100      	movs	r1, #0
 80008f4:	3268      	adds	r2, #104	; 0x68
 80008f6:	f007 fa3d 	bl	8007d74 <memset>
 80008fa:	6827      	ldr	r7, [r4, #0]
 80008fc:	2f00      	cmp	r7, #0
 80008fe:	d07a      	beq.n	80009f6 <kprocess_create+0x126>
 8000900:	68b3      	ldr	r3, [r6, #8]
 8000902:	483f      	ldr	r0, [pc, #252]	; (8000a00 <kprocess_create+0x130>)
 8000904:	681b      	ldr	r3, [r3, #0]
 8000906:	6869      	ldr	r1, [r5, #4]
 8000908:	68db      	ldr	r3, [r3, #12]
 800090a:	4798      	blx	r3
 800090c:	60b8      	str	r0, [r7, #8]
 800090e:	6820      	ldr	r0, [r4, #0]
 8000910:	6887      	ldr	r7, [r0, #8]
 8000912:	2f00      	cmp	r7, #0
 8000914:	d069      	beq.n	80009ea <kprocess_create+0x11a>
 8000916:	2600      	movs	r6, #0
 8000918:	21cd      	movs	r1, #205	; 0xcd
 800091a:	686a      	ldr	r2, [r5, #4]
 800091c:	1c38      	adds	r0, r7, #0
 800091e:	f007 fa29 	bl	8007d74 <memset>
 8000922:	6823      	ldr	r3, [r4, #0]
 8000924:	68aa      	ldr	r2, [r5, #8]
 8000926:	6869      	ldr	r1, [r5, #4]
 8000928:	619a      	str	r2, [r3, #24]
 800092a:	689a      	ldr	r2, [r3, #8]
 800092c:	615e      	str	r6, [r3, #20]
 800092e:	1852      	adds	r2, r2, r1
 8000930:	60da      	str	r2, [r3, #12]
 8000932:	6820      	ldr	r0, [r4, #0]
 8000934:	4933      	ldr	r1, [pc, #204]	; (8000a04 <kprocess_create+0x134>)
 8000936:	301c      	adds	r0, #28
 8000938:	6822      	ldr	r2, [r4, #0]
 800093a:	f000 fcf7 	bl	800132c <ktimer_init_internal>
 800093e:	6823      	ldr	r3, [r4, #0]
 8000940:	686a      	ldr	r2, [r5, #4]
 8000942:	64de      	str	r6, [r3, #76]	; 0x4c
 8000944:	611a      	str	r2, [r3, #16]
 8000946:	6820      	ldr	r0, [r4, #0]
 8000948:	6929      	ldr	r1, [r5, #16]
 800094a:	f000 febf 	bl	80016cc <kipc_init>
 800094e:	6820      	ldr	r0, [r4, #0]
 8000950:	f001 fa80 	bl	8001e54 <kdirect_init>
 8000954:	2201      	movs	r2, #1
 8000956:	6823      	ldr	r3, [r4, #0]
 8000958:	4252      	negs	r2, r2
 800095a:	689b      	ldr	r3, [r3, #8]
 800095c:	619a      	str	r2, [r3, #24]
 800095e:	615a      	str	r2, [r3, #20]
 8000960:	68ea      	ldr	r2, [r5, #12]
 8000962:	0e12      	lsrs	r2, r2, #24
 8000964:	711a      	strb	r2, [r3, #4]
 8000966:	6823      	ldr	r3, [r4, #0]
 8000968:	6898      	ldr	r0, [r3, #8]
 800096a:	7903      	ldrb	r3, [r0, #4]
 800096c:	07db      	lsls	r3, r3, #31
 800096e:	d505      	bpl.n	800097c <kprocess_create+0xac>
 8000970:	1c31      	adds	r1, r6, #0
 8000972:	f7ff fed2 	bl	800071a <kprocess_struct_ptr.isra.1>
 8000976:	682b      	ldr	r3, [r5, #0]
 8000978:	6003      	str	r3, [r0, #0]
 800097a:	e016      	b.n	80009aa <kprocess_create+0xda>
 800097c:	6828      	ldr	r0, [r5, #0]
 800097e:	f007 fa3f 	bl	8007e00 <strlen>
 8000982:	1e06      	subs	r6, r0, #0
 8000984:	2e80      	cmp	r6, #128	; 0x80
 8000986:	d900      	bls.n	800098a <kprocess_create+0xba>
 8000988:	2680      	movs	r6, #128	; 0x80
 800098a:	6823      	ldr	r3, [r4, #0]
 800098c:	2100      	movs	r1, #0
 800098e:	6898      	ldr	r0, [r3, #8]
 8000990:	f7ff fec3 	bl	800071a <kprocess_struct_ptr.isra.1>
 8000994:	6829      	ldr	r1, [r5, #0]
 8000996:	1c32      	adds	r2, r6, #0
 8000998:	f007 f962 	bl	8007c60 <memcpy>
 800099c:	6823      	ldr	r3, [r4, #0]
 800099e:	2100      	movs	r1, #0
 80009a0:	6898      	ldr	r0, [r3, #8]
 80009a2:	f7ff feba 	bl	800071a <kprocess_struct_ptr.isra.1>
 80009a6:	2300      	movs	r3, #0
 80009a8:	5583      	strb	r3, [r0, r6]
 80009aa:	6823      	ldr	r3, [r4, #0]
 80009ac:	2101      	movs	r1, #1
 80009ae:	689e      	ldr	r6, [r3, #8]
 80009b0:	1c30      	adds	r0, r6, #0
 80009b2:	f7ff feb2 	bl	800071a <kprocess_struct_ptr.isra.1>
 80009b6:	1c01      	adds	r1, r0, #0
 80009b8:	1c30      	adds	r0, r6, #0
 80009ba:	3008      	adds	r0, #8
 80009bc:	f001 fe31 	bl	8002622 <pool_init>
 80009c0:	6820      	ldr	r0, [r4, #0]
 80009c2:	6969      	ldr	r1, [r5, #20]
 80009c4:	f7ff fbef 	bl	80001a6 <process_setup_context>
 80009c8:	480f      	ldr	r0, [pc, #60]	; (8000a08 <kprocess_create+0x138>)
 80009ca:	6821      	ldr	r1, [r4, #0]
 80009cc:	f7ff fe4e 	bl	800066c <dlist_add_tail>
 80009d0:	2301      	movs	r3, #1
 80009d2:	68ea      	ldr	r2, [r5, #12]
 80009d4:	421a      	tst	r2, r3
 80009d6:	d012      	beq.n	80009fe <kprocess_create+0x12e>
 80009d8:	6820      	ldr	r0, [r4, #0]
 80009da:	6942      	ldr	r2, [r0, #20]
 80009dc:	4313      	orrs	r3, r2
 80009de:	6143      	str	r3, [r0, #20]
 80009e0:	b672      	cpsid	i
 80009e2:	f7ff feb7 	bl	8000754 <kprocess_add_to_active_list>
 80009e6:	b662      	cpsie	i
 80009e8:	e009      	b.n	80009fe <kprocess_create+0x12e>
 80009ea:	f7ff fe6d 	bl	80006c8 <kfree>
 80009ee:	6027      	str	r7, [r4, #0]
 80009f0:	6833      	ldr	r3, [r6, #0]
 80009f2:	221f      	movs	r2, #31
 80009f4:	e001      	b.n	80009fa <kprocess_create+0x12a>
 80009f6:	221e      	movs	r2, #30
 80009f8:	6833      	ldr	r3, [r6, #0]
 80009fa:	4252      	negs	r2, r2
 80009fc:	601a      	str	r2, [r3, #0]
 80009fe:	bdf8      	pop	{r3, r4, r5, r6, r7, pc}
 8000a00:	200000cc 	.word	0x200000cc
 8000a04:	0800088f 	.word	0x0800088f
 8000a08:	20000024 	.word	0x20000024

08000a0c <kprocess_get_current>:
 8000a0c:	4a05      	ldr	r2, [pc, #20]	; (8000a24 <kprocess_get_current+0x18>)
 8000a0e:	69d3      	ldr	r3, [r2, #28]
 8000a10:	2b00      	cmp	r3, #0
 8000a12:	db04      	blt.n	8000a1e <kprocess_get_current+0x12>
 8000a14:	3308      	adds	r3, #8
 8000a16:	009b      	lsls	r3, r3, #2
 8000a18:	589b      	ldr	r3, [r3, r2]
 8000a1a:	6898      	ldr	r0, [r3, #8]
 8000a1c:	e000      	b.n	8000a20 <kprocess_get_current+0x14>
 8000a1e:	68d0      	ldr	r0, [r2, #12]
 8000a20:	4770      	bx	lr
 8000a22:	46c0      	nop			; (mov r8, r8)
 8000a24:	2000000c 	.word	0x2000000c

08000a28 <kprocess_get_current_svc>:
 8000a28:	b510      	push	{r4, lr}
 8000a2a:	1c04      	adds	r4, r0, #0
 8000a2c:	f7ff ffee 	bl	8000a0c <kprocess_get_current>
 8000a30:	6020      	str	r0, [r4, #0]
 8000a32:	bd10      	pop	{r4, pc}

08000a34 <kprocess_error_current>:
 8000a34:	b510      	push	{r4, lr}
 8000a36:	1c04      	adds	r4, r0, #0
 8000a38:	f7ff ffe8 	bl	8000a0c <kprocess_get_current>
 8000a3c:	2800      	cmp	r0, #0
 8000a3e:	d002      	beq.n	8000a46 <kprocess_error_current+0x12>
 8000a40:	1c21      	adds	r1, r4, #0
 8000a42:	f000 f92d 	bl	8000ca0 <kprocess_error>
 8000a46:	bd10      	pop	{r4, pc}

08000a48 <kprocess_get_flags>:
 8000a48:	b508      	push	{r3, lr}
 8000a4a:	4b09      	ldr	r3, [pc, #36]	; (8000a70 <kprocess_get_flags+0x28>)
 8000a4c:	18c2      	adds	r2, r0, r3
 8000a4e:	4b09      	ldr	r3, [pc, #36]	; (8000a74 <kprocess_get_flags+0x2c>)
 8000a50:	429a      	cmp	r2, r3
 8000a52:	d804      	bhi.n	8000a5e <kprocess_get_flags+0x16>
 8000a54:	1c02      	adds	r2, r0, #0
 8000a56:	4b08      	ldr	r3, [pc, #32]	; (8000a78 <kprocess_get_flags+0x30>)
 8000a58:	3268      	adds	r2, #104	; 0x68
 8000a5a:	429a      	cmp	r2, r3
 8000a5c:	d904      	bls.n	8000a68 <kprocess_get_flags+0x20>
 8000a5e:	2008      	movs	r0, #8
 8000a60:	4240      	negs	r0, r0
 8000a62:	f7ff ffe7 	bl	8000a34 <kprocess_error_current>
 8000a66:	e001      	b.n	8000a6c <kprocess_get_flags+0x24>
 8000a68:	6943      	ldr	r3, [r0, #20]
 8000a6a:	600b      	str	r3, [r1, #0]
 8000a6c:	bd08      	pop	{r3, pc}
 8000a6e:	46c0      	nop			; (mov r8, r8)
 8000a70:	dffffff4 	.word	0xdffffff4
 8000a74:	dffffff0 	.word	0xdffffff0
 8000a78:	20001fff 	.word	0x20001fff

08000a7c <kprocess_set_flags>:
 8000a7c:	4b17      	ldr	r3, [pc, #92]	; (8000adc <kprocess_set_flags+0x60>)
 8000a7e:	b510      	push	{r4, lr}
 8000a80:	18c2      	adds	r2, r0, r3
 8000a82:	4b17      	ldr	r3, [pc, #92]	; (8000ae0 <kprocess_set_flags+0x64>)
 8000a84:	1c04      	adds	r4, r0, #0
 8000a86:	429a      	cmp	r2, r3
 8000a88:	d804      	bhi.n	8000a94 <kprocess_set_flags+0x18>
 8000a8a:	1c02      	adds	r2, r0, #0
 8000a8c:	4b15      	ldr	r3, [pc, #84]	; (8000ae4 <kprocess_set_flags+0x68>)
 8000a8e:	3268      	adds	r2, #104	; 0x68
 8000a90:	429a      	cmp	r2, r3
 8000a92:	d904      	bls.n	8000a9e <kprocess_set_flags+0x22>
 8000a94:	2008      	movs	r0, #8
 8000a96:	4240      	negs	r0, r0
 8000a98:	f7ff ffcc 	bl	8000a34 <kprocess_error_current>
 8000a9c:	e01d      	b.n	8000ada <kprocess_set_flags+0x5e>
 8000a9e:	b672      	cpsid	i
 8000aa0:	2303      	movs	r3, #3
 8000aa2:	6942      	ldr	r2, [r0, #20]
 8000aa4:	4013      	ands	r3, r2
 8000aa6:	07c9      	lsls	r1, r1, #31
 8000aa8:	d50a      	bpl.n	8000ac0 <kprocess_set_flags+0x44>
 8000aaa:	2b00      	cmp	r3, #0
 8000aac:	d002      	beq.n	8000ab4 <kprocess_set_flags+0x38>
 8000aae:	2b02      	cmp	r3, #2
 8000ab0:	d002      	beq.n	8000ab8 <kprocess_set_flags+0x3c>
 8000ab2:	e011      	b.n	8000ad8 <kprocess_set_flags+0x5c>
 8000ab4:	f7ff fe4e 	bl	8000754 <kprocess_add_to_active_list>
 8000ab8:	2301      	movs	r3, #1
 8000aba:	6962      	ldr	r2, [r4, #20]
 8000abc:	4313      	orrs	r3, r2
 8000abe:	e00a      	b.n	8000ad6 <kprocess_set_flags+0x5a>
 8000ac0:	2b01      	cmp	r3, #1
 8000ac2:	d002      	beq.n	8000aca <kprocess_set_flags+0x4e>
 8000ac4:	2b03      	cmp	r3, #3
 8000ac6:	d002      	beq.n	8000ace <kprocess_set_flags+0x52>
 8000ac8:	e006      	b.n	8000ad8 <kprocess_set_flags+0x5c>
 8000aca:	f7ff fe95 	bl	80007f8 <kprocess_remove_from_active_list>
 8000ace:	2301      	movs	r3, #1
 8000ad0:	6962      	ldr	r2, [r4, #20]
 8000ad2:	439a      	bics	r2, r3
 8000ad4:	1c13      	adds	r3, r2, #0
 8000ad6:	6163      	str	r3, [r4, #20]
 8000ad8:	b662      	cpsie	i
 8000ada:	bd10      	pop	{r4, pc}
 8000adc:	dffffff4 	.word	0xdffffff4
 8000ae0:	dffffff0 	.word	0xdffffff0
 8000ae4:	20001fff 	.word	0x20001fff

08000ae8 <kprocess_set_priority>:
 8000ae8:	4b10      	ldr	r3, [pc, #64]	; (8000b2c <kprocess_set_priority+0x44>)
 8000aea:	b510      	push	{r4, lr}
 8000aec:	18c2      	adds	r2, r0, r3
 8000aee:	4b10      	ldr	r3, [pc, #64]	; (8000b30 <kprocess_set_priority+0x48>)
 8000af0:	1c04      	adds	r4, r0, #0
 8000af2:	429a      	cmp	r2, r3
 8000af4:	d804      	bhi.n	8000b00 <kprocess_set_priority+0x18>
 8000af6:	1c02      	adds	r2, r0, #0
 8000af8:	4b0e      	ldr	r3, [pc, #56]	; (8000b34 <kprocess_set_priority+0x4c>)
 8000afa:	3268      	adds	r2, #104	; 0x68
 8000afc:	429a      	cmp	r2, r3
 8000afe:	d904      	bls.n	8000b0a <kprocess_set_priority+0x22>
 8000b00:	2008      	movs	r0, #8
 8000b02:	4240      	negs	r0, r0
 8000b04:	f7ff ff96 	bl	8000a34 <kprocess_error_current>
 8000b08:	e00f      	b.n	8000b2a <kprocess_set_priority+0x42>
 8000b0a:	b672      	cpsid	i
 8000b0c:	6983      	ldr	r3, [r0, #24]
 8000b0e:	428b      	cmp	r3, r1
 8000b10:	d00a      	beq.n	8000b28 <kprocess_set_priority+0x40>
 8000b12:	2303      	movs	r3, #3
 8000b14:	6942      	ldr	r2, [r0, #20]
 8000b16:	6181      	str	r1, [r0, #24]
 8000b18:	4013      	ands	r3, r2
 8000b1a:	2b01      	cmp	r3, #1
 8000b1c:	d104      	bne.n	8000b28 <kprocess_set_priority+0x40>
 8000b1e:	f7ff fe6b 	bl	80007f8 <kprocess_remove_from_active_list>
 8000b22:	1c20      	adds	r0, r4, #0
 8000b24:	f7ff fe16 	bl	8000754 <kprocess_add_to_active_list>
 8000b28:	b662      	cpsie	i
 8000b2a:	bd10      	pop	{r4, pc}
 8000b2c:	dffffff4 	.word	0xdffffff4
 8000b30:	dffffff0 	.word	0xdffffff0
 8000b34:	20001fff 	.word	0x20001fff

08000b38 <kprocess_get_priority>:
 8000b38:	b508      	push	{r3, lr}
 8000b3a:	4b09      	ldr	r3, [pc, #36]	; (8000b60 <kprocess_get_priority+0x28>)
 8000b3c:	18c2      	adds	r2, r0, r3
 8000b3e:	4b09      	ldr	r3, [pc, #36]	; (8000b64 <kprocess_get_priority+0x2c>)
 8000b40:	429a      	cmp	r2, r3
 8000b42:	d804      	bhi.n	8000b4e <kprocess_get_priority+0x16>
 8000b44:	1c02      	adds	r2, r0, #0
 8000b46:	4b08      	ldr	r3, [pc, #32]	; (8000b68 <kprocess_get_priority+0x30>)
 8000b48:	3268      	adds	r2, #104	; 0x68
 8000b4a:	429a      	cmp	r2, r3
 8000b4c:	d904      	bls.n	8000b58 <kprocess_get_priority+0x20>
 8000b4e:	2008      	movs	r0, #8
 8000b50:	4240      	negs	r0, r0
 8000b52:	f7ff ff6f 	bl	8000a34 <kprocess_error_current>
 8000b56:	e001      	b.n	8000b5c <kprocess_get_priority+0x24>
 8000b58:	6983      	ldr	r3, [r0, #24]
 8000b5a:	600b      	str	r3, [r1, #0]
 8000b5c:	bd08      	pop	{r3, pc}
 8000b5e:	46c0      	nop			; (mov r8, r8)
 8000b60:	dffffff4 	.word	0xdffffff4
 8000b64:	dffffff0 	.word	0xdffffff0
 8000b68:	20001fff 	.word	0x20001fff

08000b6c <kprocess_destroy>:
 8000b6c:	b510      	push	{r4, lr}
 8000b6e:	1c43      	adds	r3, r0, #1
 8000b70:	d03e      	beq.n	8000bf0 <kprocess_destroy+0x84>
 8000b72:	4b20      	ldr	r3, [pc, #128]	; (8000bf4 <kprocess_destroy+0x88>)
 8000b74:	1c04      	adds	r4, r0, #0
 8000b76:	18c2      	adds	r2, r0, r3
 8000b78:	4b1f      	ldr	r3, [pc, #124]	; (8000bf8 <kprocess_destroy+0x8c>)
 8000b7a:	429a      	cmp	r2, r3
 8000b7c:	d804      	bhi.n	8000b88 <kprocess_destroy+0x1c>
 8000b7e:	1c02      	adds	r2, r0, #0
 8000b80:	4b1e      	ldr	r3, [pc, #120]	; (8000bfc <kprocess_destroy+0x90>)
 8000b82:	3268      	adds	r2, #104	; 0x68
 8000b84:	429a      	cmp	r2, r3
 8000b86:	d904      	bls.n	8000b92 <kprocess_destroy+0x26>
 8000b88:	2008      	movs	r0, #8
 8000b8a:	4240      	negs	r0, r0
 8000b8c:	f7ff ff52 	bl	8000a34 <kprocess_error_current>
 8000b90:	e02e      	b.n	8000bf0 <kprocess_destroy+0x84>
 8000b92:	b672      	cpsid	i
 8000b94:	2303      	movs	r3, #3
 8000b96:	6942      	ldr	r2, [r0, #20]
 8000b98:	4013      	ands	r3, r2
 8000b9a:	2b01      	cmp	r3, #1
 8000b9c:	d107      	bne.n	8000bae <kprocess_destroy+0x42>
 8000b9e:	f7ff fe2b 	bl	80007f8 <kprocess_remove_from_active_list>
 8000ba2:	4b17      	ldr	r3, [pc, #92]	; (8000c00 <kprocess_destroy+0x94>)
 8000ba4:	68da      	ldr	r2, [r3, #12]
 8000ba6:	42a2      	cmp	r2, r4
 8000ba8:	d101      	bne.n	8000bae <kprocess_destroy+0x42>
 8000baa:	2200      	movs	r2, #0
 8000bac:	60da      	str	r2, [r3, #12]
 8000bae:	6963      	ldr	r3, [r4, #20]
 8000bb0:	079b      	lsls	r3, r3, #30
 8000bb2:	d512      	bpl.n	8000bda <kprocess_destroy+0x6e>
 8000bb4:	1c20      	adds	r0, r4, #0
 8000bb6:	301c      	adds	r0, #28
 8000bb8:	f000 fba0 	bl	80012fc <ktimer_stop_internal>
 8000bbc:	23f0      	movs	r3, #240	; 0xf0
 8000bbe:	6962      	ldr	r2, [r4, #20]
 8000bc0:	4013      	ands	r3, r2
 8000bc2:	2b40      	cmp	r3, #64	; 0x40
 8000bc4:	d006      	beq.n	8000bd4 <kprocess_destroy+0x68>
 8000bc6:	2b50      	cmp	r3, #80	; 0x50
 8000bc8:	d107      	bne.n	8000bda <kprocess_destroy+0x6e>
 8000bca:	6ba0      	ldr	r0, [r4, #56]	; 0x38
 8000bcc:	1c21      	adds	r1, r4, #0
 8000bce:	f000 fe47 	bl	8001860 <kstream_lock_release>
 8000bd2:	e002      	b.n	8000bda <kprocess_destroy+0x6e>
 8000bd4:	1c20      	adds	r0, r4, #0
 8000bd6:	f000 fc65 	bl	80014a4 <kipc_lock_release>
 8000bda:	480a      	ldr	r0, [pc, #40]	; (8000c04 <kprocess_destroy+0x98>)
 8000bdc:	1c21      	adds	r1, r4, #0
 8000bde:	f7ff fd66 	bl	80006ae <dlist_remove>
 8000be2:	b662      	cpsie	i
 8000be4:	68a0      	ldr	r0, [r4, #8]
 8000be6:	f7ff fd6f 	bl	80006c8 <kfree>
 8000bea:	1c20      	adds	r0, r4, #0
 8000bec:	f7ff fd6c 	bl	80006c8 <kfree>
 8000bf0:	bd10      	pop	{r4, pc}
 8000bf2:	46c0      	nop			; (mov r8, r8)
 8000bf4:	dffffff4 	.word	0xdffffff4
 8000bf8:	dffffff0 	.word	0xdffffff0
 8000bfc:	20001fff 	.word	0x20001fff
 8000c00:	2000000c 	.word	0x2000000c
 8000c04:	20000024 	.word	0x20000024

08000c08 <kprocess_sleep>:
 8000c08:	b5f8      	push	{r3, r4, r5, r6, r7, lr}
 8000c0a:	1c1f      	adds	r7, r3, #0
 8000c0c:	4b13      	ldr	r3, [pc, #76]	; (8000c5c <kprocess_sleep+0x54>)
 8000c0e:	1c15      	adds	r5, r2, #0
 8000c10:	18c2      	adds	r2, r0, r3
 8000c12:	4b13      	ldr	r3, [pc, #76]	; (8000c60 <kprocess_sleep+0x58>)
 8000c14:	1c04      	adds	r4, r0, #0
 8000c16:	1c0e      	adds	r6, r1, #0
 8000c18:	429a      	cmp	r2, r3
 8000c1a:	d804      	bhi.n	8000c26 <kprocess_sleep+0x1e>
 8000c1c:	1c02      	adds	r2, r0, #0
 8000c1e:	4b11      	ldr	r3, [pc, #68]	; (8000c64 <kprocess_sleep+0x5c>)
 8000c20:	3268      	adds	r2, #104	; 0x68
 8000c22:	429a      	cmp	r2, r3
 8000c24:	d904      	bls.n	8000c30 <kprocess_sleep+0x28>
 8000c26:	2008      	movs	r0, #8
 8000c28:	4240      	negs	r0, r0
 8000c2a:	f7ff ff03 	bl	8000a34 <kprocess_error_current>
 8000c2e:	e014      	b.n	8000c5a <kprocess_sleep+0x52>
 8000c30:	b672      	cpsid	i
 8000c32:	f7ff fde1 	bl	80007f8 <kprocess_remove_from_active_list>
 8000c36:	2302      	movs	r3, #2
 8000c38:	431d      	orrs	r5, r3
 8000c3a:	6963      	ldr	r3, [r4, #20]
 8000c3c:	63a7      	str	r7, [r4, #56]	; 0x38
 8000c3e:	431d      	orrs	r5, r3
 8000c40:	6165      	str	r5, [r4, #20]
 8000c42:	b662      	cpsie	i
 8000c44:	6833      	ldr	r3, [r6, #0]
 8000c46:	2b00      	cmp	r3, #0
 8000c48:	d102      	bne.n	8000c50 <kprocess_sleep+0x48>
 8000c4a:	6873      	ldr	r3, [r6, #4]
 8000c4c:	2b00      	cmp	r3, #0
 8000c4e:	d004      	beq.n	8000c5a <kprocess_sleep+0x52>
 8000c50:	1c20      	adds	r0, r4, #0
 8000c52:	1c31      	adds	r1, r6, #0
 8000c54:	301c      	adds	r0, #28
 8000c56:	f000 fad1 	bl	80011fc <ktimer_start_internal>
 8000c5a:	bdf8      	pop	{r3, r4, r5, r6, r7, pc}
 8000c5c:	dffffff4 	.word	0xdffffff4
 8000c60:	dffffff0 	.word	0xdffffff0
 8000c64:	20001fff 	.word	0x20001fff

08000c68 <kprocess_wakeup>:
 8000c68:	b508      	push	{r3, lr}
 8000c6a:	4b0a      	ldr	r3, [pc, #40]	; (8000c94 <kprocess_wakeup+0x2c>)
 8000c6c:	18c2      	adds	r2, r0, r3
 8000c6e:	4b0a      	ldr	r3, [pc, #40]	; (8000c98 <kprocess_wakeup+0x30>)
 8000c70:	429a      	cmp	r2, r3
 8000c72:	d804      	bhi.n	8000c7e <kprocess_wakeup+0x16>
 8000c74:	1c02      	adds	r2, r0, #0
 8000c76:	4b09      	ldr	r3, [pc, #36]	; (8000c9c <kprocess_wakeup+0x34>)
 8000c78:	3268      	adds	r2, #104	; 0x68
 8000c7a:	429a      	cmp	r2, r3
 8000c7c:	d904      	bls.n	8000c88 <kprocess_wakeup+0x20>
 8000c7e:	2008      	movs	r0, #8
 8000c80:	4240      	negs	r0, r0
 8000c82:	f7ff fed7 	bl	8000a34 <kprocess_error_current>
 8000c86:	e003      	b.n	8000c90 <kprocess_wakeup+0x28>
 8000c88:	b672      	cpsid	i
 8000c8a:	f7ff fde5 	bl	8000858 <kprocess_wakeup_internal>
 8000c8e:	b662      	cpsie	i
 8000c90:	bd08      	pop	{r3, pc}
 8000c92:	46c0      	nop			; (mov r8, r8)
 8000c94:	dffffff4 	.word	0xdffffff4
 8000c98:	dffffff0 	.word	0xdffffff0
 8000c9c:	20001fff 	.word	0x20001fff

08000ca0 <kprocess_error>:
 8000ca0:	b508      	push	{r3, lr}
 8000ca2:	4b09      	ldr	r3, [pc, #36]	; (8000cc8 <kprocess_error+0x28>)
 8000ca4:	18c2      	adds	r2, r0, r3
 8000ca6:	4b09      	ldr	r3, [pc, #36]	; (8000ccc <kprocess_error+0x2c>)
 8000ca8:	429a      	cmp	r2, r3
 8000caa:	d804      	bhi.n	8000cb6 <kprocess_error+0x16>
 8000cac:	1c02      	adds	r2, r0, #0
 8000cae:	4b08      	ldr	r3, [pc, #32]	; (8000cd0 <kprocess_error+0x30>)
 8000cb0:	3268      	adds	r2, #104	; 0x68
 8000cb2:	429a      	cmp	r2, r3
 8000cb4:	d904      	bls.n	8000cc0 <kprocess_error+0x20>
 8000cb6:	2008      	movs	r0, #8
 8000cb8:	4240      	negs	r0, r0
 8000cba:	f7ff febb 	bl	8000a34 <kprocess_error_current>
 8000cbe:	e001      	b.n	8000cc4 <kprocess_error+0x24>
 8000cc0:	6883      	ldr	r3, [r0, #8]
 8000cc2:	6019      	str	r1, [r3, #0]
 8000cc4:	bd08      	pop	{r3, pc}
 8000cc6:	46c0      	nop			; (mov r8, r8)
 8000cc8:	dffffff4 	.word	0xdffffff4
 8000ccc:	dffffff0 	.word	0xdffffff0
 8000cd0:	20001fff 	.word	0x20001fff

08000cd4 <kprocess_destroy_current>:
 8000cd4:	b508      	push	{r3, lr}
 8000cd6:	f7ff fe99 	bl	8000a0c <kprocess_get_current>
 8000cda:	2800      	cmp	r0, #0
 8000cdc:	d001      	beq.n	8000ce2 <kprocess_destroy_current+0xe>
 8000cde:	f7ff ff45 	bl	8000b6c <kprocess_destroy>
 8000ce2:	bd08      	pop	{r3, pc}

08000ce4 <kprocess_abnormal_exit>:
 8000ce4:	b508      	push	{r3, lr}
 8000ce6:	f7ff fe91 	bl	8000a0c <kprocess_get_current>
 8000cea:	2380      	movs	r3, #128	; 0x80
 8000cec:	059b      	lsls	r3, r3, #22
 8000cee:	689b      	ldr	r3, [r3, #8]
 8000cf0:	6880      	ldr	r0, [r0, #8]
 8000cf2:	68db      	ldr	r3, [r3, #12]
 8000cf4:	685b      	ldr	r3, [r3, #4]
 8000cf6:	4798      	blx	r3
 8000cf8:	1c01      	adds	r1, r0, #0
 8000cfa:	4803      	ldr	r0, [pc, #12]	; (8000d08 <kprocess_abnormal_exit+0x24>)
 8000cfc:	f7ff fbf4 	bl	80004e8 <printk>
 8000d00:	f7ff ffe8 	bl	8000cd4 <kprocess_destroy_current>
 8000d04:	bd08      	pop	{r3, pc}
 8000d06:	46c0      	nop			; (mov r8, r8)
 8000d08:	080080ec 	.word	0x080080ec

08000d0c <kprocess_init>:
 8000d0c:	2300      	movs	r3, #0
 8000d0e:	b507      	push	{r0, r1, r2, lr}
 8000d10:	4a05      	ldr	r2, [pc, #20]	; (8000d28 <kprocess_init+0x1c>)
 8000d12:	a901      	add	r1, sp, #4
 8000d14:	6113      	str	r3, [r2, #16]
 8000d16:	60d3      	str	r3, [r2, #12]
 8000d18:	4a04      	ldr	r2, [pc, #16]	; (8000d2c <kprocess_init+0x20>)
 8000d1a:	6013      	str	r3, [r2, #0]
 8000d1c:	4a04      	ldr	r2, [pc, #16]	; (8000d30 <kprocess_init+0x24>)
 8000d1e:	6013      	str	r3, [r2, #0]
 8000d20:	f7ff fdd6 	bl	80008d0 <kprocess_create>
 8000d24:	bd07      	pop	{r0, r1, r2, pc}
 8000d26:	46c0      	nop			; (mov r8, r8)
 8000d28:	2000000c 	.word	0x2000000c
 8000d2c:	20000020 	.word	0x20000020
 8000d30:	20000024 	.word	0x20000024

08000d34 <kprocess_switch_test>:
 8000d34:	b510      	push	{r4, lr}
 8000d36:	f7ff fe69 	bl	8000a0c <kprocess_get_current>
 8000d3a:	1c04      	adds	r4, r0, #0
 8000d3c:	b672      	cpsid	i
 8000d3e:	f7ff fd5b 	bl	80007f8 <kprocess_remove_from_active_list>
 8000d42:	1c20      	adds	r0, r4, #0
 8000d44:	f7ff fd06 	bl	8000754 <kprocess_add_to_active_list>
 8000d48:	b662      	cpsie	i
 8000d4a:	bd10      	pop	{r4, pc}

08000d4c <process_stat>:
 8000d4c:	b5f0      	push	{r4, r5, r6, r7, lr}
 8000d4e:	2680      	movs	r6, #128	; 0x80
 8000d50:	2300      	movs	r3, #0
 8000d52:	1c04      	adds	r4, r0, #0
 8000d54:	4d31      	ldr	r5, [pc, #196]	; (8000e1c <process_stat+0xd0>)
 8000d56:	05b6      	lsls	r6, r6, #22
 8000d58:	6837      	ldr	r7, [r6, #0]
 8000d5a:	6035      	str	r5, [r6, #0]
 8000d5c:	602b      	str	r3, [r5, #0]
 8000d5e:	68b3      	ldr	r3, [r6, #8]
 8000d60:	6880      	ldr	r0, [r0, #8]
 8000d62:	681b      	ldr	r3, [r3, #0]
 8000d64:	b087      	sub	sp, #28
 8000d66:	68e2      	ldr	r2, [r4, #12]
 8000d68:	a901      	add	r1, sp, #4
 8000d6a:	3008      	adds	r0, #8
 8000d6c:	69db      	ldr	r3, [r3, #28]
 8000d6e:	4798      	blx	r3
 8000d70:	68b3      	ldr	r3, [r6, #8]
 8000d72:	6037      	str	r7, [r6, #0]
 8000d74:	68db      	ldr	r3, [r3, #12]
 8000d76:	68a0      	ldr	r0, [r4, #8]
 8000d78:	685b      	ldr	r3, [r3, #4]
 8000d7a:	4798      	blx	r3
 8000d7c:	1c01      	adds	r1, r0, #0
 8000d7e:	4828      	ldr	r0, [pc, #160]	; (8000e20 <process_stat+0xd4>)
 8000d80:	f7ff fbb2 	bl	80004e8 <printk>
 8000d84:	4827      	ldr	r0, [pc, #156]	; (8000e24 <process_stat+0xd8>)
 8000d86:	69a1      	ldr	r1, [r4, #24]
 8000d88:	f7ff fbae 	bl	80004e8 <printk>
 8000d8c:	68a0      	ldr	r0, [r4, #8]
 8000d8e:	3008      	adds	r0, #8
 8000d90:	f001 fd54 	bl	800283c <pool_free_ptr>
 8000d94:	68a3      	ldr	r3, [r4, #8]
 8000d96:	6922      	ldr	r2, [r4, #16]
 8000d98:	189b      	adds	r3, r3, r2
 8000d9a:	4298      	cmp	r0, r3
 8000d9c:	d311      	bcc.n	8000dc2 <process_stat+0x76>
 8000d9e:	1a19      	subs	r1, r3, r0
 8000da0:	4821      	ldr	r0, [pc, #132]	; (8000e28 <process_stat+0xdc>)
 8000da2:	f7ff fba1 	bl	80004e8 <printk>
 8000da6:	4821      	ldr	r0, [pc, #132]	; (8000e2c <process_stat+0xe0>)
 8000da8:	6921      	ldr	r1, [r4, #16]
 8000daa:	f7ff fb9d 	bl	80004e8 <printk>
 8000dae:	682b      	ldr	r3, [r5, #0]
 8000db0:	2b00      	cmp	r3, #0
 8000db2:	d00c      	beq.n	8000dce <process_stat+0x82>
 8000db4:	481e      	ldr	r0, [pc, #120]	; (8000e30 <process_stat+0xe4>)
 8000db6:	f7ff fb97 	bl	80004e8 <printk>
 8000dba:	2200      	movs	r2, #0
 8000dbc:	4b17      	ldr	r3, [pc, #92]	; (8000e1c <process_stat+0xd0>)
 8000dbe:	601a      	str	r2, [r3, #0]
 8000dc0:	e010      	b.n	8000de4 <process_stat+0x98>
 8000dc2:	4a1c      	ldr	r2, [pc, #112]	; (8000e34 <process_stat+0xe8>)
 8000dc4:	6801      	ldr	r1, [r0, #0]
 8000dc6:	4291      	cmp	r1, r2
 8000dc8:	d1e9      	bne.n	8000d9e <process_stat+0x52>
 8000dca:	3004      	adds	r0, #4
 8000dcc:	e7e5      	b.n	8000d9a <process_stat+0x4e>
 8000dce:	481a      	ldr	r0, [pc, #104]	; (8000e38 <process_stat+0xec>)
 8000dd0:	9904      	ldr	r1, [sp, #16]
 8000dd2:	9a02      	ldr	r2, [sp, #8]
 8000dd4:	f7ff fb88 	bl	80004e8 <printk>
 8000dd8:	4818      	ldr	r0, [pc, #96]	; (8000e3c <process_stat+0xf0>)
 8000dda:	9903      	ldr	r1, [sp, #12]
 8000ddc:	9a05      	ldr	r2, [sp, #20]
 8000dde:	9b01      	ldr	r3, [sp, #4]
 8000de0:	f7ff fb82 	bl	80004e8 <printk>
 8000de4:	6be5      	ldr	r5, [r4, #60]	; 0x3c
 8000de6:	213c      	movs	r1, #60	; 0x3c
 8000de8:	1c28      	adds	r0, r5, #0
 8000dea:	f006 fd99 	bl	8007920 <__aeabi_uidiv>
 8000dee:	213c      	movs	r1, #60	; 0x3c
 8000df0:	1c06      	adds	r6, r0, #0
 8000df2:	1c28      	adds	r0, r5, #0
 8000df4:	f006 fe1a 	bl	8007a2c <__aeabi_uidivmod>
 8000df8:	1c0d      	adds	r5, r1, #0
 8000dfa:	21fa      	movs	r1, #250	; 0xfa
 8000dfc:	6c20      	ldr	r0, [r4, #64]	; 0x40
 8000dfe:	0089      	lsls	r1, r1, #2
 8000e00:	f006 fd8e 	bl	8007920 <__aeabi_uidiv>
 8000e04:	1c31      	adds	r1, r6, #0
 8000e06:	1c03      	adds	r3, r0, #0
 8000e08:	1c2a      	adds	r2, r5, #0
 8000e0a:	480d      	ldr	r0, [pc, #52]	; (8000e40 <process_stat+0xf4>)
 8000e0c:	f7ff fb6c 	bl	80004e8 <printk>
 8000e10:	480c      	ldr	r0, [pc, #48]	; (8000e44 <process_stat+0xf8>)
 8000e12:	f7ff fb69 	bl	80004e8 <printk>
 8000e16:	b007      	add	sp, #28
 8000e18:	bdf0      	pop	{r4, r5, r6, r7, pc}
 8000e1a:	46c0      	nop			; (mov r8, r8)
 8000e1c:	2000000c 	.word	0x2000000c
 8000e20:	08008118 	.word	0x08008118
 8000e24:	08008122 	.word	0x08008122
 8000e28:	0800812c 	.word	0x0800812c
 8000e2c:	08008132 	.word	0x08008132
 8000e30:	08008137 	.word	0x08008137
 8000e34:	cdcdcdcd 	.word	0xcdcdcdcd
 8000e38:	0800814f 	.word	0x0800814f
 8000e3c:	0800815d 	.word	0x0800815d
 8000e40:	0800816c 	.word	0x0800816c
 8000e44:	080087b2 	.word	0x080087b2

08000e48 <kprocess_info>:
 8000e48:	b5f0      	push	{r4, r5, r6, r7, lr}
 8000e4a:	484b      	ldr	r0, [pc, #300]	; (8000f78 <kprocess_info+0x130>)
 8000e4c:	b08f      	sub	sp, #60	; 0x3c
 8000e4e:	f7ff fb4b 	bl	80004e8 <printk>
 8000e52:	4c4a      	ldr	r4, [pc, #296]	; (8000f7c <kprocess_info+0x134>)
 8000e54:	1c20      	adds	r0, r4, #0
 8000e56:	f7ff fb47 	bl	80004e8 <printk>
 8000e5a:	b672      	cpsid	i
 8000e5c:	4b48      	ldr	r3, [pc, #288]	; (8000f80 <kprocess_info+0x138>)
 8000e5e:	ad06      	add	r5, sp, #24
 8000e60:	681a      	ldr	r2, [r3, #0]
 8000e62:	2600      	movs	r6, #0
 8000e64:	9206      	str	r2, [sp, #24]
 8000e66:	681a      	ldr	r2, [r3, #0]
 8000e68:	606a      	str	r2, [r5, #4]
 8000e6a:	681b      	ldr	r3, [r3, #0]
 8000e6c:	1e5a      	subs	r2, r3, #1
 8000e6e:	4193      	sbcs	r3, r2
 8000e70:	722b      	strb	r3, [r5, #8]
 8000e72:	1c28      	adds	r0, r5, #0
 8000e74:	a903      	add	r1, sp, #12
 8000e76:	f7ff fc41 	bl	80006fc <dlist_enum>
 8000e7a:	2800      	cmp	r0, #0
 8000e7c:	d004      	beq.n	8000e88 <kprocess_info+0x40>
 8000e7e:	9803      	ldr	r0, [sp, #12]
 8000e80:	f7ff ff64 	bl	8000d4c <process_stat>
 8000e84:	3601      	adds	r6, #1
 8000e86:	e7f4      	b.n	8000e72 <kprocess_info+0x2a>
 8000e88:	4b3e      	ldr	r3, [pc, #248]	; (8000f84 <kprocess_info+0x13c>)
 8000e8a:	681a      	ldr	r2, [r3, #0]
 8000e8c:	602a      	str	r2, [r5, #0]
 8000e8e:	681a      	ldr	r2, [r3, #0]
 8000e90:	606a      	str	r2, [r5, #4]
 8000e92:	681b      	ldr	r3, [r3, #0]
 8000e94:	1e5a      	subs	r2, r3, #1
 8000e96:	4193      	sbcs	r3, r2
 8000e98:	722b      	strb	r3, [r5, #8]
 8000e9a:	1c28      	adds	r0, r5, #0
 8000e9c:	a903      	add	r1, sp, #12
 8000e9e:	f7ff fc2d 	bl	80006fc <dlist_enum>
 8000ea2:	1e07      	subs	r7, r0, #0
 8000ea4:	d004      	beq.n	8000eb0 <kprocess_info+0x68>
 8000ea6:	9803      	ldr	r0, [sp, #12]
 8000ea8:	f7ff ff50 	bl	8000d4c <process_stat>
 8000eac:	3601      	adds	r6, #1
 8000eae:	e7f4      	b.n	8000e9a <kprocess_info+0x52>
 8000eb0:	1c31      	adds	r1, r6, #0
 8000eb2:	2680      	movs	r6, #128	; 0x80
 8000eb4:	4834      	ldr	r0, [pc, #208]	; (8000f88 <kprocess_info+0x140>)
 8000eb6:	f7ff fb17 	bl	80004e8 <printk>
 8000eba:	05b6      	lsls	r6, r6, #22
 8000ebc:	1c20      	adds	r0, r4, #0
 8000ebe:	f7ff fb13 	bl	80004e8 <printk>
 8000ec2:	4d32      	ldr	r5, [pc, #200]	; (8000f8c <kprocess_info+0x144>)
 8000ec4:	6833      	ldr	r3, [r6, #0]
 8000ec6:	9301      	str	r3, [sp, #4]
 8000ec8:	6035      	str	r5, [r6, #0]
 8000eca:	602f      	str	r7, [r5, #0]
 8000ecc:	466a      	mov	r2, sp
 8000ece:	68b3      	ldr	r3, [r6, #8]
 8000ed0:	482f      	ldr	r0, [pc, #188]	; (8000f90 <kprocess_info+0x148>)
 8000ed2:	681b      	ldr	r3, [r3, #0]
 8000ed4:	a909      	add	r1, sp, #36	; 0x24
 8000ed6:	69db      	ldr	r3, [r3, #28]
 8000ed8:	4798      	blx	r3
 8000eda:	9b01      	ldr	r3, [sp, #4]
 8000edc:	482d      	ldr	r0, [pc, #180]	; (8000f94 <kprocess_info+0x14c>)
 8000ede:	6033      	str	r3, [r6, #0]
 8000ee0:	4b2d      	ldr	r3, [pc, #180]	; (8000f98 <kprocess_info+0x150>)
 8000ee2:	6819      	ldr	r1, [r3, #0]
 8000ee4:	f7ff fb00 	bl	80004e8 <printk>
 8000ee8:	4b2c      	ldr	r3, [pc, #176]	; (8000f9c <kprocess_info+0x154>)
 8000eea:	4a2d      	ldr	r2, [pc, #180]	; (8000fa0 <kprocess_info+0x158>)
 8000eec:	6818      	ldr	r0, [r3, #0]
 8000eee:	492d      	ldr	r1, [pc, #180]	; (8000fa4 <kprocess_info+0x15c>)
 8000ef0:	4290      	cmp	r0, r2
 8000ef2:	d102      	bne.n	8000efa <kprocess_info+0xb2>
 8000ef4:	3304      	adds	r3, #4
 8000ef6:	428b      	cmp	r3, r1
 8000ef8:	d1f7      	bne.n	8000eea <kprocess_info+0xa2>
 8000efa:	1ac9      	subs	r1, r1, r3
 8000efc:	482a      	ldr	r0, [pc, #168]	; (8000fa8 <kprocess_info+0x160>)
 8000efe:	f7ff faf3 	bl	80004e8 <printk>
 8000f02:	482a      	ldr	r0, [pc, #168]	; (8000fac <kprocess_info+0x164>)
 8000f04:	492a      	ldr	r1, [pc, #168]	; (8000fb0 <kprocess_info+0x168>)
 8000f06:	f7ff faef 	bl	80004e8 <printk>
 8000f0a:	682b      	ldr	r3, [r5, #0]
 8000f0c:	2b00      	cmp	r3, #0
 8000f0e:	d006      	beq.n	8000f1e <kprocess_info+0xd6>
 8000f10:	4828      	ldr	r0, [pc, #160]	; (8000fb4 <kprocess_info+0x16c>)
 8000f12:	f7ff fae9 	bl	80004e8 <printk>
 8000f16:	2200      	movs	r2, #0
 8000f18:	4b1c      	ldr	r3, [pc, #112]	; (8000f8c <kprocess_info+0x144>)
 8000f1a:	601a      	str	r2, [r3, #0]
 8000f1c:	e00a      	b.n	8000f34 <kprocess_info+0xec>
 8000f1e:	4826      	ldr	r0, [pc, #152]	; (8000fb8 <kprocess_info+0x170>)
 8000f20:	990c      	ldr	r1, [sp, #48]	; 0x30
 8000f22:	9a0a      	ldr	r2, [sp, #40]	; 0x28
 8000f24:	f7ff fae0 	bl	80004e8 <printk>
 8000f28:	4824      	ldr	r0, [pc, #144]	; (8000fbc <kprocess_info+0x174>)
 8000f2a:	990b      	ldr	r1, [sp, #44]	; 0x2c
 8000f2c:	9a0d      	ldr	r2, [sp, #52]	; 0x34
 8000f2e:	9b09      	ldr	r3, [sp, #36]	; 0x24
 8000f30:	f7ff fada 	bl	80004e8 <printk>
 8000f34:	a804      	add	r0, sp, #16
 8000f36:	f000 f87b 	bl	8001030 <ktimer_get_uptime_internal>
 8000f3a:	9d04      	ldr	r5, [sp, #16]
 8000f3c:	213c      	movs	r1, #60	; 0x3c
 8000f3e:	1c28      	adds	r0, r5, #0
 8000f40:	f006 fcee 	bl	8007920 <__aeabi_uidiv>
 8000f44:	213c      	movs	r1, #60	; 0x3c
 8000f46:	1c06      	adds	r6, r0, #0
 8000f48:	1c28      	adds	r0, r5, #0
 8000f4a:	f006 fd6f 	bl	8007a2c <__aeabi_uidivmod>
 8000f4e:	1c0d      	adds	r5, r1, #0
 8000f50:	21fa      	movs	r1, #250	; 0xfa
 8000f52:	9805      	ldr	r0, [sp, #20]
 8000f54:	0089      	lsls	r1, r1, #2
 8000f56:	f006 fce3 	bl	8007920 <__aeabi_uidiv>
 8000f5a:	1c31      	adds	r1, r6, #0
 8000f5c:	1c03      	adds	r3, r0, #0
 8000f5e:	1c2a      	adds	r2, r5, #0
 8000f60:	4817      	ldr	r0, [pc, #92]	; (8000fc0 <kprocess_info+0x178>)
 8000f62:	f7ff fac1 	bl	80004e8 <printk>
 8000f66:	4817      	ldr	r0, [pc, #92]	; (8000fc4 <kprocess_info+0x17c>)
 8000f68:	f7ff fabe 	bl	80004e8 <printk>
 8000f6c:	1c20      	adds	r0, r4, #0
 8000f6e:	f7ff fabb 	bl	80004e8 <printk>
 8000f72:	b662      	cpsie	i
 8000f74:	b00f      	add	sp, #60	; 0x3c
 8000f76:	bdf0      	pop	{r4, r5, r6, r7, pc}
 8000f78:	0800817a 	.word	0x0800817a
 8000f7c:	080081c7 	.word	0x080081c7
 8000f80:	20000020 	.word	0x20000020
 8000f84:	20000024 	.word	0x20000024
 8000f88:	08008213 	.word	0x08008213
 8000f8c:	2000000c 	.word	0x2000000c
 8000f90:	200000cc 	.word	0x200000cc
 8000f94:	08008229 	.word	0x08008229
 8000f98:	08008070 	.word	0x08008070
 8000f9c:	20001e00 	.word	0x20001e00
 8000fa0:	cdcdcdcd 	.word	0xcdcdcdcd
 8000fa4:	20002000 	.word	0x20002000
 8000fa8:	0800812c 	.word	0x0800812c
 8000fac:	08008132 	.word	0x08008132
 8000fb0:	00001f14 	.word	0x00001f14
 8000fb4:	08008137 	.word	0x08008137
 8000fb8:	0800823b 	.word	0x0800823b
 8000fbc:	08008247 	.word	0x08008247
 8000fc0:	0800816c 	.word	0x0800816c
 8000fc4:	080087b2 	.word	0x080087b2

08000fc8 <dlist_remove_head>:
 8000fc8:	6803      	ldr	r3, [r0, #0]
 8000fca:	685a      	ldr	r2, [r3, #4]
 8000fcc:	429a      	cmp	r2, r3
 8000fce:	d101      	bne.n	8000fd4 <dlist_remove_head+0xc>
 8000fd0:	2300      	movs	r3, #0
 8000fd2:	e007      	b.n	8000fe4 <dlist_remove_head+0x1c>
 8000fd4:	681b      	ldr	r3, [r3, #0]
 8000fd6:	6013      	str	r3, [r2, #0]
 8000fd8:	6803      	ldr	r3, [r0, #0]
 8000fda:	685a      	ldr	r2, [r3, #4]
 8000fdc:	681b      	ldr	r3, [r3, #0]
 8000fde:	605a      	str	r2, [r3, #4]
 8000fe0:	6803      	ldr	r3, [r0, #0]
 8000fe2:	685b      	ldr	r3, [r3, #4]
 8000fe4:	6003      	str	r3, [r0, #0]
 8000fe6:	4770      	bx	lr

08000fe8 <hpet_start_stub>:
 8000fe8:	b508      	push	{r3, lr}
 8000fea:	4804      	ldr	r0, [pc, #16]	; (8000ffc <hpet_start_stub+0x14>)
 8000fec:	f7ff fa7c 	bl	80004e8 <printk>
 8000ff0:	200c      	movs	r0, #12
 8000ff2:	4240      	negs	r0, r0
 8000ff4:	f7ff fd1e 	bl	8000a34 <kprocess_error_current>
 8000ff8:	bd08      	pop	{r3, pc}
 8000ffa:	46c0      	nop			; (mov r8, r8)
 8000ffc:	08008255 	.word	0x08008255

08001000 <hpet_stop_stub>:
 8001000:	b508      	push	{r3, lr}
 8001002:	4804      	ldr	r0, [pc, #16]	; (8001014 <hpet_stop_stub+0x14>)
 8001004:	f7ff fa70 	bl	80004e8 <printk>
 8001008:	200c      	movs	r0, #12
 800100a:	4240      	negs	r0, r0
 800100c:	f7ff fd12 	bl	8000a34 <kprocess_error_current>
 8001010:	bd08      	pop	{r3, pc}
 8001012:	46c0      	nop			; (mov r8, r8)
 8001014:	08008277 	.word	0x08008277

08001018 <hpet_elapsed_stub>:
 8001018:	b508      	push	{r3, lr}
 800101a:	4804      	ldr	r0, [pc, #16]	; (800102c <hpet_elapsed_stub+0x14>)
 800101c:	f7ff fa64 	bl	80004e8 <printk>
 8001020:	200c      	movs	r0, #12
 8001022:	4240      	negs	r0, r0
 8001024:	f7ff fd06 	bl	8000a34 <kprocess_error_current>
 8001028:	2000      	movs	r0, #0
 800102a:	bd08      	pop	{r3, pc}
 800102c:	08008298 	.word	0x08008298

08001030 <ktimer_get_uptime_internal>:
 8001030:	b538      	push	{r3, r4, r5, lr}
 8001032:	4b09      	ldr	r3, [pc, #36]	; (8001058 <ktimer_get_uptime_internal+0x28>)
 8001034:	4a09      	ldr	r2, [pc, #36]	; (800105c <ktimer_get_uptime_internal+0x2c>)
 8001036:	681b      	ldr	r3, [r3, #0]
 8001038:	1c05      	adds	r5, r0, #0
 800103a:	6003      	str	r3, [r0, #0]
 800103c:	4b08      	ldr	r3, [pc, #32]	; (8001060 <ktimer_get_uptime_internal+0x30>)
 800103e:	6810      	ldr	r0, [r2, #0]
 8001040:	681c      	ldr	r4, [r3, #0]
 8001042:	4b08      	ldr	r3, [pc, #32]	; (8001064 <ktimer_get_uptime_internal+0x34>)
 8001044:	681b      	ldr	r3, [r3, #0]
 8001046:	4798      	blx	r3
 8001048:	4b07      	ldr	r3, [pc, #28]	; (8001068 <ktimer_get_uptime_internal+0x38>)
 800104a:	1900      	adds	r0, r0, r4
 800104c:	4298      	cmp	r0, r3
 800104e:	d801      	bhi.n	8001054 <ktimer_get_uptime_internal+0x24>
 8001050:	6068      	str	r0, [r5, #4]
 8001052:	e000      	b.n	8001056 <ktimer_get_uptime_internal+0x26>
 8001054:	606b      	str	r3, [r5, #4]
 8001056:	bd38      	pop	{r3, r4, r5, pc}
 8001058:	200000ac 	.word	0x200000ac
 800105c:	200000c0 	.word	0x200000c0
 8001060:	200000b0 	.word	0x200000b0
 8001064:	200000bc 	.word	0x200000bc
 8001068:	000f423f 	.word	0x000f423f

0800106c <find_shoot_next>:
 800106c:	b57f      	push	{r0, r1, r2, r3, r4, r5, r6, lr}
 800106e:	2300      	movs	r3, #0
 8001070:	9301      	str	r3, [sp, #4]
 8001072:	b672      	cpsid	i
 8001074:	4d26      	ldr	r5, [pc, #152]	; (8001110 <find_shoot_next+0xa4>)
 8001076:	682b      	ldr	r3, [r5, #0]
 8001078:	2b00      	cmp	r3, #0
 800107a:	d03d      	beq.n	80010f8 <find_shoot_next+0x8c>
 800107c:	a802      	add	r0, sp, #8
 800107e:	f7ff ffd7 	bl	8001030 <ktimer_get_uptime_internal>
 8001082:	2380      	movs	r3, #128	; 0x80
 8001084:	059b      	lsls	r3, r3, #22
 8001086:	689b      	ldr	r3, [r3, #8]
 8001088:	6828      	ldr	r0, [r5, #0]
 800108a:	689b      	ldr	r3, [r3, #8]
 800108c:	3008      	adds	r0, #8
 800108e:	689b      	ldr	r3, [r3, #8]
 8001090:	a902      	add	r1, sp, #8
 8001092:	4798      	blx	r3
 8001094:	2800      	cmp	r0, #0
 8001096:	db13      	blt.n	80010c0 <find_shoot_next+0x54>
 8001098:	2300      	movs	r3, #0
 800109a:	682c      	ldr	r4, [r5, #0]
 800109c:	1c28      	adds	r0, r5, #0
 800109e:	7623      	strb	r3, [r4, #24]
 80010a0:	f7ff ff92 	bl	8000fc8 <dlist_remove_head>
 80010a4:	9b01      	ldr	r3, [sp, #4]
 80010a6:	2b00      	cmp	r3, #0
 80010a8:	d103      	bne.n	80010b2 <find_shoot_next+0x46>
 80010aa:	9401      	str	r4, [sp, #4]
 80010ac:	6064      	str	r4, [r4, #4]
 80010ae:	6024      	str	r4, [r4, #0]
 80010b0:	e7e0      	b.n	8001074 <find_shoot_next+0x8>
 80010b2:	681a      	ldr	r2, [r3, #0]
 80010b4:	6063      	str	r3, [r4, #4]
 80010b6:	6022      	str	r2, [r4, #0]
 80010b8:	681a      	ldr	r2, [r3, #0]
 80010ba:	6054      	str	r4, [r2, #4]
 80010bc:	601c      	str	r4, [r3, #0]
 80010be:	e7d9      	b.n	8001074 <find_shoot_next+0x8>
 80010c0:	682b      	ldr	r3, [r5, #0]
 80010c2:	689a      	ldr	r2, [r3, #8]
 80010c4:	9b02      	ldr	r3, [sp, #8]
 80010c6:	429a      	cmp	r2, r3
 80010c8:	d116      	bne.n	80010f8 <find_shoot_next+0x8c>
 80010ca:	4c12      	ldr	r4, [pc, #72]	; (8001114 <find_shoot_next+0xa8>)
 80010cc:	4b12      	ldr	r3, [pc, #72]	; (8001118 <find_shoot_next+0xac>)
 80010ce:	6820      	ldr	r0, [r4, #0]
 80010d0:	681b      	ldr	r3, [r3, #0]
 80010d2:	4798      	blx	r3
 80010d4:	4e11      	ldr	r6, [pc, #68]	; (800111c <find_shoot_next+0xb0>)
 80010d6:	6833      	ldr	r3, [r6, #0]
 80010d8:	18c0      	adds	r0, r0, r3
 80010da:	4b11      	ldr	r3, [pc, #68]	; (8001120 <find_shoot_next+0xb4>)
 80010dc:	6030      	str	r0, [r6, #0]
 80010de:	681b      	ldr	r3, [r3, #0]
 80010e0:	6820      	ldr	r0, [r4, #0]
 80010e2:	4798      	blx	r3
 80010e4:	682b      	ldr	r3, [r5, #0]
 80010e6:	6830      	ldr	r0, [r6, #0]
 80010e8:	68db      	ldr	r3, [r3, #12]
 80010ea:	6821      	ldr	r1, [r4, #0]
 80010ec:	1a18      	subs	r0, r3, r0
 80010ee:	4b0d      	ldr	r3, [pc, #52]	; (8001124 <find_shoot_next+0xb8>)
 80010f0:	6018      	str	r0, [r3, #0]
 80010f2:	4b0d      	ldr	r3, [pc, #52]	; (8001128 <find_shoot_next+0xbc>)
 80010f4:	681b      	ldr	r3, [r3, #0]
 80010f6:	4798      	blx	r3
 80010f8:	b662      	cpsie	i
 80010fa:	9c01      	ldr	r4, [sp, #4]
 80010fc:	2c00      	cmp	r4, #0
 80010fe:	d006      	beq.n	800110e <find_shoot_next+0xa2>
 8001100:	a801      	add	r0, sp, #4
 8001102:	f7ff ff61 	bl	8000fc8 <dlist_remove_head>
 8001106:	6923      	ldr	r3, [r4, #16]
 8001108:	6960      	ldr	r0, [r4, #20]
 800110a:	4798      	blx	r3
 800110c:	e7f5      	b.n	80010fa <find_shoot_next+0x8e>
 800110e:	bd7f      	pop	{r0, r1, r2, r3, r4, r5, r6, pc}
 8001110:	200000c4 	.word	0x200000c4
 8001114:	200000c0 	.word	0x200000c0
 8001118:	200000bc 	.word	0x200000bc
 800111c:	200000b0 	.word	0x200000b0
 8001120:	200000b8 	.word	0x200000b8
 8001124:	200000c8 	.word	0x200000c8
 8001128:	200000b4 	.word	0x200000b4

0800112c <ktimer_get_uptime>:
 800112c:	b508      	push	{r3, lr}
 800112e:	b672      	cpsid	i
 8001130:	f7ff ff7e 	bl	8001030 <ktimer_get_uptime_internal>
 8001134:	b662      	cpsie	i
 8001136:	bd08      	pop	{r3, pc}

08001138 <ktimer_second_pulse>:
 8001138:	b570      	push	{r4, r5, r6, lr}
 800113a:	b672      	cpsid	i
 800113c:	4c0d      	ldr	r4, [pc, #52]	; (8001174 <ktimer_second_pulse+0x3c>)
 800113e:	2500      	movs	r5, #0
 8001140:	1c22      	adds	r2, r4, #0
 8001142:	32a0      	adds	r2, #160	; 0xa0
 8001144:	6813      	ldr	r3, [r2, #0]
 8001146:	1c26      	adds	r6, r4, #0
 8001148:	3301      	adds	r3, #1
 800114a:	6013      	str	r3, [r2, #0]
 800114c:	1c23      	adds	r3, r4, #0
 800114e:	33bc      	adds	r3, #188	; 0xbc
 8001150:	601d      	str	r5, [r3, #0]
 8001152:	36b4      	adds	r6, #180	; 0xb4
 8001154:	3b10      	subs	r3, #16
 8001156:	6830      	ldr	r0, [r6, #0]
 8001158:	681b      	ldr	r3, [r3, #0]
 800115a:	4798      	blx	r3
 800115c:	1c23      	adds	r3, r4, #0
 800115e:	33a8      	adds	r3, #168	; 0xa8
 8001160:	681b      	ldr	r3, [r3, #0]
 8001162:	4805      	ldr	r0, [pc, #20]	; (8001178 <ktimer_second_pulse+0x40>)
 8001164:	6831      	ldr	r1, [r6, #0]
 8001166:	34a4      	adds	r4, #164	; 0xa4
 8001168:	4798      	blx	r3
 800116a:	6025      	str	r5, [r4, #0]
 800116c:	b662      	cpsie	i
 800116e:	f7ff ff7d 	bl	800106c <find_shoot_next>
 8001172:	bd70      	pop	{r4, r5, r6, pc}
 8001174:	2000000c 	.word	0x2000000c
 8001178:	001e8480 	.word	0x001e8480

0800117c <ktimer_hpet_timeout>:
 800117c:	b510      	push	{r4, lr}
 800117e:	b672      	cpsid	i
 8001180:	4b0a      	ldr	r3, [pc, #40]	; (80011ac <ktimer_hpet_timeout+0x30>)
 8001182:	1c18      	adds	r0, r3, #0
 8001184:	1c19      	adds	r1, r3, #0
 8001186:	30a4      	adds	r0, #164	; 0xa4
 8001188:	31bc      	adds	r1, #188	; 0xbc
 800118a:	6804      	ldr	r4, [r0, #0]
 800118c:	680a      	ldr	r2, [r1, #0]
 800118e:	1912      	adds	r2, r2, r4
 8001190:	6002      	str	r2, [r0, #0]
 8001192:	2200      	movs	r2, #0
 8001194:	600a      	str	r2, [r1, #0]
 8001196:	1c1a      	adds	r2, r3, #0
 8001198:	33b4      	adds	r3, #180	; 0xb4
 800119a:	32a8      	adds	r2, #168	; 0xa8
 800119c:	6812      	ldr	r2, [r2, #0]
 800119e:	4804      	ldr	r0, [pc, #16]	; (80011b0 <ktimer_hpet_timeout+0x34>)
 80011a0:	6819      	ldr	r1, [r3, #0]
 80011a2:	4790      	blx	r2
 80011a4:	b662      	cpsie	i
 80011a6:	f7ff ff61 	bl	800106c <find_shoot_next>
 80011aa:	bd10      	pop	{r4, pc}
 80011ac:	2000000c 	.word	0x2000000c
 80011b0:	001e8480 	.word	0x001e8480

080011b4 <ktimer_setup>:
 80011b4:	4a0b      	ldr	r2, [pc, #44]	; (80011e4 <ktimer_setup+0x30>)
 80011b6:	b510      	push	{r4, lr}
 80011b8:	4b0b      	ldr	r3, [pc, #44]	; (80011e8 <ktimer_setup+0x34>)
 80011ba:	6814      	ldr	r4, [r2, #0]
 80011bc:	429c      	cmp	r4, r3
 80011be:	d10c      	bne.n	80011da <ktimer_setup+0x26>
 80011c0:	6803      	ldr	r3, [r0, #0]
 80011c2:	6844      	ldr	r4, [r0, #4]
 80011c4:	6013      	str	r3, [r2, #0]
 80011c6:	4a09      	ldr	r2, [pc, #36]	; (80011ec <ktimer_setup+0x38>)
 80011c8:	6880      	ldr	r0, [r0, #8]
 80011ca:	6014      	str	r4, [r2, #0]
 80011cc:	4a08      	ldr	r2, [pc, #32]	; (80011f0 <ktimer_setup+0x3c>)
 80011ce:	6010      	str	r0, [r2, #0]
 80011d0:	4a08      	ldr	r2, [pc, #32]	; (80011f4 <ktimer_setup+0x40>)
 80011d2:	4809      	ldr	r0, [pc, #36]	; (80011f8 <ktimer_setup+0x44>)
 80011d4:	6011      	str	r1, [r2, #0]
 80011d6:	4798      	blx	r3
 80011d8:	e003      	b.n	80011e2 <ktimer_setup+0x2e>
 80011da:	200a      	movs	r0, #10
 80011dc:	4240      	negs	r0, r0
 80011de:	f7ff fc29 	bl	8000a34 <kprocess_error_current>
 80011e2:	bd10      	pop	{r4, pc}
 80011e4:	200000b4 	.word	0x200000b4
 80011e8:	08000fe9 	.word	0x08000fe9
 80011ec:	200000b8 	.word	0x200000b8
 80011f0:	200000bc 	.word	0x200000bc
 80011f4:	200000c0 	.word	0x200000c0
 80011f8:	001e8480 	.word	0x001e8480

080011fc <ktimer_start_internal>:
 80011fc:	b5f0      	push	{r4, r5, r6, r7, lr}
 80011fe:	1c0d      	adds	r5, r1, #0
 8001200:	1c04      	adds	r4, r0, #0
 8001202:	b087      	sub	sp, #28
 8001204:	a804      	add	r0, sp, #16
 8001206:	f7ff ff91 	bl	800112c <ktimer_get_uptime>
 800120a:	682b      	ldr	r3, [r5, #0]
 800120c:	a804      	add	r0, sp, #16
 800120e:	60a3      	str	r3, [r4, #8]
 8001210:	686b      	ldr	r3, [r5, #4]
 8001212:	60e3      	str	r3, [r4, #12]
 8001214:	1c23      	adds	r3, r4, #0
 8001216:	3308      	adds	r3, #8
 8001218:	9301      	str	r3, [sp, #4]
 800121a:	2380      	movs	r3, #128	; 0x80
 800121c:	059b      	lsls	r3, r3, #22
 800121e:	689b      	ldr	r3, [r3, #8]
 8001220:	9901      	ldr	r1, [sp, #4]
 8001222:	689b      	ldr	r3, [r3, #8]
 8001224:	1c0a      	adds	r2, r1, #0
 8001226:	68db      	ldr	r3, [r3, #12]
 8001228:	4798      	blx	r3
 800122a:	b672      	cpsid	i
 800122c:	4e25      	ldr	r6, [pc, #148]	; (80012c4 <ktimer_start_internal+0xc8>)
 800122e:	6837      	ldr	r7, [r6, #0]
 8001230:	1c3b      	adds	r3, r7, #0
 8001232:	1e5a      	subs	r2, r3, #1
 8001234:	4193      	sbcs	r3, r2
 8001236:	1c3d      	adds	r5, r7, #0
 8001238:	b2db      	uxtb	r3, r3
 800123a:	9303      	str	r3, [sp, #12]
 800123c:	9b03      	ldr	r3, [sp, #12]
 800123e:	2b00      	cmp	r3, #0
 8001240:	d027      	beq.n	8001292 <ktimer_start_internal+0x96>
 8001242:	686b      	ldr	r3, [r5, #4]
 8001244:	1c28      	adds	r0, r5, #0
 8001246:	9302      	str	r3, [sp, #8]
 8001248:	1bdb      	subs	r3, r3, r7
 800124a:	1e5a      	subs	r2, r3, #1
 800124c:	4193      	sbcs	r3, r2
 800124e:	b2db      	uxtb	r3, r3
 8001250:	9303      	str	r3, [sp, #12]
 8001252:	2380      	movs	r3, #128	; 0x80
 8001254:	059b      	lsls	r3, r3, #22
 8001256:	689b      	ldr	r3, [r3, #8]
 8001258:	3008      	adds	r0, #8
 800125a:	689b      	ldr	r3, [r3, #8]
 800125c:	9901      	ldr	r1, [sp, #4]
 800125e:	689b      	ldr	r3, [r3, #8]
 8001260:	4798      	blx	r3
 8001262:	2800      	cmp	r0, #0
 8001264:	da13      	bge.n	800128e <ktimer_start_internal+0x92>
 8001266:	6832      	ldr	r2, [r6, #0]
 8001268:	4b16      	ldr	r3, [pc, #88]	; (80012c4 <ktimer_start_internal+0xc8>)
 800126a:	6065      	str	r5, [r4, #4]
 800126c:	4295      	cmp	r5, r2
 800126e:	d108      	bne.n	8001282 <ktimer_start_internal+0x86>
 8001270:	681a      	ldr	r2, [r3, #0]
 8001272:	6812      	ldr	r2, [r2, #0]
 8001274:	6022      	str	r2, [r4, #0]
 8001276:	681a      	ldr	r2, [r3, #0]
 8001278:	6812      	ldr	r2, [r2, #0]
 800127a:	6054      	str	r4, [r2, #4]
 800127c:	681a      	ldr	r2, [r3, #0]
 800127e:	6014      	str	r4, [r2, #0]
 8001280:	e017      	b.n	80012b2 <ktimer_start_internal+0xb6>
 8001282:	682b      	ldr	r3, [r5, #0]
 8001284:	6023      	str	r3, [r4, #0]
 8001286:	682b      	ldr	r3, [r5, #0]
 8001288:	605c      	str	r4, [r3, #4]
 800128a:	602c      	str	r4, [r5, #0]
 800128c:	e012      	b.n	80012b4 <ktimer_start_internal+0xb8>
 800128e:	9d02      	ldr	r5, [sp, #8]
 8001290:	e7d4      	b.n	800123c <ktimer_start_internal+0x40>
 8001292:	6832      	ldr	r2, [r6, #0]
 8001294:	4b0b      	ldr	r3, [pc, #44]	; (80012c4 <ktimer_start_internal+0xc8>)
 8001296:	2a00      	cmp	r2, #0
 8001298:	d103      	bne.n	80012a2 <ktimer_start_internal+0xa6>
 800129a:	601c      	str	r4, [r3, #0]
 800129c:	6024      	str	r4, [r4, #0]
 800129e:	6064      	str	r4, [r4, #4]
 80012a0:	e008      	b.n	80012b4 <ktimer_start_internal+0xb8>
 80012a2:	6062      	str	r2, [r4, #4]
 80012a4:	681a      	ldr	r2, [r3, #0]
 80012a6:	6812      	ldr	r2, [r2, #0]
 80012a8:	6022      	str	r2, [r4, #0]
 80012aa:	681a      	ldr	r2, [r3, #0]
 80012ac:	6812      	ldr	r2, [r2, #0]
 80012ae:	6054      	str	r4, [r2, #4]
 80012b0:	681b      	ldr	r3, [r3, #0]
 80012b2:	601c      	str	r4, [r3, #0]
 80012b4:	2301      	movs	r3, #1
 80012b6:	7623      	strb	r3, [r4, #24]
 80012b8:	b662      	cpsie	i
 80012ba:	f7ff fed7 	bl	800106c <find_shoot_next>
 80012be:	b007      	add	sp, #28
 80012c0:	bdf0      	pop	{r4, r5, r6, r7, pc}
 80012c2:	46c0      	nop			; (mov r8, r8)
 80012c4:	200000c4 	.word	0x200000c4

080012c8 <ktimer_timeout>:
 80012c8:	b510      	push	{r4, lr}
 80012ca:	69c3      	ldr	r3, [r0, #28]
 80012cc:	b086      	sub	sp, #24
 80012ce:	9301      	str	r3, [sp, #4]
 80012d0:	2302      	movs	r3, #2
 80012d2:	2103      	movs	r1, #3
 80012d4:	1c04      	adds	r4, r0, #0
 80012d6:	9302      	str	r3, [sp, #8]
 80012d8:	6a03      	ldr	r3, [r0, #32]
 80012da:	9004      	str	r0, [sp, #16]
 80012dc:	4249      	negs	r1, r1
 80012de:	a801      	add	r0, sp, #4
 80012e0:	9303      	str	r3, [sp, #12]
 80012e2:	f000 f967 	bl	80015b4 <kipc_post_process>
 80012e6:	6a63      	ldr	r3, [r4, #36]	; 0x24
 80012e8:	07db      	lsls	r3, r3, #31
 80012ea:	d504      	bpl.n	80012f6 <ktimer_timeout+0x2e>
 80012ec:	1c21      	adds	r1, r4, #0
 80012ee:	1c20      	adds	r0, r4, #0
 80012f0:	3128      	adds	r1, #40	; 0x28
 80012f2:	f7ff ff83 	bl	80011fc <ktimer_start_internal>
 80012f6:	b006      	add	sp, #24
 80012f8:	bd10      	pop	{r4, pc}
 80012fa:	0000      	movs	r0, r0

080012fc <ktimer_stop_internal>:
 80012fc:	b570      	push	{r4, r5, r6, lr}
 80012fe:	7e03      	ldrb	r3, [r0, #24]
 8001300:	2b00      	cmp	r3, #0
 8001302:	d00f      	beq.n	8001324 <ktimer_stop_internal+0x28>
 8001304:	4d08      	ldr	r5, [pc, #32]	; (8001328 <ktimer_stop_internal+0x2c>)
 8001306:	1c04      	adds	r4, r0, #0
 8001308:	682e      	ldr	r6, [r5, #0]
 800130a:	4286      	cmp	r6, r0
 800130c:	d103      	bne.n	8001316 <ktimer_stop_internal+0x1a>
 800130e:	1c28      	adds	r0, r5, #0
 8001310:	f7ff fe5a 	bl	8000fc8 <dlist_remove_head>
 8001314:	e004      	b.n	8001320 <ktimer_stop_internal+0x24>
 8001316:	6028      	str	r0, [r5, #0]
 8001318:	1c28      	adds	r0, r5, #0
 800131a:	f7ff fe55 	bl	8000fc8 <dlist_remove_head>
 800131e:	602e      	str	r6, [r5, #0]
 8001320:	2300      	movs	r3, #0
 8001322:	7623      	strb	r3, [r4, #24]
 8001324:	bd70      	pop	{r4, r5, r6, pc}
 8001326:	46c0      	nop			; (mov r8, r8)
 8001328:	200000c4 	.word	0x200000c4

0800132c <ktimer_init_internal>:
 800132c:	2300      	movs	r3, #0
 800132e:	6101      	str	r1, [r0, #16]
 8001330:	6142      	str	r2, [r0, #20]
 8001332:	7603      	strb	r3, [r0, #24]
 8001334:	4770      	bx	lr
 8001336:	0000      	movs	r0, r0

08001338 <ktimer_create>:
 8001338:	b570      	push	{r4, r5, r6, lr}
 800133a:	1c06      	adds	r6, r0, #0
 800133c:	1c0d      	adds	r5, r1, #0
 800133e:	f7ff fb65 	bl	8000a0c <kprocess_get_current>
 8001342:	2380      	movs	r3, #128	; 0x80
 8001344:	059b      	lsls	r3, r3, #22
 8001346:	689b      	ldr	r3, [r3, #8]
 8001348:	1c04      	adds	r4, r0, #0
 800134a:	681b      	ldr	r3, [r3, #0]
 800134c:	480a      	ldr	r0, [pc, #40]	; (8001378 <ktimer_create+0x40>)
 800134e:	68db      	ldr	r3, [r3, #12]
 8001350:	2130      	movs	r1, #48	; 0x30
 8001352:	4798      	blx	r3
 8001354:	6030      	str	r0, [r6, #0]
 8001356:	2800      	cmp	r0, #0
 8001358:	d105      	bne.n	8001366 <ktimer_create+0x2e>
 800135a:	211e      	movs	r1, #30
 800135c:	1c20      	adds	r0, r4, #0
 800135e:	4249      	negs	r1, r1
 8001360:	f7ff fc9e 	bl	8000ca0 <kprocess_error>
 8001364:	e006      	b.n	8001374 <ktimer_create+0x3c>
 8001366:	4b05      	ldr	r3, [pc, #20]	; (800137c <ktimer_create+0x44>)
 8001368:	61c4      	str	r4, [r0, #28]
 800136a:	6103      	str	r3, [r0, #16]
 800136c:	2300      	movs	r3, #0
 800136e:	6205      	str	r5, [r0, #32]
 8001370:	6140      	str	r0, [r0, #20]
 8001372:	7603      	strb	r3, [r0, #24]
 8001374:	bd70      	pop	{r4, r5, r6, pc}
 8001376:	46c0      	nop			; (mov r8, r8)
 8001378:	200000cc 	.word	0x200000cc
 800137c:	080012c9 	.word	0x080012c9

08001380 <ktimer_destroy>:
 8001380:	b508      	push	{r3, lr}
 8001382:	1c43      	adds	r3, r0, #1
 8001384:	d016      	beq.n	80013b4 <ktimer_destroy+0x34>
 8001386:	4b0c      	ldr	r3, [pc, #48]	; (80013b8 <ktimer_destroy+0x38>)
 8001388:	1c01      	adds	r1, r0, #0
 800138a:	18c2      	adds	r2, r0, r3
 800138c:	4b0b      	ldr	r3, [pc, #44]	; (80013bc <ktimer_destroy+0x3c>)
 800138e:	429a      	cmp	r2, r3
 8001390:	d804      	bhi.n	800139c <ktimer_destroy+0x1c>
 8001392:	1c02      	adds	r2, r0, #0
 8001394:	4b0a      	ldr	r3, [pc, #40]	; (80013c0 <ktimer_destroy+0x40>)
 8001396:	3230      	adds	r2, #48	; 0x30
 8001398:	429a      	cmp	r2, r3
 800139a:	d904      	bls.n	80013a6 <ktimer_destroy+0x26>
 800139c:	2008      	movs	r0, #8
 800139e:	4240      	negs	r0, r0
 80013a0:	f7ff fb48 	bl	8000a34 <kprocess_error_current>
 80013a4:	e006      	b.n	80013b4 <ktimer_destroy+0x34>
 80013a6:	2380      	movs	r3, #128	; 0x80
 80013a8:	059b      	lsls	r3, r3, #22
 80013aa:	689b      	ldr	r3, [r3, #8]
 80013ac:	4805      	ldr	r0, [pc, #20]	; (80013c4 <ktimer_destroy+0x44>)
 80013ae:	681b      	ldr	r3, [r3, #0]
 80013b0:	695b      	ldr	r3, [r3, #20]
 80013b2:	4798      	blx	r3
 80013b4:	bd08      	pop	{r3, pc}
 80013b6:	46c0      	nop			; (mov r8, r8)
 80013b8:	dffffff4 	.word	0xdffffff4
 80013bc:	dffffff0 	.word	0xdffffff0
 80013c0:	20001fff 	.word	0x20001fff
 80013c4:	200000cc 	.word	0x200000cc

080013c8 <ktimer_start>:
 80013c8:	b570      	push	{r4, r5, r6, lr}
 80013ca:	1c04      	adds	r4, r0, #0
 80013cc:	1c16      	adds	r6, r2, #0
 80013ce:	1c0d      	adds	r5, r1, #0
 80013d0:	f7ff fb1c 	bl	8000a0c <kprocess_get_current>
 80013d4:	4b12      	ldr	r3, [pc, #72]	; (8001420 <ktimer_start+0x58>)
 80013d6:	18e2      	adds	r2, r4, r3
 80013d8:	4b12      	ldr	r3, [pc, #72]	; (8001424 <ktimer_start+0x5c>)
 80013da:	429a      	cmp	r2, r3
 80013dc:	d804      	bhi.n	80013e8 <ktimer_start+0x20>
 80013de:	1c22      	adds	r2, r4, #0
 80013e0:	4b11      	ldr	r3, [pc, #68]	; (8001428 <ktimer_start+0x60>)
 80013e2:	3230      	adds	r2, #48	; 0x30
 80013e4:	429a      	cmp	r2, r3
 80013e6:	d904      	bls.n	80013f2 <ktimer_start+0x2a>
 80013e8:	2008      	movs	r0, #8
 80013ea:	4240      	negs	r0, r0
 80013ec:	f7ff fb22 	bl	8000a34 <kprocess_error_current>
 80013f0:	e014      	b.n	800141c <ktimer_start+0x54>
 80013f2:	b672      	cpsid	i
 80013f4:	b662      	cpsie	i
 80013f6:	7e23      	ldrb	r3, [r4, #24]
 80013f8:	2b00      	cmp	r3, #0
 80013fa:	d004      	beq.n	8001406 <ktimer_start+0x3e>
 80013fc:	2106      	movs	r1, #6
 80013fe:	4249      	negs	r1, r1
 8001400:	f7ff fc4e 	bl	8000ca0 <kprocess_error>
 8001404:	e00a      	b.n	800141c <ktimer_start+0x54>
 8001406:	6266      	str	r6, [r4, #36]	; 0x24
 8001408:	07f3      	lsls	r3, r6, #31
 800140a:	d503      	bpl.n	8001414 <ktimer_start+0x4c>
 800140c:	682b      	ldr	r3, [r5, #0]
 800140e:	62a3      	str	r3, [r4, #40]	; 0x28
 8001410:	686b      	ldr	r3, [r5, #4]
 8001412:	62e3      	str	r3, [r4, #44]	; 0x2c
 8001414:	1c20      	adds	r0, r4, #0
 8001416:	1c29      	adds	r1, r5, #0
 8001418:	f7ff fef0 	bl	80011fc <ktimer_start_internal>
 800141c:	bd70      	pop	{r4, r5, r6, pc}
 800141e:	46c0      	nop			; (mov r8, r8)
 8001420:	dffffff4 	.word	0xdffffff4
 8001424:	dffffff0 	.word	0xdffffff0
 8001428:	20001fff 	.word	0x20001fff

0800142c <ktimer_stop>:
 800142c:	b508      	push	{r3, lr}
 800142e:	4b0c      	ldr	r3, [pc, #48]	; (8001460 <ktimer_stop+0x34>)
 8001430:	18c2      	adds	r2, r0, r3
 8001432:	4b0c      	ldr	r3, [pc, #48]	; (8001464 <ktimer_stop+0x38>)
 8001434:	429a      	cmp	r2, r3
 8001436:	d804      	bhi.n	8001442 <ktimer_stop+0x16>
 8001438:	1c02      	adds	r2, r0, #0
 800143a:	4b0b      	ldr	r3, [pc, #44]	; (8001468 <ktimer_stop+0x3c>)
 800143c:	3230      	adds	r2, #48	; 0x30
 800143e:	429a      	cmp	r2, r3
 8001440:	d904      	bls.n	800144c <ktimer_stop+0x20>
 8001442:	2008      	movs	r0, #8
 8001444:	4240      	negs	r0, r0
 8001446:	f7ff faf5 	bl	8000a34 <kprocess_error_current>
 800144a:	e007      	b.n	800145c <ktimer_stop+0x30>
 800144c:	b672      	cpsid	i
 800144e:	2301      	movs	r3, #1
 8001450:	6a42      	ldr	r2, [r0, #36]	; 0x24
 8001452:	439a      	bics	r2, r3
 8001454:	6242      	str	r2, [r0, #36]	; 0x24
 8001456:	f7ff ff51 	bl	80012fc <ktimer_stop_internal>
 800145a:	b662      	cpsie	i
 800145c:	bd08      	pop	{r3, pc}
 800145e:	46c0      	nop			; (mov r8, r8)
 8001460:	dffffff4 	.word	0xdffffff4
 8001464:	dffffff0 	.word	0xdffffff0
 8001468:	20001fff 	.word	0x20001fff

0800146c <ktimer_init>:
 800146c:	4b05      	ldr	r3, [pc, #20]	; (8001484 <ktimer_init+0x18>)
 800146e:	4906      	ldr	r1, [pc, #24]	; (8001488 <ktimer_init+0x1c>)
 8001470:	1c1a      	adds	r2, r3, #0
 8001472:	32a8      	adds	r2, #168	; 0xa8
 8001474:	6011      	str	r1, [r2, #0]
 8001476:	4905      	ldr	r1, [pc, #20]	; (800148c <ktimer_init+0x20>)
 8001478:	33b0      	adds	r3, #176	; 0xb0
 800147a:	6051      	str	r1, [r2, #4]
 800147c:	4a04      	ldr	r2, [pc, #16]	; (8001490 <ktimer_init+0x24>)
 800147e:	601a      	str	r2, [r3, #0]
 8001480:	4770      	bx	lr
 8001482:	46c0      	nop			; (mov r8, r8)
 8001484:	2000000c 	.word	0x2000000c
 8001488:	08000fe9 	.word	0x08000fe9
 800148c:	08001001 	.word	0x08001001
 8001490:	08001019 	.word	0x08001019

08001494 <kprocess_name.isra.0>:
 8001494:	b508      	push	{r3, lr}
 8001496:	2380      	movs	r3, #128	; 0x80
 8001498:	059b      	lsls	r3, r3, #22
 800149a:	689b      	ldr	r3, [r3, #8]
 800149c:	68db      	ldr	r3, [r3, #12]
 800149e:	685b      	ldr	r3, [r3, #4]
 80014a0:	4798      	blx	r3
 80014a2:	bd08      	pop	{r3, pc}

080014a4 <kipc_lock_release>:
 80014a4:	2301      	movs	r3, #1
 80014a6:	425b      	negs	r3, r3
 80014a8:	65c3      	str	r3, [r0, #92]	; 0x5c
 80014aa:	4770      	bx	lr

080014ac <kipc_read_process>:
 80014ac:	b5f0      	push	{r4, r5, r6, r7, lr}
 80014ae:	b08b      	sub	sp, #44	; 0x2c
 80014b0:	1c04      	adds	r4, r0, #0
 80014b2:	9103      	str	r1, [sp, #12]
 80014b4:	1c15      	adds	r5, r2, #0
 80014b6:	1e1e      	subs	r6, r3, #0
 80014b8:	9f10      	ldr	r7, [sp, #64]	; 0x40
 80014ba:	4286      	cmp	r6, r0
 80014bc:	d106      	bne.n	80014cc <kipc_read_process+0x20>
 80014be:	6898      	ldr	r0, [r3, #8]
 80014c0:	f7ff ffe8 	bl	8001494 <kprocess_name.isra.0>
 80014c4:	1c01      	adds	r1, r0, #0
 80014c6:	483a      	ldr	r0, [pc, #232]	; (80015b0 <kipc_read_process+0x104>)
 80014c8:	f7ff f80e 	bl	80004e8 <printk>
 80014cc:	9b03      	ldr	r3, [sp, #12]
 80014ce:	1c20      	adds	r0, r4, #0
 80014d0:	6663      	str	r3, [r4, #100]	; 0x64
 80014d2:	1c29      	adds	r1, r5, #0
 80014d4:	2240      	movs	r2, #64	; 0x40
 80014d6:	1c23      	adds	r3, r4, #0
 80014d8:	f7ff fb96 	bl	8000c08 <kprocess_sleep>
 80014dc:	b672      	cpsid	i
 80014de:	6d21      	ldr	r1, [r4, #80]	; 0x50
 80014e0:	6d63      	ldr	r3, [r4, #84]	; 0x54
 80014e2:	428b      	cmp	r3, r1
 80014e4:	d018      	beq.n	8001518 <kipc_read_process+0x6c>
 80014e6:	2214      	movs	r2, #20
 80014e8:	1c20      	adds	r0, r4, #0
 80014ea:	435a      	muls	r2, r3
 80014ec:	3068      	adds	r0, #104	; 0x68
 80014ee:	1882      	adds	r2, r0, r2
 80014f0:	6810      	ldr	r0, [r2, #0]
 80014f2:	42b0      	cmp	r0, r6
 80014f4:	d001      	beq.n	80014fa <kipc_read_process+0x4e>
 80014f6:	1cb0      	adds	r0, r6, #2
 80014f8:	d107      	bne.n	800150a <kipc_read_process+0x5e>
 80014fa:	6852      	ldr	r2, [r2, #4]
 80014fc:	42ba      	cmp	r2, r7
 80014fe:	d102      	bne.n	8001506 <kipc_read_process+0x5a>
 8001500:	1e1d      	subs	r5, r3, #0
 8001502:	da0d      	bge.n	8001520 <kipc_read_process+0x74>
 8001504:	e00a      	b.n	800151c <kipc_read_process+0x70>
 8001506:	1c7a      	adds	r2, r7, #1
 8001508:	d0fa      	beq.n	8001500 <kipc_read_process+0x54>
 800150a:	6da0      	ldr	r0, [r4, #88]	; 0x58
 800150c:	1c5a      	adds	r2, r3, #1
 800150e:	2300      	movs	r3, #0
 8001510:	4282      	cmp	r2, r0
 8001512:	d2e6      	bcs.n	80014e2 <kipc_read_process+0x36>
 8001514:	1c13      	adds	r3, r2, #0
 8001516:	e7e4      	b.n	80014e2 <kipc_read_process+0x36>
 8001518:	2501      	movs	r5, #1
 800151a:	426d      	negs	r5, r5
 800151c:	65e6      	str	r6, [r4, #92]	; 0x5c
 800151e:	6627      	str	r7, [r4, #96]	; 0x60
 8001520:	b662      	cpsie	i
 8001522:	2d00      	cmp	r5, #0
 8001524:	db42      	blt.n	80015ac <kipc_read_process+0x100>
 8001526:	1c27      	adds	r7, r4, #0
 8001528:	6d63      	ldr	r3, [r4, #84]	; 0x54
 800152a:	3768      	adds	r7, #104	; 0x68
 800152c:	2614      	movs	r6, #20
 800152e:	429d      	cmp	r5, r3
 8001530:	d02a      	beq.n	8001588 <kipc_read_process+0xdc>
 8001532:	1c33      	adds	r3, r6, #0
 8001534:	436b      	muls	r3, r5
 8001536:	9301      	str	r3, [sp, #4]
 8001538:	18fb      	adds	r3, r7, r3
 800153a:	1c19      	adds	r1, r3, #0
 800153c:	a805      	add	r0, sp, #20
 800153e:	1c32      	adds	r2, r6, #0
 8001540:	9302      	str	r3, [sp, #8]
 8001542:	f006 fb8d 	bl	8007c60 <memcpy>
 8001546:	9901      	ldr	r1, [sp, #4]
 8001548:	3914      	subs	r1, #20
 800154a:	2d00      	cmp	r5, #0
 800154c:	dc03      	bgt.n	8001556 <kipc_read_process+0xaa>
 800154e:	6da3      	ldr	r3, [r4, #88]	; 0x58
 8001550:	435e      	muls	r6, r3
 8001552:	1c31      	adds	r1, r6, #0
 8001554:	3914      	subs	r1, #20
 8001556:	1879      	adds	r1, r7, r1
 8001558:	9802      	ldr	r0, [sp, #8]
 800155a:	2214      	movs	r2, #20
 800155c:	f006 fb80 	bl	8007c60 <memcpy>
 8001560:	9801      	ldr	r0, [sp, #4]
 8001562:	3814      	subs	r0, #20
 8001564:	2d00      	cmp	r5, #0
 8001566:	dc03      	bgt.n	8001570 <kipc_read_process+0xc4>
 8001568:	2014      	movs	r0, #20
 800156a:	6da3      	ldr	r3, [r4, #88]	; 0x58
 800156c:	4358      	muls	r0, r3
 800156e:	3814      	subs	r0, #20
 8001570:	1838      	adds	r0, r7, r0
 8001572:	a905      	add	r1, sp, #20
 8001574:	2214      	movs	r2, #20
 8001576:	f006 fb73 	bl	8007c60 <memcpy>
 800157a:	2d00      	cmp	r5, #0
 800157c:	dc02      	bgt.n	8001584 <kipc_read_process+0xd8>
 800157e:	6da3      	ldr	r3, [r4, #88]	; 0x58
 8001580:	1e5d      	subs	r5, r3, #1
 8001582:	e7d0      	b.n	8001526 <kipc_read_process+0x7a>
 8001584:	3d01      	subs	r5, #1
 8001586:	e7ce      	b.n	8001526 <kipc_read_process+0x7a>
 8001588:	4375      	muls	r5, r6
 800158a:	9803      	ldr	r0, [sp, #12]
 800158c:	1979      	adds	r1, r7, r5
 800158e:	1c32      	adds	r2, r6, #0
 8001590:	f006 fb66 	bl	8007c60 <memcpy>
 8001594:	b672      	cpsid	i
 8001596:	6d63      	ldr	r3, [r4, #84]	; 0x54
 8001598:	6da2      	ldr	r2, [r4, #88]	; 0x58
 800159a:	3301      	adds	r3, #1
 800159c:	4293      	cmp	r3, r2
 800159e:	4192      	sbcs	r2, r2
 80015a0:	4013      	ands	r3, r2
 80015a2:	6563      	str	r3, [r4, #84]	; 0x54
 80015a4:	b662      	cpsie	i
 80015a6:	1c20      	adds	r0, r4, #0
 80015a8:	f7ff fb5e 	bl	8000c68 <kprocess_wakeup>
 80015ac:	b00b      	add	sp, #44	; 0x2c
 80015ae:	bdf0      	pop	{r4, r5, r6, r7, pc}
 80015b0:	080082bc 	.word	0x080082bc

080015b4 <kipc_post_process>:
 80015b4:	b5f7      	push	{r0, r1, r2, r4, r5, r6, r7, lr}
 80015b6:	4b3e      	ldr	r3, [pc, #248]	; (80016b0 <kipc_post_process+0xfc>)
 80015b8:	6804      	ldr	r4, [r0, #0]
 80015ba:	1c05      	adds	r5, r0, #0
 80015bc:	18e2      	adds	r2, r4, r3
 80015be:	4b3d      	ldr	r3, [pc, #244]	; (80016b4 <kipc_post_process+0x100>)
 80015c0:	1c0e      	adds	r6, r1, #0
 80015c2:	429a      	cmp	r2, r3
 80015c4:	d804      	bhi.n	80015d0 <kipc_post_process+0x1c>
 80015c6:	1c20      	adds	r0, r4, #0
 80015c8:	4b3b      	ldr	r3, [pc, #236]	; (80016b8 <kipc_post_process+0x104>)
 80015ca:	3068      	adds	r0, #104	; 0x68
 80015cc:	4298      	cmp	r0, r3
 80015ce:	d904      	bls.n	80015da <kipc_post_process+0x26>
 80015d0:	2008      	movs	r0, #8
 80015d2:	4240      	negs	r0, r0
 80015d4:	f7ff fa2e 	bl	8000a34 <kprocess_error_current>
 80015d8:	e068      	b.n	80016ac <kipc_post_process+0xf8>
 80015da:	b672      	cpsid	i
 80015dc:	6de3      	ldr	r3, [r4, #92]	; 0x5c
 80015de:	428b      	cmp	r3, r1
 80015e0:	d001      	beq.n	80015e6 <kipc_post_process+0x32>
 80015e2:	3302      	adds	r3, #2
 80015e4:	d149      	bne.n	800167a <kipc_post_process+0xc6>
 80015e6:	6e23      	ldr	r3, [r4, #96]	; 0x60
 80015e8:	686a      	ldr	r2, [r5, #4]
 80015ea:	4293      	cmp	r3, r2
 80015ec:	d001      	beq.n	80015f2 <kipc_post_process+0x3e>
 80015ee:	3301      	adds	r3, #1
 80015f0:	d143      	bne.n	800167a <kipc_post_process+0xc6>
 80015f2:	2301      	movs	r3, #1
 80015f4:	425b      	negs	r3, r3
 80015f6:	65e3      	str	r3, [r4, #92]	; 0x5c
 80015f8:	6623      	str	r3, [r4, #96]	; 0x60
 80015fa:	2201      	movs	r2, #1
 80015fc:	2300      	movs	r3, #0
 80015fe:	b662      	cpsie	i
 8001600:	2a00      	cmp	r2, #0
 8001602:	d00d      	beq.n	8001620 <kipc_post_process+0x6c>
 8001604:	686a      	ldr	r2, [r5, #4]
 8001606:	6e63      	ldr	r3, [r4, #100]	; 0x64
 8001608:	1c20      	adds	r0, r4, #0
 800160a:	605a      	str	r2, [r3, #4]
 800160c:	68aa      	ldr	r2, [r5, #8]
 800160e:	609a      	str	r2, [r3, #8]
 8001610:	68ea      	ldr	r2, [r5, #12]
 8001612:	60da      	str	r2, [r3, #12]
 8001614:	692a      	ldr	r2, [r5, #16]
 8001616:	601e      	str	r6, [r3, #0]
 8001618:	611a      	str	r2, [r3, #16]
 800161a:	f7ff fb25 	bl	8000c68 <kprocess_wakeup>
 800161e:	e045      	b.n	80016ac <kipc_post_process+0xf8>
 8001620:	2b00      	cmp	r3, #0
 8001622:	d009      	beq.n	8001638 <kipc_post_process+0x84>
 8001624:	686a      	ldr	r2, [r5, #4]
 8001626:	605a      	str	r2, [r3, #4]
 8001628:	68aa      	ldr	r2, [r5, #8]
 800162a:	609a      	str	r2, [r3, #8]
 800162c:	68ea      	ldr	r2, [r5, #12]
 800162e:	60da      	str	r2, [r3, #12]
 8001630:	692a      	ldr	r2, [r5, #16]
 8001632:	601e      	str	r6, [r3, #0]
 8001634:	611a      	str	r2, [r3, #16]
 8001636:	e039      	b.n	80016ac <kipc_post_process+0xf8>
 8001638:	210f      	movs	r1, #15
 800163a:	1c20      	adds	r0, r4, #0
 800163c:	4249      	negs	r1, r1
 800163e:	f7ff fb2f 	bl	8000ca0 <kprocess_error>
 8001642:	68a0      	ldr	r0, [r4, #8]
 8001644:	f7ff ff26 	bl	8001494 <kprocess_name.isra.0>
 8001648:	1c01      	adds	r1, r0, #0
 800164a:	481c      	ldr	r0, [pc, #112]	; (80016bc <kipc_post_process+0x108>)
 800164c:	f7fe ff4c 	bl	80004e8 <printk>
 8001650:	1cf3      	adds	r3, r6, #3
 8001652:	d103      	bne.n	800165c <kipc_post_process+0xa8>
 8001654:	481a      	ldr	r0, [pc, #104]	; (80016c0 <kipc_post_process+0x10c>)
 8001656:	f7fe ff47 	bl	80004e8 <printk>
 800165a:	e006      	b.n	800166a <kipc_post_process+0xb6>
 800165c:	68b0      	ldr	r0, [r6, #8]
 800165e:	f7ff ff19 	bl	8001494 <kprocess_name.isra.0>
 8001662:	1c01      	adds	r1, r0, #0
 8001664:	4817      	ldr	r0, [pc, #92]	; (80016c4 <kipc_post_process+0x110>)
 8001666:	f7fe ff3f 	bl	80004e8 <printk>
 800166a:	692b      	ldr	r3, [r5, #16]
 800166c:	3504      	adds	r5, #4
 800166e:	9300      	str	r3, [sp, #0]
 8001670:	4815      	ldr	r0, [pc, #84]	; (80016c8 <kipc_post_process+0x114>)
 8001672:	cd0e      	ldmia	r5!, {r1, r2, r3}
 8001674:	f7fe ff38 	bl	80004e8 <printk>
 8001678:	e018      	b.n	80016ac <kipc_post_process+0xf8>
 800167a:	6d23      	ldr	r3, [r4, #80]	; 0x50
 800167c:	6da1      	ldr	r1, [r4, #88]	; 0x58
 800167e:	1c5a      	adds	r2, r3, #1
 8001680:	469c      	mov	ip, r3
 8001682:	2700      	movs	r7, #0
 8001684:	428a      	cmp	r2, r1
 8001686:	d30f      	bcc.n	80016a8 <kipc_post_process+0xf4>
 8001688:	6d63      	ldr	r3, [r4, #84]	; 0x54
 800168a:	429f      	cmp	r7, r3
 800168c:	d009      	beq.n	80016a2 <kipc_post_process+0xee>
 800168e:	428a      	cmp	r2, r1
 8001690:	4189      	sbcs	r1, r1
 8001692:	400a      	ands	r2, r1
 8001694:	6522      	str	r2, [r4, #80]	; 0x50
 8001696:	4663      	mov	r3, ip
 8001698:	2214      	movs	r2, #20
 800169a:	4353      	muls	r3, r2
 800169c:	2200      	movs	r2, #0
 800169e:	181b      	adds	r3, r3, r0
 80016a0:	e7ad      	b.n	80015fe <kipc_post_process+0x4a>
 80016a2:	2200      	movs	r2, #0
 80016a4:	1c13      	adds	r3, r2, #0
 80016a6:	e7aa      	b.n	80015fe <kipc_post_process+0x4a>
 80016a8:	1c17      	adds	r7, r2, #0
 80016aa:	e7ed      	b.n	8001688 <kipc_post_process+0xd4>
 80016ac:	bdf7      	pop	{r0, r1, r2, r4, r5, r6, r7, pc}
 80016ae:	46c0      	nop			; (mov r8, r8)
 80016b0:	dffffff4 	.word	0xdffffff4
 80016b4:	dffffff0 	.word	0xdffffff0
 80016b8:	20001fff 	.word	0x20001fff
 80016bc:	08008315 	.word	0x08008315
 80016c0:	08008338 	.word	0x08008338
 80016c4:	08008349 	.word	0x08008349
 80016c8:	08008356 	.word	0x08008356

080016cc <kipc_init>:
 80016cc:	2900      	cmp	r1, #0
 80016ce:	d100      	bne.n	80016d2 <kipc_init+0x6>
 80016d0:	3101      	adds	r1, #1
 80016d2:	2300      	movs	r3, #0
 80016d4:	6543      	str	r3, [r0, #84]	; 0x54
 80016d6:	6503      	str	r3, [r0, #80]	; 0x50
 80016d8:	3b01      	subs	r3, #1
 80016da:	6581      	str	r1, [r0, #88]	; 0x58
 80016dc:	65c3      	str	r3, [r0, #92]	; 0x5c
 80016de:	6603      	str	r3, [r0, #96]	; 0x60
 80016e0:	4770      	bx	lr

080016e2 <kipc_post>:
 80016e2:	b510      	push	{r4, lr}
 80016e4:	1c04      	adds	r4, r0, #0
 80016e6:	f7ff f991 	bl	8000a0c <kprocess_get_current>
 80016ea:	1c01      	adds	r1, r0, #0
 80016ec:	1c20      	adds	r0, r4, #0
 80016ee:	f7ff ff61 	bl	80015b4 <kipc_post_process>
 80016f2:	bd10      	pop	{r4, pc}

080016f4 <kipc_read>:
 80016f4:	b573      	push	{r0, r1, r4, r5, r6, lr}
 80016f6:	1c0d      	adds	r5, r1, #0
 80016f8:	1c06      	adds	r6, r0, #0
 80016fa:	1c14      	adds	r4, r2, #0
 80016fc:	f7ff f986 	bl	8000a0c <kprocess_get_current>
 8001700:	2301      	movs	r3, #1
 8001702:	425b      	negs	r3, r3
 8001704:	9300      	str	r3, [sp, #0]
 8001706:	1c31      	adds	r1, r6, #0
 8001708:	1c2a      	adds	r2, r5, #0
 800170a:	1c23      	adds	r3, r4, #0
 800170c:	f7ff fece 	bl	80014ac <kipc_read_process>
 8001710:	bd73      	pop	{r0, r1, r4, r5, r6, pc}

08001712 <kipc_call>:
 8001712:	b5f7      	push	{r0, r1, r2, r4, r5, r6, r7, lr}
 8001714:	1c04      	adds	r4, r0, #0
 8001716:	1c0f      	adds	r7, r1, #0
 8001718:	f7ff f978 	bl	8000a0c <kprocess_get_current>
 800171c:	1c05      	adds	r5, r0, #0
 800171e:	1c20      	adds	r0, r4, #0
 8001720:	1c29      	adds	r1, r5, #0
 8001722:	6826      	ldr	r6, [r4, #0]
 8001724:	f7ff ff46 	bl	80015b4 <kipc_post_process>
 8001728:	6863      	ldr	r3, [r4, #4]
 800172a:	1c28      	adds	r0, r5, #0
 800172c:	9300      	str	r3, [sp, #0]
 800172e:	1c3a      	adds	r2, r7, #0
 8001730:	1c33      	adds	r3, r6, #0
 8001732:	1c21      	adds	r1, r4, #0
 8001734:	f7ff feba 	bl	80014ac <kipc_read_process>
 8001738:	bdf7      	pop	{r0, r1, r2, r4, r5, r6, r7, pc}

0800173a <rb_is_full>:
 800173a:	6803      	ldr	r3, [r0, #0]
 800173c:	6882      	ldr	r2, [r0, #8]
 800173e:	3301      	adds	r3, #1
 8001740:	4293      	cmp	r3, r2
 8001742:	4192      	sbcs	r2, r2
 8001744:	6840      	ldr	r0, [r0, #4]
 8001746:	4013      	ands	r3, r2
 8001748:	1a18      	subs	r0, r3, r0
 800174a:	4242      	negs	r2, r0
 800174c:	4142      	adcs	r2, r0
 800174e:	b2d0      	uxtb	r0, r2
 8001750:	4770      	bx	lr

08001752 <dlist_remove_head>:
 8001752:	6803      	ldr	r3, [r0, #0]
 8001754:	685a      	ldr	r2, [r3, #4]
 8001756:	429a      	cmp	r2, r3
 8001758:	d101      	bne.n	800175e <dlist_remove_head+0xc>
 800175a:	2300      	movs	r3, #0
 800175c:	e007      	b.n	800176e <dlist_remove_head+0x1c>
 800175e:	681b      	ldr	r3, [r3, #0]
 8001760:	6013      	str	r3, [r2, #0]
 8001762:	6803      	ldr	r3, [r0, #0]
 8001764:	685a      	ldr	r2, [r3, #4]
 8001766:	681b      	ldr	r3, [r3, #0]
 8001768:	605a      	str	r2, [r3, #4]
 800176a:	6803      	ldr	r3, [r0, #0]
 800176c:	685b      	ldr	r3, [r3, #4]
 800176e:	6003      	str	r3, [r0, #0]
 8001770:	4770      	bx	lr

08001772 <dlist_remove>:
 8001772:	b538      	push	{r3, r4, r5, lr}
 8001774:	6805      	ldr	r5, [r0, #0]
 8001776:	1c04      	adds	r4, r0, #0
 8001778:	428d      	cmp	r5, r1
 800177a:	d102      	bne.n	8001782 <dlist_remove+0x10>
 800177c:	f7ff ffe9 	bl	8001752 <dlist_remove_head>
 8001780:	e003      	b.n	800178a <dlist_remove+0x18>
 8001782:	6001      	str	r1, [r0, #0]
 8001784:	f7ff ffe5 	bl	8001752 <dlist_remove_head>
 8001788:	6025      	str	r5, [r4, #0]
 800178a:	bd38      	pop	{r3, r4, r5, pc}

0800178c <kmalloc>:
 800178c:	b508      	push	{r3, lr}
 800178e:	2380      	movs	r3, #128	; 0x80
 8001790:	059b      	lsls	r3, r3, #22
 8001792:	689b      	ldr	r3, [r3, #8]
 8001794:	1c01      	adds	r1, r0, #0
 8001796:	681b      	ldr	r3, [r3, #0]
 8001798:	4801      	ldr	r0, [pc, #4]	; (80017a0 <kmalloc+0x14>)
 800179a:	68db      	ldr	r3, [r3, #12]
 800179c:	4798      	blx	r3
 800179e:	bd08      	pop	{r3, pc}
 80017a0:	200000cc 	.word	0x200000cc

080017a4 <kfree>:
 80017a4:	b508      	push	{r3, lr}
 80017a6:	2380      	movs	r3, #128	; 0x80
 80017a8:	059b      	lsls	r3, r3, #22
 80017aa:	689b      	ldr	r3, [r3, #8]
 80017ac:	1c01      	adds	r1, r0, #0
 80017ae:	681b      	ldr	r3, [r3, #0]
 80017b0:	4801      	ldr	r0, [pc, #4]	; (80017b8 <kfree+0x14>)
 80017b2:	695b      	ldr	r3, [r3, #20]
 80017b4:	4798      	blx	r3
 80017b6:	bd08      	pop	{r3, pc}
 80017b8:	200000cc 	.word	0x200000cc

080017bc <kstream_push>:
 80017bc:	b538      	push	{r3, r4, r5, lr}
 80017be:	1c04      	adds	r4, r0, #0
 80017c0:	6925      	ldr	r5, [r4, #16]
 80017c2:	2d00      	cmp	r5, #0
 80017c4:	d028      	beq.n	8001818 <kstream_push+0x5c>
 80017c6:	1c20      	adds	r0, r4, #0
 80017c8:	f7ff ffb7 	bl	800173a <rb_is_full>
 80017cc:	2800      	cmp	r0, #0
 80017ce:	d123      	bne.n	8001818 <kstream_push+0x5c>
 80017d0:	1c20      	adds	r0, r4, #0
 80017d2:	f7ff ffb2 	bl	800173a <rb_is_full>
 80017d6:	69ab      	ldr	r3, [r5, #24]
 80017d8:	2800      	cmp	r0, #0
 80017da:	d112      	bne.n	8001802 <kstream_push+0x46>
 80017dc:	2b00      	cmp	r3, #0
 80017de:	d012      	beq.n	8001806 <kstream_push+0x4a>
 80017e0:	6821      	ldr	r1, [r4, #0]
 80017e2:	68a2      	ldr	r2, [r4, #8]
 80017e4:	1c4b      	adds	r3, r1, #1
 80017e6:	4293      	cmp	r3, r2
 80017e8:	4192      	sbcs	r2, r2
 80017ea:	4013      	ands	r3, r2
 80017ec:	6023      	str	r3, [r4, #0]
 80017ee:	696b      	ldr	r3, [r5, #20]
 80017f0:	68e0      	ldr	r0, [r4, #12]
 80017f2:	1c5a      	adds	r2, r3, #1
 80017f4:	616a      	str	r2, [r5, #20]
 80017f6:	781b      	ldrb	r3, [r3, #0]
 80017f8:	5443      	strb	r3, [r0, r1]
 80017fa:	69ab      	ldr	r3, [r5, #24]
 80017fc:	3b01      	subs	r3, #1
 80017fe:	61ab      	str	r3, [r5, #24]
 8001800:	e7e6      	b.n	80017d0 <kstream_push+0x14>
 8001802:	2b00      	cmp	r3, #0
 8001804:	d1dc      	bne.n	80017c0 <kstream_push+0x4>
 8001806:	1c20      	adds	r0, r4, #0
 8001808:	742b      	strb	r3, [r5, #16]
 800180a:	3010      	adds	r0, #16
 800180c:	f7ff ffa1 	bl	8001752 <dlist_remove_head>
 8001810:	68e8      	ldr	r0, [r5, #12]
 8001812:	f7ff fa29 	bl	8000c68 <kprocess_wakeup>
 8001816:	e7d3      	b.n	80017c0 <kstream_push+0x4>
 8001818:	bd38      	pop	{r3, r4, r5, pc}

0800181a <kstream_get_size_internal>:
 800181a:	b538      	push	{r3, r4, r5, lr}
 800181c:	1c04      	adds	r4, r0, #0
 800181e:	f7ff ff8c 	bl	800173a <rb_is_full>
 8001822:	2800      	cmp	r0, #0
 8001824:	d012      	beq.n	800184c <kstream_get_size_internal+0x32>
 8001826:	68a3      	ldr	r3, [r4, #8]
 8001828:	6921      	ldr	r1, [r4, #16]
 800182a:	1e58      	subs	r0, r3, #1
 800182c:	1c0b      	adds	r3, r1, #0
 800182e:	1e5a      	subs	r2, r3, #1
 8001830:	4193      	sbcs	r3, r2
 8001832:	1c0a      	adds	r2, r1, #0
 8001834:	b2db      	uxtb	r3, r3
 8001836:	2b00      	cmp	r3, #0
 8001838:	d011      	beq.n	800185e <kstream_get_size_internal+0x44>
 800183a:	6854      	ldr	r4, [r2, #4]
 800183c:	6992      	ldr	r2, [r2, #24]
 800183e:	1a63      	subs	r3, r4, r1
 8001840:	1e5d      	subs	r5, r3, #1
 8001842:	41ab      	sbcs	r3, r5
 8001844:	1880      	adds	r0, r0, r2
 8001846:	b2db      	uxtb	r3, r3
 8001848:	1c22      	adds	r2, r4, #0
 800184a:	e7f4      	b.n	8001836 <kstream_get_size_internal+0x1c>
 800184c:	6862      	ldr	r2, [r4, #4]
 800184e:	6821      	ldr	r1, [r4, #0]
 8001850:	1a88      	subs	r0, r1, r2
 8001852:	428a      	cmp	r2, r1
 8001854:	d903      	bls.n	800185e <kstream_get_size_internal+0x44>
 8001856:	68a3      	ldr	r3, [r4, #8]
 8001858:	18c8      	adds	r0, r1, r3
 800185a:	3801      	subs	r0, #1
 800185c:	1a80      	subs	r0, r0, r2
 800185e:	bd38      	pop	{r3, r4, r5, pc}

08001860 <kstream_lock_release>:
 8001860:	4b10      	ldr	r3, [pc, #64]	; (80018a4 <kstream_lock_release+0x44>)
 8001862:	b510      	push	{r4, lr}
 8001864:	18c2      	adds	r2, r0, r3
 8001866:	4b10      	ldr	r3, [pc, #64]	; (80018a8 <kstream_lock_release+0x48>)
 8001868:	1c04      	adds	r4, r0, #0
 800186a:	429a      	cmp	r2, r3
 800186c:	d804      	bhi.n	8001878 <kstream_lock_release+0x18>
 800186e:	1c02      	adds	r2, r0, #0
 8001870:	4b0e      	ldr	r3, [pc, #56]	; (80018ac <kstream_lock_release+0x4c>)
 8001872:	321c      	adds	r2, #28
 8001874:	429a      	cmp	r2, r3
 8001876:	d904      	bls.n	8001882 <kstream_lock_release+0x22>
 8001878:	2008      	movs	r0, #8
 800187a:	4240      	negs	r0, r0
 800187c:	f7ff f8da 	bl	8000a34 <kprocess_error_current>
 8001880:	e00e      	b.n	80018a0 <kstream_lock_release+0x40>
 8001882:	7c03      	ldrb	r3, [r0, #16]
 8001884:	2b01      	cmp	r3, #1
 8001886:	d004      	beq.n	8001892 <kstream_lock_release+0x32>
 8001888:	2b02      	cmp	r3, #2
 800188a:	d107      	bne.n	800189c <kstream_lock_release+0x3c>
 800188c:	6880      	ldr	r0, [r0, #8]
 800188e:	3010      	adds	r0, #16
 8001890:	e001      	b.n	8001896 <kstream_lock_release+0x36>
 8001892:	6880      	ldr	r0, [r0, #8]
 8001894:	3014      	adds	r0, #20
 8001896:	1c21      	adds	r1, r4, #0
 8001898:	f7ff ff6b 	bl	8001772 <dlist_remove>
 800189c:	2300      	movs	r3, #0
 800189e:	7423      	strb	r3, [r4, #16]
 80018a0:	bd10      	pop	{r4, pc}
 80018a2:	46c0      	nop			; (mov r8, r8)
 80018a4:	dffffff4 	.word	0xdffffff4
 80018a8:	dffffff0 	.word	0xdffffff0
 80018ac:	20001fff 	.word	0x20001fff

080018b0 <kstream_create>:
 80018b0:	b5f8      	push	{r3, r4, r5, r6, r7, lr}
 80018b2:	1c04      	adds	r4, r0, #0
 80018b4:	1c0d      	adds	r5, r1, #0
 80018b6:	f7ff f8a9 	bl	8000a0c <kprocess_get_current>
 80018ba:	1c06      	adds	r6, r0, #0
 80018bc:	2020      	movs	r0, #32
 80018be:	f7ff ff65 	bl	800178c <kmalloc>
 80018c2:	1e07      	subs	r7, r0, #0
 80018c4:	6020      	str	r0, [r4, #0]
 80018c6:	d102      	bne.n	80018ce <kstream_create+0x1e>
 80018c8:	1c30      	adds	r0, r6, #0
 80018ca:	211e      	movs	r1, #30
 80018cc:	e00c      	b.n	80018e8 <kstream_create+0x38>
 80018ce:	1c28      	adds	r0, r5, #0
 80018d0:	f7ff ff5c 	bl	800178c <kmalloc>
 80018d4:	60f8      	str	r0, [r7, #12]
 80018d6:	6820      	ldr	r0, [r4, #0]
 80018d8:	68c7      	ldr	r7, [r0, #12]
 80018da:	2f00      	cmp	r7, #0
 80018dc:	d108      	bne.n	80018f0 <kstream_create+0x40>
 80018de:	f7ff ff61 	bl	80017a4 <kfree>
 80018e2:	1c30      	adds	r0, r6, #0
 80018e4:	211f      	movs	r1, #31
 80018e6:	6027      	str	r7, [r4, #0]
 80018e8:	4249      	negs	r1, r1
 80018ea:	f7ff f9d9 	bl	8000ca0 <kprocess_error>
 80018ee:	e008      	b.n	8001902 <kstream_create+0x52>
 80018f0:	2201      	movs	r2, #1
 80018f2:	2300      	movs	r3, #0
 80018f4:	4252      	negs	r2, r2
 80018f6:	6043      	str	r3, [r0, #4]
 80018f8:	6003      	str	r3, [r0, #0]
 80018fa:	6085      	str	r5, [r0, #8]
 80018fc:	6182      	str	r2, [r0, #24]
 80018fe:	6143      	str	r3, [r0, #20]
 8001900:	6103      	str	r3, [r0, #16]
 8001902:	bdf8      	pop	{r3, r4, r5, r6, r7, pc}

08001904 <kstream_open>:
 8001904:	b570      	push	{r4, r5, r6, lr}
 8001906:	1c04      	adds	r4, r0, #0
 8001908:	1c0d      	adds	r5, r1, #0
 800190a:	f7ff f87f 	bl	8000a0c <kprocess_get_current>
 800190e:	1c06      	adds	r6, r0, #0
 8001910:	1c63      	adds	r3, r4, #1
 8001912:	d101      	bne.n	8001918 <kstream_open+0x14>
 8001914:	602c      	str	r4, [r5, #0]
 8001916:	e020      	b.n	800195a <kstream_open+0x56>
 8001918:	4b10      	ldr	r3, [pc, #64]	; (800195c <kstream_open+0x58>)
 800191a:	18e2      	adds	r2, r4, r3
 800191c:	4b10      	ldr	r3, [pc, #64]	; (8001960 <kstream_open+0x5c>)
 800191e:	429a      	cmp	r2, r3
 8001920:	d804      	bhi.n	800192c <kstream_open+0x28>
 8001922:	1c22      	adds	r2, r4, #0
 8001924:	4b0f      	ldr	r3, [pc, #60]	; (8001964 <kstream_open+0x60>)
 8001926:	3220      	adds	r2, #32
 8001928:	429a      	cmp	r2, r3
 800192a:	d904      	bls.n	8001936 <kstream_open+0x32>
 800192c:	2008      	movs	r0, #8
 800192e:	4240      	negs	r0, r0
 8001930:	f7ff f880 	bl	8000a34 <kprocess_error_current>
 8001934:	e011      	b.n	800195a <kstream_open+0x56>
 8001936:	201c      	movs	r0, #28
 8001938:	f7ff ff28 	bl	800178c <kmalloc>
 800193c:	6028      	str	r0, [r5, #0]
 800193e:	2800      	cmp	r0, #0
 8001940:	d006      	beq.n	8001950 <kstream_open+0x4c>
 8001942:	2200      	movs	r2, #0
 8001944:	60c6      	str	r6, [r0, #12]
 8001946:	682b      	ldr	r3, [r5, #0]
 8001948:	609c      	str	r4, [r3, #8]
 800194a:	682b      	ldr	r3, [r5, #0]
 800194c:	741a      	strb	r2, [r3, #16]
 800194e:	e004      	b.n	800195a <kstream_open+0x56>
 8001950:	211e      	movs	r1, #30
 8001952:	1c30      	adds	r0, r6, #0
 8001954:	4249      	negs	r1, r1
 8001956:	f7ff f9a3 	bl	8000ca0 <kprocess_error>
 800195a:	bd70      	pop	{r4, r5, r6, pc}
 800195c:	dffffff4 	.word	0xdffffff4
 8001960:	dffffff0 	.word	0xdffffff0
 8001964:	20001fff 	.word	0x20001fff

08001968 <kstream_close>:
 8001968:	b510      	push	{r4, lr}
 800196a:	1c43      	adds	r3, r0, #1
 800196c:	d027      	beq.n	80019be <kstream_close+0x56>
 800196e:	4b14      	ldr	r3, [pc, #80]	; (80019c0 <kstream_close+0x58>)
 8001970:	1c04      	adds	r4, r0, #0
 8001972:	18c2      	adds	r2, r0, r3
 8001974:	4b13      	ldr	r3, [pc, #76]	; (80019c4 <kstream_close+0x5c>)
 8001976:	429a      	cmp	r2, r3
 8001978:	d804      	bhi.n	8001984 <kstream_close+0x1c>
 800197a:	1c02      	adds	r2, r0, #0
 800197c:	4b12      	ldr	r3, [pc, #72]	; (80019c8 <kstream_close+0x60>)
 800197e:	321c      	adds	r2, #28
 8001980:	429a      	cmp	r2, r3
 8001982:	d904      	bls.n	800198e <kstream_close+0x26>
 8001984:	2008      	movs	r0, #8
 8001986:	4240      	negs	r0, r0
 8001988:	f7ff f854 	bl	8000a34 <kprocess_error_current>
 800198c:	e017      	b.n	80019be <kstream_close+0x56>
 800198e:	7c03      	ldrb	r3, [r0, #16]
 8001990:	2b01      	cmp	r3, #1
 8001992:	d004      	beq.n	800199e <kstream_close+0x36>
 8001994:	2b02      	cmp	r3, #2
 8001996:	d10f      	bne.n	80019b8 <kstream_close+0x50>
 8001998:	6880      	ldr	r0, [r0, #8]
 800199a:	3010      	adds	r0, #16
 800199c:	e001      	b.n	80019a2 <kstream_close+0x3a>
 800199e:	6880      	ldr	r0, [r0, #8]
 80019a0:	3014      	adds	r0, #20
 80019a2:	1c21      	adds	r1, r4, #0
 80019a4:	f7ff fee5 	bl	8001772 <dlist_remove>
 80019a8:	68e0      	ldr	r0, [r4, #12]
 80019aa:	f7ff f95d 	bl	8000c68 <kprocess_wakeup>
 80019ae:	210b      	movs	r1, #11
 80019b0:	68e0      	ldr	r0, [r4, #12]
 80019b2:	4249      	negs	r1, r1
 80019b4:	f7ff f974 	bl	8000ca0 <kprocess_error>
 80019b8:	1c20      	adds	r0, r4, #0
 80019ba:	f7ff fef3 	bl	80017a4 <kfree>
 80019be:	bd10      	pop	{r4, pc}
 80019c0:	dffffff4 	.word	0xdffffff4
 80019c4:	dffffff0 	.word	0xdffffff0
 80019c8:	20001fff 	.word	0x20001fff

080019cc <kstream_get_size>:
 80019cc:	4b0a      	ldr	r3, [pc, #40]	; (80019f8 <kstream_get_size+0x2c>)
 80019ce:	b510      	push	{r4, lr}
 80019d0:	18c2      	adds	r2, r0, r3
 80019d2:	4b0a      	ldr	r3, [pc, #40]	; (80019fc <kstream_get_size+0x30>)
 80019d4:	1c0c      	adds	r4, r1, #0
 80019d6:	429a      	cmp	r2, r3
 80019d8:	d804      	bhi.n	80019e4 <kstream_get_size+0x18>
 80019da:	1c02      	adds	r2, r0, #0
 80019dc:	4b08      	ldr	r3, [pc, #32]	; (8001a00 <kstream_get_size+0x34>)
 80019de:	3220      	adds	r2, #32
 80019e0:	429a      	cmp	r2, r3
 80019e2:	d904      	bls.n	80019ee <kstream_get_size+0x22>
 80019e4:	2008      	movs	r0, #8
 80019e6:	4240      	negs	r0, r0
 80019e8:	f7ff f824 	bl	8000a34 <kprocess_error_current>
 80019ec:	e002      	b.n	80019f4 <kstream_get_size+0x28>
 80019ee:	f7ff ff14 	bl	800181a <kstream_get_size_internal>
 80019f2:	6020      	str	r0, [r4, #0]
 80019f4:	bd10      	pop	{r4, pc}
 80019f6:	46c0      	nop			; (mov r8, r8)
 80019f8:	dffffff4 	.word	0xdffffff4
 80019fc:	dffffff0 	.word	0xdffffff0
 8001a00:	20001fff 	.word	0x20001fff

08001a04 <kstream_get_free>:
 8001a04:	b538      	push	{r3, r4, r5, lr}
 8001a06:	4b19      	ldr	r3, [pc, #100]	; (8001a6c <kstream_get_free+0x68>)
 8001a08:	18c2      	adds	r2, r0, r3
 8001a0a:	4b19      	ldr	r3, [pc, #100]	; (8001a70 <kstream_get_free+0x6c>)
 8001a0c:	429a      	cmp	r2, r3
 8001a0e:	d804      	bhi.n	8001a1a <kstream_get_free+0x16>
 8001a10:	1c02      	adds	r2, r0, #0
 8001a12:	4b18      	ldr	r3, [pc, #96]	; (8001a74 <kstream_get_free+0x70>)
 8001a14:	3220      	adds	r2, #32
 8001a16:	429a      	cmp	r2, r3
 8001a18:	d904      	bls.n	8001a24 <kstream_get_free+0x20>
 8001a1a:	2008      	movs	r0, #8
 8001a1c:	4240      	negs	r0, r0
 8001a1e:	f7ff f809 	bl	8000a34 <kprocess_error_current>
 8001a22:	e022      	b.n	8001a6a <kstream_get_free+0x66>
 8001a24:	6803      	ldr	r3, [r0, #0]
 8001a26:	6844      	ldr	r4, [r0, #4]
 8001a28:	42a3      	cmp	r3, r4
 8001a2a:	d115      	bne.n	8001a58 <kstream_get_free+0x54>
 8001a2c:	6883      	ldr	r3, [r0, #8]
 8001a2e:	6940      	ldr	r0, [r0, #20]
 8001a30:	3b01      	subs	r3, #1
 8001a32:	600b      	str	r3, [r1, #0]
 8001a34:	1c03      	adds	r3, r0, #0
 8001a36:	1e5a      	subs	r2, r3, #1
 8001a38:	4193      	sbcs	r3, r2
 8001a3a:	1c02      	adds	r2, r0, #0
 8001a3c:	b2db      	uxtb	r3, r3
 8001a3e:	2b00      	cmp	r3, #0
 8001a40:	d013      	beq.n	8001a6a <kstream_get_free+0x66>
 8001a42:	6854      	ldr	r4, [r2, #4]
 8001a44:	6992      	ldr	r2, [r2, #24]
 8001a46:	1a23      	subs	r3, r4, r0
 8001a48:	1e5d      	subs	r5, r3, #1
 8001a4a:	41ab      	sbcs	r3, r5
 8001a4c:	680d      	ldr	r5, [r1, #0]
 8001a4e:	b2db      	uxtb	r3, r3
 8001a50:	18aa      	adds	r2, r5, r2
 8001a52:	600a      	str	r2, [r1, #0]
 8001a54:	1c22      	adds	r2, r4, #0
 8001a56:	e7f2      	b.n	8001a3e <kstream_get_free+0x3a>
 8001a58:	429c      	cmp	r4, r3
 8001a5a:	d901      	bls.n	8001a60 <kstream_get_free+0x5c>
 8001a5c:	1ae3      	subs	r3, r4, r3
 8001a5e:	e003      	b.n	8001a68 <kstream_get_free+0x64>
 8001a60:	6882      	ldr	r2, [r0, #8]
 8001a62:	18a2      	adds	r2, r4, r2
 8001a64:	3a01      	subs	r2, #1
 8001a66:	1ad3      	subs	r3, r2, r3
 8001a68:	600b      	str	r3, [r1, #0]
 8001a6a:	bd38      	pop	{r3, r4, r5, pc}
 8001a6c:	dffffff4 	.word	0xdffffff4
 8001a70:	dffffff0 	.word	0xdffffff0
 8001a74:	20001fff 	.word	0x20001fff

08001a78 <kstream_listen>:
 8001a78:	b570      	push	{r4, r5, r6, lr}
 8001a7a:	4b19      	ldr	r3, [pc, #100]	; (8001ae0 <kstream_listen+0x68>)
 8001a7c:	b086      	sub	sp, #24
 8001a7e:	18c2      	adds	r2, r0, r3
 8001a80:	4b18      	ldr	r3, [pc, #96]	; (8001ae4 <kstream_listen+0x6c>)
 8001a82:	1c04      	adds	r4, r0, #0
 8001a84:	1c0e      	adds	r6, r1, #0
 8001a86:	429a      	cmp	r2, r3
 8001a88:	d804      	bhi.n	8001a94 <kstream_listen+0x1c>
 8001a8a:	1c02      	adds	r2, r0, #0
 8001a8c:	4b16      	ldr	r3, [pc, #88]	; (8001ae8 <kstream_listen+0x70>)
 8001a8e:	3220      	adds	r2, #32
 8001a90:	429a      	cmp	r2, r3
 8001a92:	d904      	bls.n	8001a9e <kstream_listen+0x26>
 8001a94:	2008      	movs	r0, #8
 8001a96:	4240      	negs	r0, r0
 8001a98:	f7fe ffcc 	bl	8000a34 <kprocess_error_current>
 8001a9c:	e01e      	b.n	8001adc <kstream_listen+0x64>
 8001a9e:	f7fe ffb5 	bl	8000a0c <kprocess_get_current>
 8001aa2:	1c05      	adds	r5, r0, #0
 8001aa4:	1c20      	adds	r0, r4, #0
 8001aa6:	f7ff feb8 	bl	800181a <kstream_get_size_internal>
 8001aaa:	69a3      	ldr	r3, [r4, #24]
 8001aac:	3301      	adds	r3, #1
 8001aae:	d110      	bne.n	8001ad2 <kstream_listen+0x5a>
 8001ab0:	2800      	cmp	r0, #0
 8001ab2:	d00b      	beq.n	8001acc <kstream_listen+0x54>
 8001ab4:	2103      	movs	r1, #3
 8001ab6:	2301      	movs	r3, #1
 8001ab8:	9005      	str	r0, [sp, #20]
 8001aba:	4249      	negs	r1, r1
 8001abc:	a801      	add	r0, sp, #4
 8001abe:	9501      	str	r5, [sp, #4]
 8001ac0:	9302      	str	r3, [sp, #8]
 8001ac2:	9603      	str	r6, [sp, #12]
 8001ac4:	9404      	str	r4, [sp, #16]
 8001ac6:	f7ff fd75 	bl	80015b4 <kipc_post_process>
 8001aca:	e007      	b.n	8001adc <kstream_listen+0x64>
 8001acc:	61a5      	str	r5, [r4, #24]
 8001ace:	61e6      	str	r6, [r4, #28]
 8001ad0:	e004      	b.n	8001adc <kstream_listen+0x64>
 8001ad2:	210e      	movs	r1, #14
 8001ad4:	1c28      	adds	r0, r5, #0
 8001ad6:	4249      	negs	r1, r1
 8001ad8:	f7ff f8e2 	bl	8000ca0 <kprocess_error>
 8001adc:	b006      	add	sp, #24
 8001ade:	bd70      	pop	{r4, r5, r6, pc}
 8001ae0:	dffffff4 	.word	0xdffffff4
 8001ae4:	dffffff0 	.word	0xdffffff0
 8001ae8:	20001fff 	.word	0x20001fff

08001aec <kstream_stop_listen>:
 8001aec:	4b0f      	ldr	r3, [pc, #60]	; (8001b2c <kstream_stop_listen+0x40>)
 8001aee:	b510      	push	{r4, lr}
 8001af0:	18c2      	adds	r2, r0, r3
 8001af2:	4b0f      	ldr	r3, [pc, #60]	; (8001b30 <kstream_stop_listen+0x44>)
 8001af4:	1c04      	adds	r4, r0, #0
 8001af6:	429a      	cmp	r2, r3
 8001af8:	d804      	bhi.n	8001b04 <kstream_stop_listen+0x18>
 8001afa:	1c02      	adds	r2, r0, #0
 8001afc:	4b0d      	ldr	r3, [pc, #52]	; (8001b34 <kstream_stop_listen+0x48>)
 8001afe:	3220      	adds	r2, #32
 8001b00:	429a      	cmp	r2, r3
 8001b02:	d904      	bls.n	8001b0e <kstream_stop_listen+0x22>
 8001b04:	2008      	movs	r0, #8
 8001b06:	4240      	negs	r0, r0
 8001b08:	f7fe ff94 	bl	8000a34 <kprocess_error_current>
 8001b0c:	e00c      	b.n	8001b28 <kstream_stop_listen+0x3c>
 8001b0e:	f7fe ff7d 	bl	8000a0c <kprocess_get_current>
 8001b12:	69a3      	ldr	r3, [r4, #24]
 8001b14:	4298      	cmp	r0, r3
 8001b16:	d103      	bne.n	8001b20 <kstream_stop_listen+0x34>
 8001b18:	2301      	movs	r3, #1
 8001b1a:	425b      	negs	r3, r3
 8001b1c:	61a3      	str	r3, [r4, #24]
 8001b1e:	e003      	b.n	8001b28 <kstream_stop_listen+0x3c>
 8001b20:	210e      	movs	r1, #14
 8001b22:	4249      	negs	r1, r1
 8001b24:	f7ff f8bc 	bl	8000ca0 <kprocess_error>
 8001b28:	bd10      	pop	{r4, pc}
 8001b2a:	46c0      	nop			; (mov r8, r8)
 8001b2c:	dffffff4 	.word	0xdffffff4
 8001b30:	dffffff0 	.word	0xdffffff0
 8001b34:	20001fff 	.word	0x20001fff

08001b38 <kstream_write>:
 8001b38:	b5f0      	push	{r4, r5, r6, r7, lr}
 8001b3a:	4b49      	ldr	r3, [pc, #292]	; (8001c60 <kstream_write+0x128>)
 8001b3c:	1c16      	adds	r6, r2, #0
 8001b3e:	18c2      	adds	r2, r0, r3
 8001b40:	4b48      	ldr	r3, [pc, #288]	; (8001c64 <kstream_write+0x12c>)
 8001b42:	b08b      	sub	sp, #44	; 0x2c
 8001b44:	1c04      	adds	r4, r0, #0
 8001b46:	1c0d      	adds	r5, r1, #0
 8001b48:	429a      	cmp	r2, r3
 8001b4a:	d804      	bhi.n	8001b56 <kstream_write+0x1e>
 8001b4c:	1c02      	adds	r2, r0, #0
 8001b4e:	4b46      	ldr	r3, [pc, #280]	; (8001c68 <kstream_write+0x130>)
 8001b50:	321c      	adds	r2, #28
 8001b52:	429a      	cmp	r2, r3
 8001b54:	d904      	bls.n	8001b60 <kstream_write+0x28>
 8001b56:	2008      	movs	r0, #8
 8001b58:	4240      	negs	r0, r0
 8001b5a:	f7fe ff6b 	bl	8000a34 <kprocess_error_current>
 8001b5e:	e07d      	b.n	8001c5c <kstream_write+0x124>
 8001b60:	f7fe ff54 	bl	8000a0c <kprocess_get_current>
 8001b64:	61a6      	str	r6, [r4, #24]
 8001b66:	9001      	str	r0, [sp, #4]
 8001b68:	69a3      	ldr	r3, [r4, #24]
 8001b6a:	2b00      	cmp	r3, #0
 8001b6c:	d03d      	beq.n	8001bea <kstream_write+0xb2>
 8001b6e:	68a2      	ldr	r2, [r4, #8]
 8001b70:	6957      	ldr	r7, [r2, #20]
 8001b72:	2f00      	cmp	r7, #0
 8001b74:	d039      	beq.n	8001bea <kstream_write+0xb2>
 8001b76:	69ba      	ldr	r2, [r7, #24]
 8001b78:	6978      	ldr	r0, [r7, #20]
 8001b7a:	1c29      	adds	r1, r5, #0
 8001b7c:	4293      	cmp	r3, r2
 8001b7e:	d311      	bcc.n	8001ba4 <kstream_write+0x6c>
 8001b80:	f006 f86e 	bl	8007c60 <memcpy>
 8001b84:	69a3      	ldr	r3, [r4, #24]
 8001b86:	69ba      	ldr	r2, [r7, #24]
 8001b88:	68a0      	ldr	r0, [r4, #8]
 8001b8a:	1a9b      	subs	r3, r3, r2
 8001b8c:	61a3      	str	r3, [r4, #24]
 8001b8e:	69bb      	ldr	r3, [r7, #24]
 8001b90:	3014      	adds	r0, #20
 8001b92:	18ed      	adds	r5, r5, r3
 8001b94:	f7ff fddd 	bl	8001752 <dlist_remove_head>
 8001b98:	2300      	movs	r3, #0
 8001b9a:	68f8      	ldr	r0, [r7, #12]
 8001b9c:	743b      	strb	r3, [r7, #16]
 8001b9e:	f7ff f863 	bl	8000c68 <kprocess_wakeup>
 8001ba2:	e7e1      	b.n	8001b68 <kstream_write+0x30>
 8001ba4:	1c1a      	adds	r2, r3, #0
 8001ba6:	f006 f85b 	bl	8007c60 <memcpy>
 8001baa:	69a3      	ldr	r3, [r4, #24]
 8001bac:	697a      	ldr	r2, [r7, #20]
 8001bae:	18d2      	adds	r2, r2, r3
 8001bb0:	617a      	str	r2, [r7, #20]
 8001bb2:	69ba      	ldr	r2, [r7, #24]
 8001bb4:	1ad3      	subs	r3, r2, r3
 8001bb6:	61bb      	str	r3, [r7, #24]
 8001bb8:	69a3      	ldr	r3, [r4, #24]
 8001bba:	18ed      	adds	r5, r5, r3
 8001bbc:	2300      	movs	r3, #0
 8001bbe:	61a3      	str	r3, [r4, #24]
 8001bc0:	e7d2      	b.n	8001b68 <kstream_write+0x30>
 8001bc2:	68a7      	ldr	r7, [r4, #8]
 8001bc4:	1c38      	adds	r0, r7, #0
 8001bc6:	f7ff fdb8 	bl	800173a <rb_is_full>
 8001bca:	2800      	cmp	r0, #0
 8001bcc:	d111      	bne.n	8001bf2 <kstream_write+0xba>
 8001bce:	6839      	ldr	r1, [r7, #0]
 8001bd0:	68ba      	ldr	r2, [r7, #8]
 8001bd2:	1c4b      	adds	r3, r1, #1
 8001bd4:	4293      	cmp	r3, r2
 8001bd6:	4192      	sbcs	r2, r2
 8001bd8:	4013      	ands	r3, r2
 8001bda:	603b      	str	r3, [r7, #0]
 8001bdc:	782b      	ldrb	r3, [r5, #0]
 8001bde:	68f8      	ldr	r0, [r7, #12]
 8001be0:	3501      	adds	r5, #1
 8001be2:	5443      	strb	r3, [r0, r1]
 8001be4:	69a3      	ldr	r3, [r4, #24]
 8001be6:	3b01      	subs	r3, #1
 8001be8:	61a3      	str	r3, [r4, #24]
 8001bea:	69a3      	ldr	r3, [r4, #24]
 8001bec:	2b00      	cmp	r3, #0
 8001bee:	d1e8      	bne.n	8001bc2 <kstream_write+0x8a>
 8001bf0:	e011      	b.n	8001c16 <kstream_write+0xde>
 8001bf2:	2302      	movs	r3, #2
 8001bf4:	6165      	str	r5, [r4, #20]
 8001bf6:	7423      	strb	r3, [r4, #16]
 8001bf8:	693b      	ldr	r3, [r7, #16]
 8001bfa:	2b00      	cmp	r3, #0
 8001bfc:	d124      	bne.n	8001c48 <kstream_write+0x110>
 8001bfe:	613c      	str	r4, [r7, #16]
 8001c00:	6024      	str	r4, [r4, #0]
 8001c02:	6064      	str	r4, [r4, #4]
 8001c04:	2300      	movs	r3, #0
 8001c06:	9801      	ldr	r0, [sp, #4]
 8001c08:	9304      	str	r3, [sp, #16]
 8001c0a:	9303      	str	r3, [sp, #12]
 8001c0c:	a903      	add	r1, sp, #12
 8001c0e:	2250      	movs	r2, #80	; 0x50
 8001c10:	1c23      	adds	r3, r4, #0
 8001c12:	f7fe fff9 	bl	8000c08 <kprocess_sleep>
 8001c16:	68a4      	ldr	r4, [r4, #8]
 8001c18:	69a3      	ldr	r3, [r4, #24]
 8001c1a:	1c5a      	adds	r2, r3, #1
 8001c1c:	d01e      	beq.n	8001c5c <kstream_write+0x124>
 8001c1e:	2e00      	cmp	r6, #0
 8001c20:	d01c      	beq.n	8001c5c <kstream_write+0x124>
 8001c22:	9305      	str	r3, [sp, #20]
 8001c24:	2301      	movs	r3, #1
 8001c26:	9306      	str	r3, [sp, #24]
 8001c28:	69e3      	ldr	r3, [r4, #28]
 8001c2a:	1c20      	adds	r0, r4, #0
 8001c2c:	9307      	str	r3, [sp, #28]
 8001c2e:	9408      	str	r4, [sp, #32]
 8001c30:	f7ff fdf3 	bl	800181a <kstream_get_size_internal>
 8001c34:	2301      	movs	r3, #1
 8001c36:	2103      	movs	r1, #3
 8001c38:	425b      	negs	r3, r3
 8001c3a:	9009      	str	r0, [sp, #36]	; 0x24
 8001c3c:	61a3      	str	r3, [r4, #24]
 8001c3e:	a805      	add	r0, sp, #20
 8001c40:	4249      	negs	r1, r1
 8001c42:	f7ff fcb7 	bl	80015b4 <kipc_post_process>
 8001c46:	e009      	b.n	8001c5c <kstream_write+0x124>
 8001c48:	6063      	str	r3, [r4, #4]
 8001c4a:	693b      	ldr	r3, [r7, #16]
 8001c4c:	681b      	ldr	r3, [r3, #0]
 8001c4e:	6023      	str	r3, [r4, #0]
 8001c50:	693b      	ldr	r3, [r7, #16]
 8001c52:	681b      	ldr	r3, [r3, #0]
 8001c54:	605c      	str	r4, [r3, #4]
 8001c56:	693b      	ldr	r3, [r7, #16]
 8001c58:	601c      	str	r4, [r3, #0]
 8001c5a:	e7d3      	b.n	8001c04 <kstream_write+0xcc>
 8001c5c:	b00b      	add	sp, #44	; 0x2c
 8001c5e:	bdf0      	pop	{r4, r5, r6, r7, pc}
 8001c60:	dffffff4 	.word	0xdffffff4
 8001c64:	dffffff0 	.word	0xdffffff0
 8001c68:	20001fff 	.word	0x20001fff

08001c6c <kstream_read>:
 8001c6c:	4b3e      	ldr	r3, [pc, #248]	; (8001d68 <kstream_read+0xfc>)
 8001c6e:	b5f7      	push	{r0, r1, r2, r4, r5, r6, r7, lr}
 8001c70:	1c16      	adds	r6, r2, #0
 8001c72:	18c2      	adds	r2, r0, r3
 8001c74:	4b3d      	ldr	r3, [pc, #244]	; (8001d6c <kstream_read+0x100>)
 8001c76:	1c04      	adds	r4, r0, #0
 8001c78:	1c0d      	adds	r5, r1, #0
 8001c7a:	429a      	cmp	r2, r3
 8001c7c:	d804      	bhi.n	8001c88 <kstream_read+0x1c>
 8001c7e:	1c02      	adds	r2, r0, #0
 8001c80:	4b3b      	ldr	r3, [pc, #236]	; (8001d70 <kstream_read+0x104>)
 8001c82:	321c      	adds	r2, #28
 8001c84:	429a      	cmp	r2, r3
 8001c86:	d904      	bls.n	8001c92 <kstream_read+0x26>
 8001c88:	2008      	movs	r0, #8
 8001c8a:	4240      	negs	r0, r0
 8001c8c:	f7fe fed2 	bl	8000a34 <kprocess_error_current>
 8001c90:	e068      	b.n	8001d64 <kstream_read+0xf8>
 8001c92:	f7fe febb 	bl	8000a0c <kprocess_get_current>
 8001c96:	1c29      	adds	r1, r5, #0
 8001c98:	1c07      	adds	r7, r0, #0
 8001c9a:	61a6      	str	r6, [r4, #24]
 8001c9c:	69a3      	ldr	r3, [r4, #24]
 8001c9e:	1c0e      	adds	r6, r1, #0
 8001ca0:	2b00      	cmp	r3, #0
 8001ca2:	d02d      	beq.n	8001d00 <kstream_read+0x94>
 8001ca4:	68a3      	ldr	r3, [r4, #8]
 8001ca6:	6858      	ldr	r0, [r3, #4]
 8001ca8:	681a      	ldr	r2, [r3, #0]
 8001caa:	4282      	cmp	r2, r0
 8001cac:	d028      	beq.n	8001d00 <kstream_read+0x94>
 8001cae:	689d      	ldr	r5, [r3, #8]
 8001cb0:	1c42      	adds	r2, r0, #1
 8001cb2:	42aa      	cmp	r2, r5
 8001cb4:	41ad      	sbcs	r5, r5
 8001cb6:	68de      	ldr	r6, [r3, #12]
 8001cb8:	402a      	ands	r2, r5
 8001cba:	605a      	str	r2, [r3, #4]
 8001cbc:	5c33      	ldrb	r3, [r6, r0]
 8001cbe:	700b      	strb	r3, [r1, #0]
 8001cc0:	69a3      	ldr	r3, [r4, #24]
 8001cc2:	3101      	adds	r1, #1
 8001cc4:	3b01      	subs	r3, #1
 8001cc6:	61a3      	str	r3, [r4, #24]
 8001cc8:	e7e8      	b.n	8001c9c <kstream_read+0x30>
 8001cca:	68a3      	ldr	r3, [r4, #8]
 8001ccc:	691d      	ldr	r5, [r3, #16]
 8001cce:	2d00      	cmp	r5, #0
 8001cd0:	d02c      	beq.n	8001d2c <kstream_read+0xc0>
 8001cd2:	69ab      	ldr	r3, [r5, #24]
 8001cd4:	1c30      	adds	r0, r6, #0
 8001cd6:	6969      	ldr	r1, [r5, #20]
 8001cd8:	429a      	cmp	r2, r3
 8001cda:	d315      	bcc.n	8001d08 <kstream_read+0x9c>
 8001cdc:	1c1a      	adds	r2, r3, #0
 8001cde:	f005 ffbf 	bl	8007c60 <memcpy>
 8001ce2:	69a3      	ldr	r3, [r4, #24]
 8001ce4:	69aa      	ldr	r2, [r5, #24]
 8001ce6:	68a0      	ldr	r0, [r4, #8]
 8001ce8:	1a9b      	subs	r3, r3, r2
 8001cea:	61a3      	str	r3, [r4, #24]
 8001cec:	69ab      	ldr	r3, [r5, #24]
 8001cee:	3010      	adds	r0, #16
 8001cf0:	18f6      	adds	r6, r6, r3
 8001cf2:	2300      	movs	r3, #0
 8001cf4:	742b      	strb	r3, [r5, #16]
 8001cf6:	f7ff fd2c 	bl	8001752 <dlist_remove_head>
 8001cfa:	68e8      	ldr	r0, [r5, #12]
 8001cfc:	f7fe ffb4 	bl	8000c68 <kprocess_wakeup>
 8001d00:	69a2      	ldr	r2, [r4, #24]
 8001d02:	2a00      	cmp	r2, #0
 8001d04:	d1e1      	bne.n	8001cca <kstream_read+0x5e>
 8001d06:	e00d      	b.n	8001d24 <kstream_read+0xb8>
 8001d08:	f005 ffaa 	bl	8007c60 <memcpy>
 8001d0c:	69a2      	ldr	r2, [r4, #24]
 8001d0e:	69ab      	ldr	r3, [r5, #24]
 8001d10:	1a9b      	subs	r3, r3, r2
 8001d12:	61ab      	str	r3, [r5, #24]
 8001d14:	69a2      	ldr	r2, [r4, #24]
 8001d16:	696b      	ldr	r3, [r5, #20]
 8001d18:	18b6      	adds	r6, r6, r2
 8001d1a:	189b      	adds	r3, r3, r2
 8001d1c:	616b      	str	r3, [r5, #20]
 8001d1e:	2300      	movs	r3, #0
 8001d20:	61a3      	str	r3, [r4, #24]
 8001d22:	e7ed      	b.n	8001d00 <kstream_read+0x94>
 8001d24:	68a0      	ldr	r0, [r4, #8]
 8001d26:	f7ff fd49 	bl	80017bc <kstream_push>
 8001d2a:	e01b      	b.n	8001d64 <kstream_read+0xf8>
 8001d2c:	2201      	movs	r2, #1
 8001d2e:	6166      	str	r6, [r4, #20]
 8001d30:	7422      	strb	r2, [r4, #16]
 8001d32:	695a      	ldr	r2, [r3, #20]
 8001d34:	2a00      	cmp	r2, #0
 8001d36:	d103      	bne.n	8001d40 <kstream_read+0xd4>
 8001d38:	615c      	str	r4, [r3, #20]
 8001d3a:	6024      	str	r4, [r4, #0]
 8001d3c:	6064      	str	r4, [r4, #4]
 8001d3e:	e008      	b.n	8001d52 <kstream_read+0xe6>
 8001d40:	6062      	str	r2, [r4, #4]
 8001d42:	695a      	ldr	r2, [r3, #20]
 8001d44:	6812      	ldr	r2, [r2, #0]
 8001d46:	6022      	str	r2, [r4, #0]
 8001d48:	695a      	ldr	r2, [r3, #20]
 8001d4a:	6812      	ldr	r2, [r2, #0]
 8001d4c:	6054      	str	r4, [r2, #4]
 8001d4e:	695b      	ldr	r3, [r3, #20]
 8001d50:	601c      	str	r4, [r3, #0]
 8001d52:	2300      	movs	r3, #0
 8001d54:	1c38      	adds	r0, r7, #0
 8001d56:	9301      	str	r3, [sp, #4]
 8001d58:	9300      	str	r3, [sp, #0]
 8001d5a:	4669      	mov	r1, sp
 8001d5c:	2250      	movs	r2, #80	; 0x50
 8001d5e:	1c23      	adds	r3, r4, #0
 8001d60:	f7fe ff52 	bl	8000c08 <kprocess_sleep>
 8001d64:	bdf7      	pop	{r0, r1, r2, r4, r5, r6, r7, pc}
 8001d66:	46c0      	nop			; (mov r8, r8)
 8001d68:	dffffff4 	.word	0xdffffff4
 8001d6c:	dffffff0 	.word	0xdffffff0
 8001d70:	20001fff 	.word	0x20001fff

08001d74 <kstream_flush>:
 8001d74:	b538      	push	{r3, r4, r5, lr}
 8001d76:	4b11      	ldr	r3, [pc, #68]	; (8001dbc <kstream_flush+0x48>)
 8001d78:	1c04      	adds	r4, r0, #0
 8001d7a:	18c2      	adds	r2, r0, r3
 8001d7c:	4b10      	ldr	r3, [pc, #64]	; (8001dc0 <kstream_flush+0x4c>)
 8001d7e:	429a      	cmp	r2, r3
 8001d80:	d804      	bhi.n	8001d8c <kstream_flush+0x18>
 8001d82:	1c02      	adds	r2, r0, #0
 8001d84:	4b0f      	ldr	r3, [pc, #60]	; (8001dc4 <kstream_flush+0x50>)
 8001d86:	3220      	adds	r2, #32
 8001d88:	429a      	cmp	r2, r3
 8001d8a:	d904      	bls.n	8001d96 <kstream_flush+0x22>
 8001d8c:	2008      	movs	r0, #8
 8001d8e:	4240      	negs	r0, r0
 8001d90:	f7fe fe50 	bl	8000a34 <kprocess_error_current>
 8001d94:	e011      	b.n	8001dba <kstream_flush+0x46>
 8001d96:	6843      	ldr	r3, [r0, #4]
 8001d98:	6003      	str	r3, [r0, #0]
 8001d9a:	2301      	movs	r3, #1
 8001d9c:	425b      	negs	r3, r3
 8001d9e:	6183      	str	r3, [r0, #24]
 8001da0:	6925      	ldr	r5, [r4, #16]
 8001da2:	2d00      	cmp	r5, #0
 8001da4:	d009      	beq.n	8001dba <kstream_flush+0x46>
 8001da6:	2300      	movs	r3, #0
 8001da8:	1c20      	adds	r0, r4, #0
 8001daa:	742b      	strb	r3, [r5, #16]
 8001dac:	3010      	adds	r0, #16
 8001dae:	f7ff fcd0 	bl	8001752 <dlist_remove_head>
 8001db2:	68e8      	ldr	r0, [r5, #12]
 8001db4:	f7fe ff58 	bl	8000c68 <kprocess_wakeup>
 8001db8:	e7f2      	b.n	8001da0 <kstream_flush+0x2c>
 8001dba:	bd38      	pop	{r3, r4, r5, pc}
 8001dbc:	dffffff4 	.word	0xdffffff4
 8001dc0:	dffffff0 	.word	0xdffffff0
 8001dc4:	20001fff 	.word	0x20001fff

08001dc8 <kstream_destroy>:
 8001dc8:	b538      	push	{r3, r4, r5, lr}
 8001dca:	1c43      	adds	r3, r0, #1
 8001dcc:	d03b      	beq.n	8001e46 <kstream_destroy+0x7e>
 8001dce:	4b1e      	ldr	r3, [pc, #120]	; (8001e48 <kstream_destroy+0x80>)
 8001dd0:	1c04      	adds	r4, r0, #0
 8001dd2:	18c2      	adds	r2, r0, r3
 8001dd4:	4b1d      	ldr	r3, [pc, #116]	; (8001e4c <kstream_destroy+0x84>)
 8001dd6:	429a      	cmp	r2, r3
 8001dd8:	d804      	bhi.n	8001de4 <kstream_destroy+0x1c>
 8001dda:	1c02      	adds	r2, r0, #0
 8001ddc:	4b1c      	ldr	r3, [pc, #112]	; (8001e50 <kstream_destroy+0x88>)
 8001dde:	3220      	adds	r2, #32
 8001de0:	429a      	cmp	r2, r3
 8001de2:	d904      	bls.n	8001dee <kstream_destroy+0x26>
 8001de4:	2008      	movs	r0, #8
 8001de6:	4240      	negs	r0, r0
 8001de8:	f7fe fe24 	bl	8000a34 <kprocess_error_current>
 8001dec:	e02b      	b.n	8001e46 <kstream_destroy+0x7e>
 8001dee:	6925      	ldr	r5, [r4, #16]
 8001df0:	2d00      	cmp	r5, #0
 8001df2:	d00f      	beq.n	8001e14 <kstream_destroy+0x4c>
 8001df4:	1c20      	adds	r0, r4, #0
 8001df6:	3010      	adds	r0, #16
 8001df8:	f7ff fcab 	bl	8001752 <dlist_remove_head>
 8001dfc:	68e8      	ldr	r0, [r5, #12]
 8001dfe:	f7fe ff33 	bl	8000c68 <kprocess_wakeup>
 8001e02:	210b      	movs	r1, #11
 8001e04:	68e8      	ldr	r0, [r5, #12]
 8001e06:	4249      	negs	r1, r1
 8001e08:	f7fe ff4a 	bl	8000ca0 <kprocess_error>
 8001e0c:	1c28      	adds	r0, r5, #0
 8001e0e:	f7ff fcc9 	bl	80017a4 <kfree>
 8001e12:	e7ec      	b.n	8001dee <kstream_destroy+0x26>
 8001e14:	6965      	ldr	r5, [r4, #20]
 8001e16:	2d00      	cmp	r5, #0
 8001e18:	d00f      	beq.n	8001e3a <kstream_destroy+0x72>
 8001e1a:	1c20      	adds	r0, r4, #0
 8001e1c:	3014      	adds	r0, #20
 8001e1e:	f7ff fc98 	bl	8001752 <dlist_remove_head>
 8001e22:	68e8      	ldr	r0, [r5, #12]
 8001e24:	f7fe ff20 	bl	8000c68 <kprocess_wakeup>
 8001e28:	210b      	movs	r1, #11
 8001e2a:	68e8      	ldr	r0, [r5, #12]
 8001e2c:	4249      	negs	r1, r1
 8001e2e:	f7fe ff37 	bl	8000ca0 <kprocess_error>
 8001e32:	1c28      	adds	r0, r5, #0
 8001e34:	f7ff fcb6 	bl	80017a4 <kfree>
 8001e38:	e7ec      	b.n	8001e14 <kstream_destroy+0x4c>
 8001e3a:	68e0      	ldr	r0, [r4, #12]
 8001e3c:	f7ff fcb2 	bl	80017a4 <kfree>
 8001e40:	1c20      	adds	r0, r4, #0
 8001e42:	f7ff fcaf 	bl	80017a4 <kfree>
 8001e46:	bd38      	pop	{r3, r4, r5, pc}
 8001e48:	dffffff4 	.word	0xdffffff4
 8001e4c:	dffffff0 	.word	0xdffffff0
 8001e50:	20001fff 	.word	0x20001fff

08001e54 <kdirect_init>:
 8001e54:	2200      	movs	r2, #0
 8001e56:	6883      	ldr	r3, [r0, #8]
 8001e58:	61da      	str	r2, [r3, #28]
 8001e5a:	3a01      	subs	r2, #1
 8001e5c:	621a      	str	r2, [r3, #32]
 8001e5e:	4770      	bx	lr

08001e60 <kdirect_read>:
 8001e60:	b5f8      	push	{r3, r4, r5, r6, r7, lr}
 8001e62:	1c06      	adds	r6, r0, #0
 8001e64:	2501      	movs	r5, #1
 8001e66:	1c14      	adds	r4, r2, #0
 8001e68:	1c0f      	adds	r7, r1, #0
 8001e6a:	f7fe fdcf 	bl	8000a0c <kprocess_get_current>
 8001e6e:	68b3      	ldr	r3, [r6, #8]
 8001e70:	69da      	ldr	r2, [r3, #28]
 8001e72:	422a      	tst	r2, r5
 8001e74:	d015      	beq.n	8001ea2 <kdirect_read+0x42>
 8001e76:	6a9a      	ldr	r2, [r3, #40]	; 0x28
 8001e78:	42a2      	cmp	r2, r4
 8001e7a:	d312      	bcc.n	8001ea2 <kdirect_read+0x42>
 8001e7c:	6a59      	ldr	r1, [r3, #36]	; 0x24
 8001e7e:	1c22      	adds	r2, r4, #0
 8001e80:	1c38      	adds	r0, r7, #0
 8001e82:	f005 feed 	bl	8007c60 <memcpy>
 8001e86:	68b3      	ldr	r3, [r6, #8]
 8001e88:	6a9a      	ldr	r2, [r3, #40]	; 0x28
 8001e8a:	42a2      	cmp	r2, r4
 8001e8c:	d103      	bne.n	8001e96 <kdirect_read+0x36>
 8001e8e:	69da      	ldr	r2, [r3, #28]
 8001e90:	43aa      	bics	r2, r5
 8001e92:	61da      	str	r2, [r3, #28]
 8001e94:	e009      	b.n	8001eaa <kdirect_read+0x4a>
 8001e96:	6a59      	ldr	r1, [r3, #36]	; 0x24
 8001e98:	1909      	adds	r1, r1, r4
 8001e9a:	1b14      	subs	r4, r2, r4
 8001e9c:	6259      	str	r1, [r3, #36]	; 0x24
 8001e9e:	629c      	str	r4, [r3, #40]	; 0x28
 8001ea0:	e003      	b.n	8001eaa <kdirect_read+0x4a>
 8001ea2:	210e      	movs	r1, #14
 8001ea4:	4249      	negs	r1, r1
 8001ea6:	f7fe fefb 	bl	8000ca0 <kprocess_error>
 8001eaa:	bdf8      	pop	{r3, r4, r5, r6, r7, pc}

08001eac <kdirect_write>:
 8001eac:	b5f8      	push	{r3, r4, r5, r6, r7, lr}
 8001eae:	1c06      	adds	r6, r0, #0
 8001eb0:	2502      	movs	r5, #2
 8001eb2:	1c14      	adds	r4, r2, #0
 8001eb4:	1c0f      	adds	r7, r1, #0
 8001eb6:	f7fe fda9 	bl	8000a0c <kprocess_get_current>
 8001eba:	68b3      	ldr	r3, [r6, #8]
 8001ebc:	69da      	ldr	r2, [r3, #28]
 8001ebe:	422a      	tst	r2, r5
 8001ec0:	d015      	beq.n	8001eee <kdirect_write+0x42>
 8001ec2:	6a9a      	ldr	r2, [r3, #40]	; 0x28
 8001ec4:	42a2      	cmp	r2, r4
 8001ec6:	d312      	bcc.n	8001eee <kdirect_write+0x42>
 8001ec8:	6a58      	ldr	r0, [r3, #36]	; 0x24
 8001eca:	1c22      	adds	r2, r4, #0
 8001ecc:	1c39      	adds	r1, r7, #0
 8001ece:	f005 fec7 	bl	8007c60 <memcpy>
 8001ed2:	68b3      	ldr	r3, [r6, #8]
 8001ed4:	6a9a      	ldr	r2, [r3, #40]	; 0x28
 8001ed6:	42a2      	cmp	r2, r4
 8001ed8:	d103      	bne.n	8001ee2 <kdirect_write+0x36>
 8001eda:	69da      	ldr	r2, [r3, #28]
 8001edc:	43aa      	bics	r2, r5
 8001ede:	61da      	str	r2, [r3, #28]
 8001ee0:	e009      	b.n	8001ef6 <kdirect_write+0x4a>
 8001ee2:	6a59      	ldr	r1, [r3, #36]	; 0x24
 8001ee4:	1909      	adds	r1, r1, r4
 8001ee6:	1b14      	subs	r4, r2, r4
 8001ee8:	6259      	str	r1, [r3, #36]	; 0x24
 8001eea:	629c      	str	r4, [r3, #40]	; 0x28
 8001eec:	e003      	b.n	8001ef6 <kdirect_write+0x4a>
 8001eee:	210e      	movs	r1, #14
 8001ef0:	4249      	negs	r1, r1
 8001ef2:	f7fe fed5 	bl	8000ca0 <kprocess_error>
 8001ef6:	bdf8      	pop	{r3, r4, r5, r6, r7, pc}

08001ef8 <dlist_remove_head>:
 8001ef8:	6803      	ldr	r3, [r0, #0]
 8001efa:	685a      	ldr	r2, [r3, #4]
 8001efc:	429a      	cmp	r2, r3
 8001efe:	d101      	bne.n	8001f04 <dlist_remove_head+0xc>
 8001f00:	2300      	movs	r3, #0
 8001f02:	e007      	b.n	8001f14 <dlist_remove_head+0x1c>
 8001f04:	681b      	ldr	r3, [r3, #0]
 8001f06:	6013      	str	r3, [r2, #0]
 8001f08:	6803      	ldr	r3, [r0, #0]
 8001f0a:	685a      	ldr	r2, [r3, #4]
 8001f0c:	681b      	ldr	r3, [r3, #0]
 8001f0e:	605a      	str	r2, [r3, #4]
 8001f10:	6803      	ldr	r3, [r0, #0]
 8001f12:	685b      	ldr	r3, [r3, #4]
 8001f14:	6003      	str	r3, [r0, #0]
 8001f16:	4770      	bx	lr

08001f18 <kfree>:
 8001f18:	b508      	push	{r3, lr}
 8001f1a:	2380      	movs	r3, #128	; 0x80
 8001f1c:	059b      	lsls	r3, r3, #22
 8001f1e:	689b      	ldr	r3, [r3, #8]
 8001f20:	1c01      	adds	r1, r0, #0
 8001f22:	681b      	ldr	r3, [r3, #0]
 8001f24:	4801      	ldr	r0, [pc, #4]	; (8001f2c <kfree+0x14>)
 8001f26:	695b      	ldr	r3, [r3, #20]
 8001f28:	4798      	blx	r3
 8001f2a:	bd08      	pop	{r3, pc}
 8001f2c:	200000cc 	.word	0x200000cc

08001f30 <kblock_close_internal>:
 8001f30:	b570      	push	{r4, r5, r6, lr}
 8001f32:	b672      	cpsid	i
 8001f34:	7e03      	ldrb	r3, [r0, #24]
 8001f36:	2b00      	cmp	r3, #0
 8001f38:	d00f      	beq.n	8001f5a <kblock_close_internal+0x2a>
 8001f3a:	1c04      	adds	r4, r0, #0
 8001f3c:	1c08      	adds	r0, r1, #0
 8001f3e:	6cce      	ldr	r6, [r1, #76]	; 0x4c
 8001f40:	1c0d      	adds	r5, r1, #0
 8001f42:	304c      	adds	r0, #76	; 0x4c
 8001f44:	42a6      	cmp	r6, r4
 8001f46:	d102      	bne.n	8001f4e <kblock_close_internal+0x1e>
 8001f48:	f7ff ffd6 	bl	8001ef8 <dlist_remove_head>
 8001f4c:	e003      	b.n	8001f56 <kblock_close_internal+0x26>
 8001f4e:	64cc      	str	r4, [r1, #76]	; 0x4c
 8001f50:	f7ff ffd2 	bl	8001ef8 <dlist_remove_head>
 8001f54:	64ee      	str	r6, [r5, #76]	; 0x4c
 8001f56:	2300      	movs	r3, #0
 8001f58:	7623      	strb	r3, [r4, #24]
 8001f5a:	b662      	cpsie	i
 8001f5c:	bd70      	pop	{r4, r5, r6, pc}
 8001f5e:	0000      	movs	r0, r0

08001f60 <kblock_create>:
 8001f60:	b5f7      	push	{r0, r1, r2, r4, r5, r6, r7, lr}
 8001f62:	2780      	movs	r7, #128	; 0x80
 8001f64:	1c05      	adds	r5, r0, #0
 8001f66:	9101      	str	r1, [sp, #4]
 8001f68:	f7fe fd50 	bl	8000a0c <kprocess_get_current>
 8001f6c:	05bf      	lsls	r7, r7, #22
 8001f6e:	68bb      	ldr	r3, [r7, #8]
 8001f70:	1c04      	adds	r4, r0, #0
 8001f72:	681b      	ldr	r3, [r3, #0]
 8001f74:	4812      	ldr	r0, [pc, #72]	; (8001fc0 <kblock_create+0x60>)
 8001f76:	68db      	ldr	r3, [r3, #12]
 8001f78:	211c      	movs	r1, #28
 8001f7a:	4798      	blx	r3
 8001f7c:	6028      	str	r0, [r5, #0]
 8001f7e:	2800      	cmp	r0, #0
 8001f80:	d017      	beq.n	8001fb2 <kblock_create+0x52>
 8001f82:	6144      	str	r4, [r0, #20]
 8001f84:	6104      	str	r4, [r0, #16]
 8001f86:	682e      	ldr	r6, [r5, #0]
 8001f88:	9b01      	ldr	r3, [sp, #4]
 8001f8a:	480d      	ldr	r0, [pc, #52]	; (8001fc0 <kblock_create+0x60>)
 8001f8c:	60f3      	str	r3, [r6, #12]
 8001f8e:	2300      	movs	r3, #0
 8001f90:	7633      	strb	r3, [r6, #24]
 8001f92:	68bb      	ldr	r3, [r7, #8]
 8001f94:	9901      	ldr	r1, [sp, #4]
 8001f96:	681b      	ldr	r3, [r3, #0]
 8001f98:	68db      	ldr	r3, [r3, #12]
 8001f9a:	4798      	blx	r3
 8001f9c:	60b0      	str	r0, [r6, #8]
 8001f9e:	6828      	ldr	r0, [r5, #0]
 8001fa0:	6886      	ldr	r6, [r0, #8]
 8001fa2:	2e00      	cmp	r6, #0
 8001fa4:	d10a      	bne.n	8001fbc <kblock_create+0x5c>
 8001fa6:	f7ff ffb7 	bl	8001f18 <kfree>
 8001faa:	602e      	str	r6, [r5, #0]
 8001fac:	1c20      	adds	r0, r4, #0
 8001fae:	211f      	movs	r1, #31
 8001fb0:	e001      	b.n	8001fb6 <kblock_create+0x56>
 8001fb2:	1c20      	adds	r0, r4, #0
 8001fb4:	211e      	movs	r1, #30
 8001fb6:	4249      	negs	r1, r1
 8001fb8:	f7fe fe72 	bl	8000ca0 <kprocess_error>
 8001fbc:	bdf7      	pop	{r0, r1, r2, r4, r5, r6, r7, pc}
 8001fbe:	46c0      	nop			; (mov r8, r8)
 8001fc0:	200000cc 	.word	0x200000cc

08001fc4 <kblock_destroy>:
 8001fc4:	b570      	push	{r4, r5, r6, lr}
 8001fc6:	1c43      	adds	r3, r0, #1
 8001fc8:	d027      	beq.n	800201a <kblock_destroy+0x56>
 8001fca:	4b14      	ldr	r3, [pc, #80]	; (800201c <kblock_destroy+0x58>)
 8001fcc:	1c04      	adds	r4, r0, #0
 8001fce:	18c2      	adds	r2, r0, r3
 8001fd0:	4b13      	ldr	r3, [pc, #76]	; (8002020 <kblock_destroy+0x5c>)
 8001fd2:	429a      	cmp	r2, r3
 8001fd4:	d804      	bhi.n	8001fe0 <kblock_destroy+0x1c>
 8001fd6:	1c02      	adds	r2, r0, #0
 8001fd8:	4b12      	ldr	r3, [pc, #72]	; (8002024 <kblock_destroy+0x60>)
 8001fda:	321c      	adds	r2, #28
 8001fdc:	429a      	cmp	r2, r3
 8001fde:	d904      	bls.n	8001fea <kblock_destroy+0x26>
 8001fe0:	2008      	movs	r0, #8
 8001fe2:	4240      	negs	r0, r0
 8001fe4:	f7fe fd26 	bl	8000a34 <kprocess_error_current>
 8001fe8:	e017      	b.n	800201a <kblock_destroy+0x56>
 8001fea:	b672      	cpsid	i
 8001fec:	7e03      	ldrb	r3, [r0, #24]
 8001fee:	2b00      	cmp	r3, #0
 8001ff0:	d00c      	beq.n	800200c <kblock_destroy+0x48>
 8001ff2:	6945      	ldr	r5, [r0, #20]
 8001ff4:	1c28      	adds	r0, r5, #0
 8001ff6:	6cee      	ldr	r6, [r5, #76]	; 0x4c
 8001ff8:	304c      	adds	r0, #76	; 0x4c
 8001ffa:	42a6      	cmp	r6, r4
 8001ffc:	d102      	bne.n	8002004 <kblock_destroy+0x40>
 8001ffe:	f7ff ff7b 	bl	8001ef8 <dlist_remove_head>
 8002002:	e003      	b.n	800200c <kblock_destroy+0x48>
 8002004:	64ec      	str	r4, [r5, #76]	; 0x4c
 8002006:	f7ff ff77 	bl	8001ef8 <dlist_remove_head>
 800200a:	64ee      	str	r6, [r5, #76]	; 0x4c
 800200c:	b662      	cpsie	i
 800200e:	68a0      	ldr	r0, [r4, #8]
 8002010:	f7ff ff82 	bl	8001f18 <kfree>
 8002014:	1c20      	adds	r0, r4, #0
 8002016:	f7ff ff7f 	bl	8001f18 <kfree>
 800201a:	bd70      	pop	{r4, r5, r6, pc}
 800201c:	dffffff4 	.word	0xdffffff4
 8002020:	dffffff0 	.word	0xdffffff0
 8002024:	20001fff 	.word	0x20001fff

08002028 <kblock_open>:
 8002028:	b538      	push	{r3, r4, r5, lr}
 800202a:	1c04      	adds	r4, r0, #0
 800202c:	1c0d      	adds	r5, r1, #0
 800202e:	f7fe fced 	bl	8000a0c <kprocess_get_current>
 8002032:	4b19      	ldr	r3, [pc, #100]	; (8002098 <kblock_open+0x70>)
 8002034:	18e2      	adds	r2, r4, r3
 8002036:	4b19      	ldr	r3, [pc, #100]	; (800209c <kblock_open+0x74>)
 8002038:	429a      	cmp	r2, r3
 800203a:	d804      	bhi.n	8002046 <kblock_open+0x1e>
 800203c:	1c22      	adds	r2, r4, #0
 800203e:	4b18      	ldr	r3, [pc, #96]	; (80020a0 <kblock_open+0x78>)
 8002040:	321c      	adds	r2, #28
 8002042:	429a      	cmp	r2, r3
 8002044:	d904      	bls.n	8002050 <kblock_open+0x28>
 8002046:	2008      	movs	r0, #8
 8002048:	4240      	negs	r0, r0
 800204a:	f7fe fcf3 	bl	8000a34 <kprocess_error_current>
 800204e:	e021      	b.n	8002094 <kblock_open+0x6c>
 8002050:	6963      	ldr	r3, [r4, #20]
 8002052:	4283      	cmp	r3, r0
 8002054:	d118      	bne.n	8002088 <kblock_open+0x60>
 8002056:	b672      	cpsid	i
 8002058:	7e22      	ldrb	r2, [r4, #24]
 800205a:	2a00      	cmp	r2, #0
 800205c:	d111      	bne.n	8002082 <kblock_open+0x5a>
 800205e:	3201      	adds	r2, #1
 8002060:	7622      	strb	r2, [r4, #24]
 8002062:	6cda      	ldr	r2, [r3, #76]	; 0x4c
 8002064:	2a00      	cmp	r2, #0
 8002066:	d103      	bne.n	8002070 <kblock_open+0x48>
 8002068:	64dc      	str	r4, [r3, #76]	; 0x4c
 800206a:	6024      	str	r4, [r4, #0]
 800206c:	6064      	str	r4, [r4, #4]
 800206e:	e008      	b.n	8002082 <kblock_open+0x5a>
 8002070:	6062      	str	r2, [r4, #4]
 8002072:	6cda      	ldr	r2, [r3, #76]	; 0x4c
 8002074:	6812      	ldr	r2, [r2, #0]
 8002076:	6022      	str	r2, [r4, #0]
 8002078:	6cda      	ldr	r2, [r3, #76]	; 0x4c
 800207a:	6812      	ldr	r2, [r2, #0]
 800207c:	6054      	str	r4, [r2, #4]
 800207e:	6cdb      	ldr	r3, [r3, #76]	; 0x4c
 8002080:	601c      	str	r4, [r3, #0]
 8002082:	b662      	cpsie	i
 8002084:	68a3      	ldr	r3, [r4, #8]
 8002086:	e004      	b.n	8002092 <kblock_open+0x6a>
 8002088:	210e      	movs	r1, #14
 800208a:	4249      	negs	r1, r1
 800208c:	f7fe fe08 	bl	8000ca0 <kprocess_error>
 8002090:	2300      	movs	r3, #0
 8002092:	602b      	str	r3, [r5, #0]
 8002094:	bd38      	pop	{r3, r4, r5, pc}
 8002096:	46c0      	nop			; (mov r8, r8)
 8002098:	dffffff4 	.word	0xdffffff4
 800209c:	dffffff0 	.word	0xdffffff0
 80020a0:	20001fff 	.word	0x20001fff

080020a4 <kblock_close>:
 80020a4:	b510      	push	{r4, lr}
 80020a6:	1c04      	adds	r4, r0, #0
 80020a8:	f7fe fcb0 	bl	8000a0c <kprocess_get_current>
 80020ac:	4b0d      	ldr	r3, [pc, #52]	; (80020e4 <kblock_close+0x40>)
 80020ae:	18e2      	adds	r2, r4, r3
 80020b0:	4b0d      	ldr	r3, [pc, #52]	; (80020e8 <kblock_close+0x44>)
 80020b2:	429a      	cmp	r2, r3
 80020b4:	d804      	bhi.n	80020c0 <kblock_close+0x1c>
 80020b6:	1c22      	adds	r2, r4, #0
 80020b8:	4b0c      	ldr	r3, [pc, #48]	; (80020ec <kblock_close+0x48>)
 80020ba:	321c      	adds	r2, #28
 80020bc:	429a      	cmp	r2, r3
 80020be:	d904      	bls.n	80020ca <kblock_close+0x26>
 80020c0:	2008      	movs	r0, #8
 80020c2:	4240      	negs	r0, r0
 80020c4:	f7fe fcb6 	bl	8000a34 <kprocess_error_current>
 80020c8:	e00a      	b.n	80020e0 <kblock_close+0x3c>
 80020ca:	6961      	ldr	r1, [r4, #20]
 80020cc:	4281      	cmp	r1, r0
 80020ce:	d103      	bne.n	80020d8 <kblock_close+0x34>
 80020d0:	1c20      	adds	r0, r4, #0
 80020d2:	f7ff ff2d 	bl	8001f30 <kblock_close_internal>
 80020d6:	e003      	b.n	80020e0 <kblock_close+0x3c>
 80020d8:	210e      	movs	r1, #14
 80020da:	4249      	negs	r1, r1
 80020dc:	f7fe fde0 	bl	8000ca0 <kprocess_error>
 80020e0:	bd10      	pop	{r4, pc}
 80020e2:	46c0      	nop			; (mov r8, r8)
 80020e4:	dffffff4 	.word	0xdffffff4
 80020e8:	dffffff0 	.word	0xdffffff0
 80020ec:	20001fff 	.word	0x20001fff

080020f0 <kblock_get_size>:
 80020f0:	b538      	push	{r3, r4, r5, lr}
 80020f2:	1c04      	adds	r4, r0, #0
 80020f4:	1c0d      	adds	r5, r1, #0
 80020f6:	f7fe fc89 	bl	8000a0c <kprocess_get_current>
 80020fa:	4b0d      	ldr	r3, [pc, #52]	; (8002130 <kblock_get_size+0x40>)
 80020fc:	18e2      	adds	r2, r4, r3
 80020fe:	4b0d      	ldr	r3, [pc, #52]	; (8002134 <kblock_get_size+0x44>)
 8002100:	429a      	cmp	r2, r3
 8002102:	d804      	bhi.n	800210e <kblock_get_size+0x1e>
 8002104:	1c22      	adds	r2, r4, #0
 8002106:	4b0c      	ldr	r3, [pc, #48]	; (8002138 <kblock_get_size+0x48>)
 8002108:	321c      	adds	r2, #28
 800210a:	429a      	cmp	r2, r3
 800210c:	d904      	bls.n	8002118 <kblock_get_size+0x28>
 800210e:	2008      	movs	r0, #8
 8002110:	4240      	negs	r0, r0
 8002112:	f7fe fc8f 	bl	8000a34 <kprocess_error_current>
 8002116:	e00a      	b.n	800212e <kblock_get_size+0x3e>
 8002118:	6963      	ldr	r3, [r4, #20]
 800211a:	4283      	cmp	r3, r0
 800211c:	d101      	bne.n	8002122 <kblock_get_size+0x32>
 800211e:	68e3      	ldr	r3, [r4, #12]
 8002120:	e004      	b.n	800212c <kblock_get_size+0x3c>
 8002122:	210e      	movs	r1, #14
 8002124:	4249      	negs	r1, r1
 8002126:	f7fe fdbb 	bl	8000ca0 <kprocess_error>
 800212a:	2300      	movs	r3, #0
 800212c:	602b      	str	r3, [r5, #0]
 800212e:	bd38      	pop	{r3, r4, r5, pc}
 8002130:	dffffff4 	.word	0xdffffff4
 8002134:	dffffff0 	.word	0xdffffff0
 8002138:	20001fff 	.word	0x20001fff

0800213c <kblock_send>:
 800213c:	b538      	push	{r3, r4, r5, lr}
 800213e:	1c04      	adds	r4, r0, #0
 8002140:	1c0d      	adds	r5, r1, #0
 8002142:	f7fe fc63 	bl	8000a0c <kprocess_get_current>
 8002146:	4b12      	ldr	r3, [pc, #72]	; (8002190 <kblock_send+0x54>)
 8002148:	4a12      	ldr	r2, [pc, #72]	; (8002194 <kblock_send+0x58>)
 800214a:	18e3      	adds	r3, r4, r3
 800214c:	4293      	cmp	r3, r2
 800214e:	d804      	bhi.n	800215a <kblock_send+0x1e>
 8002150:	1c21      	adds	r1, r4, #0
 8002152:	4b11      	ldr	r3, [pc, #68]	; (8002198 <kblock_send+0x5c>)
 8002154:	311c      	adds	r1, #28
 8002156:	4299      	cmp	r1, r3
 8002158:	d904      	bls.n	8002164 <kblock_send+0x28>
 800215a:	2008      	movs	r0, #8
 800215c:	4240      	negs	r0, r0
 800215e:	f7fe fc69 	bl	8000a34 <kprocess_error_current>
 8002162:	e013      	b.n	800218c <kblock_send+0x50>
 8002164:	490a      	ldr	r1, [pc, #40]	; (8002190 <kblock_send+0x54>)
 8002166:	1869      	adds	r1, r5, r1
 8002168:	4291      	cmp	r1, r2
 800216a:	d8f6      	bhi.n	800215a <kblock_send+0x1e>
 800216c:	1c2a      	adds	r2, r5, #0
 800216e:	3268      	adds	r2, #104	; 0x68
 8002170:	429a      	cmp	r2, r3
 8002172:	d8f2      	bhi.n	800215a <kblock_send+0x1e>
 8002174:	6961      	ldr	r1, [r4, #20]
 8002176:	4281      	cmp	r1, r0
 8002178:	d104      	bne.n	8002184 <kblock_send+0x48>
 800217a:	1c20      	adds	r0, r4, #0
 800217c:	f7ff fed8 	bl	8001f30 <kblock_close_internal>
 8002180:	6165      	str	r5, [r4, #20]
 8002182:	e003      	b.n	800218c <kblock_send+0x50>
 8002184:	210e      	movs	r1, #14
 8002186:	4249      	negs	r1, r1
 8002188:	f7fe fd8a 	bl	8000ca0 <kprocess_error>
 800218c:	bd38      	pop	{r3, r4, r5, pc}
 800218e:	46c0      	nop			; (mov r8, r8)
 8002190:	dffffff4 	.word	0xdffffff4
 8002194:	dffffff0 	.word	0xdffffff0
 8002198:	20001fff 	.word	0x20001fff

0800219c <kblock_send_ipc>:
 800219c:	b5f8      	push	{r3, r4, r5, r6, r7, lr}
 800219e:	1c15      	adds	r5, r2, #0
 80021a0:	1c07      	adds	r7, r0, #0
 80021a2:	1c0e      	adds	r6, r1, #0
 80021a4:	f7fe fc32 	bl	8000a0c <kprocess_get_current>
 80021a8:	1c04      	adds	r4, r0, #0
 80021aa:	1c31      	adds	r1, r6, #0
 80021ac:	1c38      	adds	r0, r7, #0
 80021ae:	f7ff ffc5 	bl	800213c <kblock_send>
 80021b2:	1c28      	adds	r0, r5, #0
 80021b4:	1c21      	adds	r1, r4, #0
 80021b6:	f7ff f9fd 	bl	80015b4 <kipc_post_process>
 80021ba:	bdf8      	pop	{r3, r4, r5, r6, r7, pc}

080021bc <kblock_return>:
 80021bc:	b510      	push	{r4, lr}
 80021be:	1c04      	adds	r4, r0, #0
 80021c0:	f7fe fc24 	bl	8000a0c <kprocess_get_current>
 80021c4:	4b0e      	ldr	r3, [pc, #56]	; (8002200 <kblock_return+0x44>)
 80021c6:	18e2      	adds	r2, r4, r3
 80021c8:	4b0e      	ldr	r3, [pc, #56]	; (8002204 <kblock_return+0x48>)
 80021ca:	429a      	cmp	r2, r3
 80021cc:	d804      	bhi.n	80021d8 <kblock_return+0x1c>
 80021ce:	1c22      	adds	r2, r4, #0
 80021d0:	4b0d      	ldr	r3, [pc, #52]	; (8002208 <kblock_return+0x4c>)
 80021d2:	321c      	adds	r2, #28
 80021d4:	429a      	cmp	r2, r3
 80021d6:	d904      	bls.n	80021e2 <kblock_return+0x26>
 80021d8:	2008      	movs	r0, #8
 80021da:	4240      	negs	r0, r0
 80021dc:	f7fe fc2a 	bl	8000a34 <kprocess_error_current>
 80021e0:	e00d      	b.n	80021fe <kblock_return+0x42>
 80021e2:	6923      	ldr	r3, [r4, #16]
 80021e4:	4283      	cmp	r3, r0
 80021e6:	d106      	bne.n	80021f6 <kblock_return+0x3a>
 80021e8:	1c20      	adds	r0, r4, #0
 80021ea:	6961      	ldr	r1, [r4, #20]
 80021ec:	f7ff fea0 	bl	8001f30 <kblock_close_internal>
 80021f0:	6923      	ldr	r3, [r4, #16]
 80021f2:	6163      	str	r3, [r4, #20]
 80021f4:	e003      	b.n	80021fe <kblock_return+0x42>
 80021f6:	210e      	movs	r1, #14
 80021f8:	4249      	negs	r1, r1
 80021fa:	f7fe fd51 	bl	8000ca0 <kprocess_error>
 80021fe:	bd10      	pop	{r4, pc}
 8002200:	dffffff4 	.word	0xdffffff4
 8002204:	dffffff0 	.word	0xdffffff0
 8002208:	20001fff 	.word	0x20001fff

0800220c <kobject_init>:
 800220c:	4b05      	ldr	r3, [pc, #20]	; (8002224 <kobject_init+0x18>)
 800220e:	2201      	movs	r2, #1
 8002210:	1c19      	adds	r1, r3, #0
 8002212:	4252      	negs	r2, r2
 8002214:	31cc      	adds	r1, #204	; 0xcc
 8002216:	33dc      	adds	r3, #220	; 0xdc
 8002218:	600a      	str	r2, [r1, #0]
 800221a:	604a      	str	r2, [r1, #4]
 800221c:	608a      	str	r2, [r1, #8]
 800221e:	60ca      	str	r2, [r1, #12]
 8002220:	601a      	str	r2, [r3, #0]
 8002222:	4770      	bx	lr
 8002224:	2000000c 	.word	0x2000000c

08002228 <kobject_set>:
 8002228:	b538      	push	{r3, r4, r5, lr}
 800222a:	1c04      	adds	r4, r0, #0
 800222c:	1c0d      	adds	r5, r1, #0
 800222e:	f7fe fbed 	bl	8000a0c <kprocess_get_current>
 8002232:	2c04      	cmp	r4, #4
 8002234:	dc10      	bgt.n	8002258 <kobject_set+0x30>
 8002236:	4a0b      	ldr	r2, [pc, #44]	; (8002264 <kobject_set+0x3c>)
 8002238:	4b0b      	ldr	r3, [pc, #44]	; (8002268 <kobject_set+0x40>)
 800223a:	00a4      	lsls	r4, r4, #2
 800223c:	18e3      	adds	r3, r4, r3
 800223e:	18a4      	adds	r4, r4, r2
 8002240:	6822      	ldr	r2, [r4, #0]
 8002242:	1c51      	adds	r1, r2, #1
 8002244:	d003      	beq.n	800224e <kobject_set+0x26>
 8002246:	4290      	cmp	r0, r2
 8002248:	d104      	bne.n	8002254 <kobject_set+0x2c>
 800224a:	1c6a      	adds	r2, r5, #1
 800224c:	d102      	bne.n	8002254 <kobject_set+0x2c>
 800224e:	33cc      	adds	r3, #204	; 0xcc
 8002250:	601d      	str	r5, [r3, #0]
 8002252:	e005      	b.n	8002260 <kobject_set+0x38>
 8002254:	210e      	movs	r1, #14
 8002256:	e000      	b.n	800225a <kobject_set+0x32>
 8002258:	210d      	movs	r1, #13
 800225a:	4249      	negs	r1, r1
 800225c:	f7fe fd20 	bl	8000ca0 <kprocess_error>
 8002260:	bd38      	pop	{r3, r4, r5, pc}
 8002262:	46c0      	nop			; (mov r8, r8)
 8002264:	200000d8 	.word	0x200000d8
 8002268:	2000000c 	.word	0x2000000c

0800226c <kobject_get>:
 800226c:	b538      	push	{r3, r4, r5, lr}
 800226e:	1c04      	adds	r4, r0, #0
 8002270:	1c0d      	adds	r5, r1, #0
 8002272:	f7fe fbcb 	bl	8000a0c <kprocess_get_current>
 8002276:	2c04      	cmp	r4, #4
 8002278:	dc05      	bgt.n	8002286 <kobject_get+0x1a>
 800227a:	4b05      	ldr	r3, [pc, #20]	; (8002290 <kobject_get+0x24>)
 800227c:	00a4      	lsls	r4, r4, #2
 800227e:	18e4      	adds	r4, r4, r3
 8002280:	6863      	ldr	r3, [r4, #4]
 8002282:	602b      	str	r3, [r5, #0]
 8002284:	e003      	b.n	800228e <kobject_get+0x22>
 8002286:	210d      	movs	r1, #13
 8002288:	4249      	negs	r1, r1
 800228a:	f7fe fd09 	bl	8000ca0 <kprocess_error>
 800228e:	bd38      	pop	{r3, r4, r5, pc}
 8002290:	200000d4 	.word	0x200000d4

08002294 <__mktime>:
 8002294:	b5f0      	push	{r4, r5, r6, r7, lr}
 8002296:	4b31      	ldr	r3, [pc, #196]	; (800235c <__mktime+0xc8>)
 8002298:	88c6      	ldrh	r6, [r0, #6]
 800229a:	b085      	sub	sp, #20
 800229c:	18f7      	adds	r7, r6, r3
 800229e:	2303      	movs	r3, #3
 80022a0:	1c05      	adds	r5, r0, #0
 80022a2:	4033      	ands	r3, r6
 80022a4:	1c30      	adds	r0, r6, #0
 80022a6:	2164      	movs	r1, #100	; 0x64
 80022a8:	9300      	str	r3, [sp, #0]
 80022aa:	f005 fbbf 	bl	8007a2c <__aeabi_uidivmod>
 80022ae:	b28b      	uxth	r3, r1
 80022b0:	2164      	movs	r1, #100	; 0x64
 80022b2:	2400      	movs	r4, #0
 80022b4:	4249      	negs	r1, r1
 80022b6:	1c38      	adds	r0, r7, #0
 80022b8:	9301      	str	r3, [sp, #4]
 80022ba:	f005 fbc1 	bl	8007a40 <__aeabi_idiv>
 80022be:	2244      	movs	r2, #68	; 0x44
 80022c0:	1c21      	adds	r1, r4, #0
 80022c2:	9b01      	ldr	r3, [sp, #4]
 80022c4:	3b01      	subs	r3, #1
 80022c6:	b29b      	uxth	r3, r3
 80022c8:	429a      	cmp	r2, r3
 80022ca:	4161      	adcs	r1, r4
 80022cc:	1a43      	subs	r3, r0, r1
 80022ce:	9900      	ldr	r1, [sp, #0]
 80022d0:	226e      	movs	r2, #110	; 0x6e
 80022d2:	3901      	subs	r1, #1
 80022d4:	4248      	negs	r0, r1
 80022d6:	4141      	adcs	r1, r0
 80022d8:	9302      	str	r3, [sp, #8]
 80022da:	17fb      	asrs	r3, r7, #31
 80022dc:	0f9b      	lsrs	r3, r3, #30
 80022de:	19db      	adds	r3, r3, r7
 80022e0:	109b      	asrs	r3, r3, #2
 80022e2:	185b      	adds	r3, r3, r1
 80022e4:	21c8      	movs	r1, #200	; 0xc8
 80022e6:	32ff      	adds	r2, #255	; 0xff
 80022e8:	437a      	muls	r2, r7
 80022ea:	3a01      	subs	r2, #1
 80022ec:	18d3      	adds	r3, r2, r3
 80022ee:	1c30      	adds	r0, r6, #0
 80022f0:	0049      	lsls	r1, r1, #1
 80022f2:	9303      	str	r3, [sp, #12]
 80022f4:	f005 fb9a 	bl	8007a2c <__aeabi_uidivmod>
 80022f8:	b28e      	uxth	r6, r1
 80022fa:	21c8      	movs	r1, #200	; 0xc8
 80022fc:	1c38      	adds	r0, r7, #0
 80022fe:	0049      	lsls	r1, r1, #1
 8002300:	f005 fb9e 	bl	8007a40 <__aeabi_idiv>
 8002304:	23b8      	movs	r3, #184	; 0xb8
 8002306:	1c21      	adds	r1, r4, #0
 8002308:	1e72      	subs	r2, r6, #1
 800230a:	b292      	uxth	r2, r2
 800230c:	005b      	lsls	r3, r3, #1
 800230e:	4293      	cmp	r3, r2
 8002310:	4161      	adcs	r1, r4
 8002312:	9a00      	ldr	r2, [sp, #0]
 8002314:	1843      	adds	r3, r0, r1
 8002316:	42a2      	cmp	r2, r4
 8002318:	d105      	bne.n	8002326 <__mktime+0x92>
 800231a:	9a01      	ldr	r2, [sp, #4]
 800231c:	3401      	adds	r4, #1
 800231e:	2a00      	cmp	r2, #0
 8002320:	d101      	bne.n	8002326 <__mktime+0x92>
 8002322:	4274      	negs	r4, r6
 8002324:	4174      	adcs	r4, r6
 8002326:	223c      	movs	r2, #60	; 0x3c
 8002328:	78a9      	ldrb	r1, [r5, #2]
 800232a:	786e      	ldrb	r6, [r5, #1]
 800232c:	4351      	muls	r1, r2
 800232e:	1989      	adds	r1, r1, r6
 8002330:	434a      	muls	r2, r1
 8002332:	7828      	ldrb	r0, [r5, #0]
 8002334:	1811      	adds	r1, r2, r0
 8002336:	200c      	movs	r0, #12
 8002338:	4344      	muls	r4, r0
 800233a:	792a      	ldrb	r2, [r5, #4]
 800233c:	18a4      	adds	r4, r4, r2
 800233e:	4a08      	ldr	r2, [pc, #32]	; (8002360 <__mktime+0xcc>)
 8002340:	0064      	lsls	r4, r4, #1
 8002342:	5aa0      	ldrh	r0, [r4, r2]
 8002344:	78ea      	ldrb	r2, [r5, #3]
 8002346:	1882      	adds	r2, r0, r2
 8002348:	9803      	ldr	r0, [sp, #12]
 800234a:	1882      	adds	r2, r0, r2
 800234c:	9802      	ldr	r0, [sp, #8]
 800234e:	1810      	adds	r0, r2, r0
 8002350:	18c0      	adds	r0, r0, r3
 8002352:	4b04      	ldr	r3, [pc, #16]	; (8002364 <__mktime+0xd0>)
 8002354:	4358      	muls	r0, r3
 8002356:	1808      	adds	r0, r1, r0
 8002358:	b005      	add	sp, #20
 800235a:	bdf0      	pop	{r4, r5, r6, r7, pc}
 800235c:	fffff84e 	.word	0xfffff84e
 8002360:	080083f4 	.word	0x080083f4
 8002364:	00015180 	.word	0x00015180

08002368 <__gmtime>:
 8002368:	b5f7      	push	{r0, r1, r2, r4, r5, r6, r7, lr}
 800236a:	1c0d      	adds	r5, r1, #0
 800236c:	213c      	movs	r1, #60	; 0x3c
 800236e:	1c04      	adds	r4, r0, #0
 8002370:	f005 fb5c 	bl	8007a2c <__aeabi_uidivmod>
 8002374:	1c20      	adds	r0, r4, #0
 8002376:	7029      	strb	r1, [r5, #0]
 8002378:	213c      	movs	r1, #60	; 0x3c
 800237a:	f005 fad1 	bl	8007920 <__aeabi_uidiv>
 800237e:	213c      	movs	r1, #60	; 0x3c
 8002380:	1c04      	adds	r4, r0, #0
 8002382:	f005 fb53 	bl	8007a2c <__aeabi_uidivmod>
 8002386:	1c20      	adds	r0, r4, #0
 8002388:	7069      	strb	r1, [r5, #1]
 800238a:	213c      	movs	r1, #60	; 0x3c
 800238c:	f005 fac8 	bl	8007920 <__aeabi_uidiv>
 8002390:	2118      	movs	r1, #24
 8002392:	1c04      	adds	r4, r0, #0
 8002394:	f005 fb4a 	bl	8007a2c <__aeabi_uidivmod>
 8002398:	1c20      	adds	r0, r4, #0
 800239a:	70a9      	strb	r1, [r5, #2]
 800239c:	2118      	movs	r1, #24
 800239e:	f005 fabf 	bl	8007920 <__aeabi_uidiv>
 80023a2:	1c04      	adds	r4, r0, #0
 80023a4:	4b39      	ldr	r3, [pc, #228]	; (800248c <__gmtime+0x124>)
 80023a6:	80eb      	strh	r3, [r5, #6]
 80023a8:	2603      	movs	r6, #3
 80023aa:	88ef      	ldrh	r7, [r5, #6]
 80023ac:	403e      	ands	r6, r7
 80023ae:	d110      	bne.n	80023d2 <__gmtime+0x6a>
 80023b0:	1c38      	adds	r0, r7, #0
 80023b2:	2164      	movs	r1, #100	; 0x64
 80023b4:	f005 fb3a 	bl	8007a2c <__aeabi_uidivmod>
 80023b8:	b28b      	uxth	r3, r1
 80023ba:	9301      	str	r3, [sp, #4]
 80023bc:	2b00      	cmp	r3, #0
 80023be:	d155      	bne.n	800246c <__gmtime+0x104>
 80023c0:	21c8      	movs	r1, #200	; 0xc8
 80023c2:	1c38      	adds	r0, r7, #0
 80023c4:	0049      	lsls	r1, r1, #1
 80023c6:	f005 fb31 	bl	8007a2c <__aeabi_uidivmod>
 80023ca:	b28e      	uxth	r6, r1
 80023cc:	2e00      	cmp	r6, #0
 80023ce:	d054      	beq.n	800247a <__gmtime+0x112>
 80023d0:	e006      	b.n	80023e0 <__gmtime+0x78>
 80023d2:	23b6      	movs	r3, #182	; 0xb6
 80023d4:	005b      	lsls	r3, r3, #1
 80023d6:	429c      	cmp	r4, r3
 80023d8:	d916      	bls.n	8002408 <__gmtime+0xa0>
 80023da:	216e      	movs	r1, #110	; 0x6e
 80023dc:	31ff      	adds	r1, #255	; 0xff
 80023de:	e00e      	b.n	80023fe <__gmtime+0x96>
 80023e0:	23b6      	movs	r3, #182	; 0xb6
 80023e2:	005b      	lsls	r3, r3, #1
 80023e4:	429c      	cmp	r4, r3
 80023e6:	d90e      	bls.n	8002406 <__gmtime+0x9e>
 80023e8:	21c8      	movs	r1, #200	; 0xc8
 80023ea:	1c38      	adds	r0, r7, #0
 80023ec:	0049      	lsls	r1, r1, #1
 80023ee:	f005 fb1d 	bl	8007a2c <__aeabi_uidivmod>
 80023f2:	b289      	uxth	r1, r1
 80023f4:	1e4b      	subs	r3, r1, #1
 80023f6:	4199      	sbcs	r1, r3
 80023f8:	23b7      	movs	r3, #183	; 0xb7
 80023fa:	005b      	lsls	r3, r3, #1
 80023fc:	1a59      	subs	r1, r3, r1
 80023fe:	3701      	adds	r7, #1
 8002400:	1a64      	subs	r4, r4, r1
 8002402:	80ef      	strh	r7, [r5, #6]
 8002404:	e7d0      	b.n	80023a8 <__gmtime+0x40>
 8002406:	9e01      	ldr	r6, [sp, #4]
 8002408:	2300      	movs	r3, #0
 800240a:	1c38      	adds	r0, r7, #0
 800240c:	712b      	strb	r3, [r5, #4]
 800240e:	2164      	movs	r1, #100	; 0x64
 8002410:	f005 fb0c 	bl	8007a2c <__aeabi_uidivmod>
 8002414:	b28b      	uxth	r3, r1
 8002416:	21c8      	movs	r1, #200	; 0xc8
 8002418:	1c38      	adds	r0, r7, #0
 800241a:	0049      	lsls	r1, r1, #1
 800241c:	9301      	str	r3, [sp, #4]
 800241e:	f005 fb05 	bl	8007a2c <__aeabi_uidivmod>
 8002422:	b289      	uxth	r1, r1
 8002424:	2700      	movs	r7, #0
 8002426:	42be      	cmp	r6, r7
 8002428:	d105      	bne.n	8002436 <__gmtime+0xce>
 800242a:	9b01      	ldr	r3, [sp, #4]
 800242c:	3701      	adds	r7, #1
 800242e:	2b00      	cmp	r3, #0
 8002430:	d101      	bne.n	8002436 <__gmtime+0xce>
 8002432:	424f      	negs	r7, r1
 8002434:	414f      	adcs	r7, r1
 8002436:	230c      	movs	r3, #12
 8002438:	437b      	muls	r3, r7
 800243a:	792a      	ldrb	r2, [r5, #4]
 800243c:	4814      	ldr	r0, [pc, #80]	; (8002490 <__gmtime+0x128>)
 800243e:	189b      	adds	r3, r3, r2
 8002440:	005b      	lsls	r3, r3, #1
 8002442:	5a1b      	ldrh	r3, [r3, r0]
 8002444:	429c      	cmp	r4, r3
 8002446:	d31d      	bcc.n	8002484 <__gmtime+0x11c>
 8002448:	2700      	movs	r7, #0
 800244a:	42be      	cmp	r6, r7
 800244c:	d105      	bne.n	800245a <__gmtime+0xf2>
 800244e:	9b01      	ldr	r3, [sp, #4]
 8002450:	3701      	adds	r7, #1
 8002452:	2b00      	cmp	r3, #0
 8002454:	d101      	bne.n	800245a <__gmtime+0xf2>
 8002456:	424f      	negs	r7, r1
 8002458:	414f      	adcs	r7, r1
 800245a:	230c      	movs	r3, #12
 800245c:	437b      	muls	r3, r7
 800245e:	189b      	adds	r3, r3, r2
 8002460:	005b      	lsls	r3, r3, #1
 8002462:	5ac3      	ldrh	r3, [r0, r3]
 8002464:	3201      	adds	r2, #1
 8002466:	1ae4      	subs	r4, r4, r3
 8002468:	712a      	strb	r2, [r5, #4]
 800246a:	e7db      	b.n	8002424 <__gmtime+0xbc>
 800246c:	236e      	movs	r3, #110	; 0x6e
 800246e:	33ff      	adds	r3, #255	; 0xff
 8002470:	429c      	cmp	r4, r3
 8002472:	d9c9      	bls.n	8002408 <__gmtime+0xa0>
 8002474:	21b7      	movs	r1, #183	; 0xb7
 8002476:	0049      	lsls	r1, r1, #1
 8002478:	e7c1      	b.n	80023fe <__gmtime+0x96>
 800247a:	236e      	movs	r3, #110	; 0x6e
 800247c:	33ff      	adds	r3, #255	; 0xff
 800247e:	429c      	cmp	r4, r3
 8002480:	d8b2      	bhi.n	80023e8 <__gmtime+0x80>
 8002482:	e7c1      	b.n	8002408 <__gmtime+0xa0>
 8002484:	3401      	adds	r4, #1
 8002486:	1c28      	adds	r0, r5, #0
 8002488:	70ec      	strb	r4, [r5, #3]
 800248a:	bdfe      	pop	{r1, r2, r3, r4, r5, r6, r7, pc}
 800248c:	000007b2 	.word	0x000007b2
 8002490:	08008394 	.word	0x08008394

08002494 <__time_add>:
 8002494:	6803      	ldr	r3, [r0, #0]
 8002496:	b510      	push	{r4, lr}
 8002498:	680c      	ldr	r4, [r1, #0]
 800249a:	6840      	ldr	r0, [r0, #4]
 800249c:	191b      	adds	r3, r3, r4
 800249e:	6013      	str	r3, [r2, #0]
 80024a0:	684b      	ldr	r3, [r1, #4]
 80024a2:	18c3      	adds	r3, r0, r3
 80024a4:	6053      	str	r3, [r2, #4]
 80024a6:	6853      	ldr	r3, [r2, #4]
 80024a8:	4904      	ldr	r1, [pc, #16]	; (80024bc <__time_add+0x28>)
 80024aa:	428b      	cmp	r3, r1
 80024ac:	d905      	bls.n	80024ba <__time_add+0x26>
 80024ae:	6811      	ldr	r1, [r2, #0]
 80024b0:	3101      	adds	r1, #1
 80024b2:	6011      	str	r1, [r2, #0]
 80024b4:	4902      	ldr	r1, [pc, #8]	; (80024c0 <__time_add+0x2c>)
 80024b6:	185b      	adds	r3, r3, r1
 80024b8:	e7f4      	b.n	80024a4 <__time_add+0x10>
 80024ba:	bd10      	pop	{r4, pc}
 80024bc:	000f423f 	.word	0x000f423f
 80024c0:	fff0bdc0 	.word	0xfff0bdc0

080024c4 <__us_to_time>:
 80024c4:	b538      	push	{r3, r4, r5, lr}
 80024c6:	1c0c      	adds	r4, r1, #0
 80024c8:	4905      	ldr	r1, [pc, #20]	; (80024e0 <__us_to_time+0x1c>)
 80024ca:	1c05      	adds	r5, r0, #0
 80024cc:	f005 fa28 	bl	8007920 <__aeabi_uidiv>
 80024d0:	4903      	ldr	r1, [pc, #12]	; (80024e0 <__us_to_time+0x1c>)
 80024d2:	6020      	str	r0, [r4, #0]
 80024d4:	1c28      	adds	r0, r5, #0
 80024d6:	f005 faa9 	bl	8007a2c <__aeabi_uidivmod>
 80024da:	6061      	str	r1, [r4, #4]
 80024dc:	bd38      	pop	{r3, r4, r5, pc}
 80024de:	46c0      	nop			; (mov r8, r8)
 80024e0:	000f4240 	.word	0x000f4240

080024e4 <__ms_to_time>:
 80024e4:	b538      	push	{r3, r4, r5, lr}
 80024e6:	1c0c      	adds	r4, r1, #0
 80024e8:	21fa      	movs	r1, #250	; 0xfa
 80024ea:	0089      	lsls	r1, r1, #2
 80024ec:	1c05      	adds	r5, r0, #0
 80024ee:	f005 fa17 	bl	8007920 <__aeabi_uidiv>
 80024f2:	21fa      	movs	r1, #250	; 0xfa
 80024f4:	6020      	str	r0, [r4, #0]
 80024f6:	0089      	lsls	r1, r1, #2
 80024f8:	1c28      	adds	r0, r5, #0
 80024fa:	f005 fa97 	bl	8007a2c <__aeabi_uidivmod>
 80024fe:	23fa      	movs	r3, #250	; 0xfa
 8002500:	009b      	lsls	r3, r3, #2
 8002502:	4359      	muls	r1, r3
 8002504:	6061      	str	r1, [r4, #4]
 8002506:	bd38      	pop	{r3, r4, r5, pc}

08002508 <__time_to_us>:
 8002508:	6802      	ldr	r2, [r0, #0]
 800250a:	4b05      	ldr	r3, [pc, #20]	; (8002520 <__time_to_us+0x18>)
 800250c:	429a      	cmp	r2, r3
 800250e:	d804      	bhi.n	800251a <__time_to_us+0x12>
 8002510:	4b04      	ldr	r3, [pc, #16]	; (8002524 <__time_to_us+0x1c>)
 8002512:	435a      	muls	r2, r3
 8002514:	6843      	ldr	r3, [r0, #4]
 8002516:	18d0      	adds	r0, r2, r3
 8002518:	e000      	b.n	800251c <__time_to_us+0x14>
 800251a:	4803      	ldr	r0, [pc, #12]	; (8002528 <__time_to_us+0x20>)
 800251c:	4770      	bx	lr
 800251e:	46c0      	nop			; (mov r8, r8)
 8002520:	00000862 	.word	0x00000862
 8002524:	000f4240 	.word	0x000f4240
 8002528:	7fe95c80 	.word	0x7fe95c80

0800252c <__time_to_ms>:
 800252c:	b510      	push	{r4, lr}
 800252e:	4b08      	ldr	r3, [pc, #32]	; (8002550 <__time_to_ms+0x24>)
 8002530:	6804      	ldr	r4, [r0, #0]
 8002532:	429c      	cmp	r4, r3
 8002534:	d809      	bhi.n	800254a <__time_to_ms+0x1e>
 8002536:	21fa      	movs	r1, #250	; 0xfa
 8002538:	6840      	ldr	r0, [r0, #4]
 800253a:	0089      	lsls	r1, r1, #2
 800253c:	f005 f9f0 	bl	8007920 <__aeabi_uidiv>
 8002540:	23fa      	movs	r3, #250	; 0xfa
 8002542:	009b      	lsls	r3, r3, #2
 8002544:	4363      	muls	r3, r4
 8002546:	18c0      	adds	r0, r0, r3
 8002548:	e000      	b.n	800254c <__time_to_ms+0x20>
 800254a:	4802      	ldr	r0, [pc, #8]	; (8002554 <__time_to_ms+0x28>)
 800254c:	bd10      	pop	{r4, pc}
 800254e:	46c0      	nop			; (mov r8, r8)
 8002550:	0020c49a 	.word	0x0020c49a
 8002554:	7ffff990 	.word	0x7ffff990

08002558 <get_uptime>:
 8002558:	2200      	movs	r2, #0
 800255a:	b508      	push	{r3, lr}
 800255c:	1c01      	adds	r1, r0, #0
 800255e:	1c13      	adds	r3, r2, #0
 8002560:	200c      	movs	r0, #12
 8002562:	f7fd fe39 	bl	80001d8 <svc_call>
 8002566:	bd08      	pop	{r3, pc}

08002568 <__time_compare>:
 8002568:	b510      	push	{r4, lr}
 800256a:	6803      	ldr	r3, [r0, #0]
 800256c:	680c      	ldr	r4, [r1, #0]
 800256e:	1c02      	adds	r2, r0, #0
 8002570:	2001      	movs	r0, #1
 8002572:	429c      	cmp	r4, r3
 8002574:	d80b      	bhi.n	800258e <__time_compare+0x26>
 8002576:	d108      	bne.n	800258a <__time_compare+0x22>
 8002578:	684b      	ldr	r3, [r1, #4]
 800257a:	6852      	ldr	r2, [r2, #4]
 800257c:	4293      	cmp	r3, r2
 800257e:	d806      	bhi.n	800258e <__time_compare+0x26>
 8002580:	1a9b      	subs	r3, r3, r2
 8002582:	1e58      	subs	r0, r3, #1
 8002584:	4183      	sbcs	r3, r0
 8002586:	4258      	negs	r0, r3
 8002588:	e001      	b.n	800258e <__time_compare+0x26>
 800258a:	2001      	movs	r0, #1
 800258c:	4240      	negs	r0, r0
 800258e:	bd10      	pop	{r4, pc}

08002590 <__time_sub>:
 8002590:	b570      	push	{r4, r5, r6, lr}
 8002592:	1c05      	adds	r5, r0, #0
 8002594:	1c0e      	adds	r6, r1, #0
 8002596:	1c14      	adds	r4, r2, #0
 8002598:	f7ff ffe6 	bl	8002568 <__time_compare>
 800259c:	2800      	cmp	r0, #0
 800259e:	dd11      	ble.n	80025c4 <__time_sub+0x34>
 80025a0:	6833      	ldr	r3, [r6, #0]
 80025a2:	682a      	ldr	r2, [r5, #0]
 80025a4:	6869      	ldr	r1, [r5, #4]
 80025a6:	1a9a      	subs	r2, r3, r2
 80025a8:	6873      	ldr	r3, [r6, #4]
 80025aa:	6022      	str	r2, [r4, #0]
 80025ac:	428b      	cmp	r3, r1
 80025ae:	d302      	bcc.n	80025b6 <__time_sub+0x26>
 80025b0:	1a5b      	subs	r3, r3, r1
 80025b2:	6063      	str	r3, [r4, #4]
 80025b4:	e009      	b.n	80025ca <__time_sub+0x3a>
 80025b6:	4805      	ldr	r0, [pc, #20]	; (80025cc <__time_sub+0x3c>)
 80025b8:	3a01      	subs	r2, #1
 80025ba:	181b      	adds	r3, r3, r0
 80025bc:	1a5b      	subs	r3, r3, r1
 80025be:	6063      	str	r3, [r4, #4]
 80025c0:	6022      	str	r2, [r4, #0]
 80025c2:	e002      	b.n	80025ca <__time_sub+0x3a>
 80025c4:	2300      	movs	r3, #0
 80025c6:	6063      	str	r3, [r4, #4]
 80025c8:	6023      	str	r3, [r4, #0]
 80025ca:	bd70      	pop	{r4, r5, r6, pc}
 80025cc:	000f4240 	.word	0x000f4240

080025d0 <__time_elapsed_us>:
 80025d0:	b513      	push	{r0, r1, r4, lr}
 80025d2:	1c04      	adds	r4, r0, #0
 80025d4:	4668      	mov	r0, sp
 80025d6:	f7ff ffbf 	bl	8002558 <get_uptime>
 80025da:	1c20      	adds	r0, r4, #0
 80025dc:	4669      	mov	r1, sp
 80025de:	466a      	mov	r2, sp
 80025e0:	f7ff ffd6 	bl	8002590 <__time_sub>
 80025e4:	4668      	mov	r0, sp
 80025e6:	f7ff ff8f 	bl	8002508 <__time_to_us>
 80025ea:	bd16      	pop	{r1, r2, r4, pc}

080025ec <__time_elapsed_ms>:
 80025ec:	b513      	push	{r0, r1, r4, lr}
 80025ee:	1c04      	adds	r4, r0, #0
 80025f0:	4668      	mov	r0, sp
 80025f2:	f7ff ffb1 	bl	8002558 <get_uptime>
 80025f6:	1c20      	adds	r0, r4, #0
 80025f8:	4669      	mov	r1, sp
 80025fa:	466a      	mov	r2, sp
 80025fc:	f7ff ffc8 	bl	8002590 <__time_sub>
 8002600:	4668      	mov	r0, sp
 8002602:	f7ff ff93 	bl	800252c <__time_to_ms>
 8002606:	bd16      	pop	{r1, r2, r4, pc}

08002608 <__time_elapsed>:
 8002608:	b537      	push	{r0, r1, r2, r4, r5, lr}
 800260a:	1c0c      	adds	r4, r1, #0
 800260c:	1c05      	adds	r5, r0, #0
 800260e:	4668      	mov	r0, sp
 8002610:	f7ff ffa2 	bl	8002558 <get_uptime>
 8002614:	1c28      	adds	r0, r5, #0
 8002616:	4669      	mov	r1, sp
 8002618:	1c22      	adds	r2, r4, #0
 800261a:	f7ff ffb9 	bl	8002590 <__time_sub>
 800261e:	1c20      	adds	r0, r4, #0
 8002620:	bd3e      	pop	{r1, r2, r3, r4, r5, pc}

08002622 <pool_init>:
 8002622:	2303      	movs	r3, #3
 8002624:	3103      	adds	r1, #3
 8002626:	4399      	bics	r1, r3
 8002628:	1d0b      	adds	r3, r1, #4
 800262a:	6083      	str	r3, [r0, #8]
 800262c:	6043      	str	r3, [r0, #4]
 800262e:	2300      	movs	r3, #0
 8002630:	600b      	str	r3, [r1, #0]
 8002632:	6003      	str	r3, [r0, #0]
 8002634:	4770      	bx	lr

08002636 <pool_free>:
 8002636:	b530      	push	{r4, r5, lr}
 8002638:	2900      	cmp	r1, #0
 800263a:	d03c      	beq.n	80026b6 <pool_free+0x80>
 800263c:	2200      	movs	r2, #0
 800263e:	6803      	ldr	r3, [r0, #0]
 8002640:	2b00      	cmp	r3, #0
 8002642:	d004      	beq.n	800264e <pool_free+0x18>
 8002644:	4299      	cmp	r1, r3
 8002646:	d902      	bls.n	800264e <pool_free+0x18>
 8002648:	1c1a      	adds	r2, r3, #0
 800264a:	681b      	ldr	r3, [r3, #0]
 800264c:	e7f8      	b.n	8002640 <pool_free+0xa>
 800264e:	428b      	cmp	r3, r1
 8002650:	d00d      	beq.n	800266e <pool_free+0x38>
 8002652:	1f0c      	subs	r4, r1, #4
 8002654:	6825      	ldr	r5, [r4, #0]
 8002656:	428d      	cmp	r5, r1
 8002658:	d909      	bls.n	800266e <pool_free+0x38>
 800265a:	2b00      	cmp	r3, #0
 800265c:	d001      	beq.n	8002662 <pool_free+0x2c>
 800265e:	429d      	cmp	r5, r3
 8002660:	d805      	bhi.n	800266e <pool_free+0x38>
 8002662:	2a00      	cmp	r2, #0
 8002664:	d00a      	beq.n	800267c <pool_free+0x46>
 8002666:	1f15      	subs	r5, r2, #4
 8002668:	682d      	ldr	r5, [r5, #0]
 800266a:	428d      	cmp	r5, r1
 800266c:	d906      	bls.n	800267c <pool_free+0x46>
 800266e:	2380      	movs	r3, #128	; 0x80
 8002670:	2220      	movs	r2, #32
 8002672:	059b      	lsls	r3, r3, #22
 8002674:	681b      	ldr	r3, [r3, #0]
 8002676:	4252      	negs	r2, r2
 8002678:	601a      	str	r2, [r3, #0]
 800267a:	e01c      	b.n	80026b6 <pool_free+0x80>
 800267c:	600b      	str	r3, [r1, #0]
 800267e:	2a00      	cmp	r2, #0
 8002680:	d00c      	beq.n	800269c <pool_free+0x66>
 8002682:	6011      	str	r1, [r2, #0]
 8002684:	2b00      	cmp	r3, #0
 8002686:	d00f      	beq.n	80026a8 <pool_free+0x72>
 8002688:	6820      	ldr	r0, [r4, #0]
 800268a:	4298      	cmp	r0, r3
 800268c:	d10a      	bne.n	80026a4 <pool_free+0x6e>
 800268e:	1f18      	subs	r0, r3, #4
 8002690:	6800      	ldr	r0, [r0, #0]
 8002692:	6020      	str	r0, [r4, #0]
 8002694:	6818      	ldr	r0, [r3, #0]
 8002696:	6008      	str	r0, [r1, #0]
 8002698:	681b      	ldr	r3, [r3, #0]
 800269a:	e003      	b.n	80026a4 <pool_free+0x6e>
 800269c:	6001      	str	r1, [r0, #0]
 800269e:	2b00      	cmp	r3, #0
 80026a0:	d1f2      	bne.n	8002688 <pool_free+0x52>
 80026a2:	e008      	b.n	80026b6 <pool_free+0x80>
 80026a4:	2a00      	cmp	r2, #0
 80026a6:	d006      	beq.n	80026b6 <pool_free+0x80>
 80026a8:	1f10      	subs	r0, r2, #4
 80026aa:	6805      	ldr	r5, [r0, #0]
 80026ac:	428d      	cmp	r5, r1
 80026ae:	d102      	bne.n	80026b6 <pool_free+0x80>
 80026b0:	6821      	ldr	r1, [r4, #0]
 80026b2:	6001      	str	r1, [r0, #0]
 80026b4:	6013      	str	r3, [r2, #0]
 80026b6:	bd30      	pop	{r4, r5, pc}

080026b8 <grow>:
 80026b8:	6883      	ldr	r3, [r0, #8]
 80026ba:	b570      	push	{r4, r5, r6, lr}
 80026bc:	1f1e      	subs	r6, r3, #4
 80026be:	6832      	ldr	r2, [r6, #0]
 80026c0:	2a00      	cmp	r2, #0
 80026c2:	d004      	beq.n	80026ce <grow+0x16>
 80026c4:	2380      	movs	r3, #128	; 0x80
 80026c6:	059b      	lsls	r3, r3, #22
 80026c8:	681b      	ldr	r3, [r3, #0]
 80026ca:	2220      	movs	r2, #32
 80026cc:	e00a      	b.n	80026e4 <grow+0x2c>
 80026ce:	18c9      	adds	r1, r1, r3
 80026d0:	1d0d      	adds	r5, r1, #4
 80026d2:	429d      	cmp	r5, r3
 80026d4:	d302      	bcc.n	80026dc <grow+0x24>
 80026d6:	466b      	mov	r3, sp
 80026d8:	42ab      	cmp	r3, r5
 80026da:	d807      	bhi.n	80026ec <grow+0x34>
 80026dc:	2380      	movs	r3, #128	; 0x80
 80026de:	221d      	movs	r2, #29
 80026e0:	059b      	lsls	r3, r3, #22
 80026e2:	681b      	ldr	r3, [r3, #0]
 80026e4:	4252      	negs	r2, r2
 80026e6:	601a      	str	r2, [r3, #0]
 80026e8:	2000      	movs	r0, #0
 80026ea:	e007      	b.n	80026fc <grow+0x44>
 80026ec:	1c04      	adds	r4, r0, #0
 80026ee:	6035      	str	r5, [r6, #0]
 80026f0:	600a      	str	r2, [r1, #0]
 80026f2:	68a1      	ldr	r1, [r4, #8]
 80026f4:	f7ff ff9f 	bl	8002636 <pool_free>
 80026f8:	2001      	movs	r0, #1
 80026fa:	60a5      	str	r5, [r4, #8]
 80026fc:	bd70      	pop	{r4, r5, r6, pc}

080026fe <pool_malloc>:
 80026fe:	b5f8      	push	{r3, r4, r5, r6, r7, lr}
 8002700:	2303      	movs	r3, #3
 8002702:	1ccd      	adds	r5, r1, #3
 8002704:	439d      	bics	r5, r3
 8002706:	2900      	cmp	r1, #0
 8002708:	d00b      	beq.n	8002722 <pool_malloc+0x24>
 800270a:	6883      	ldr	r3, [r0, #8]
 800270c:	1c04      	adds	r4, r0, #0
 800270e:	18ea      	adds	r2, r5, r3
 8002710:	2602      	movs	r6, #2
 8002712:	429a      	cmp	r2, r3
 8002714:	d21b      	bcs.n	800274e <pool_malloc+0x50>
 8002716:	2380      	movs	r3, #128	; 0x80
 8002718:	221d      	movs	r2, #29
 800271a:	059b      	lsls	r3, r3, #22
 800271c:	681b      	ldr	r3, [r3, #0]
 800271e:	4252      	negs	r2, r2
 8002720:	601a      	str	r2, [r3, #0]
 8002722:	2000      	movs	r0, #0
 8002724:	e026      	b.n	8002774 <pool_malloc+0x76>
 8002726:	1f03      	subs	r3, r0, #4
 8002728:	681f      	ldr	r7, [r3, #0]
 800272a:	1941      	adds	r1, r0, r5
 800272c:	469c      	mov	ip, r3
 800272e:	1d0b      	adds	r3, r1, #4
 8002730:	42bb      	cmp	r3, r7
 8002732:	d90f      	bls.n	8002754 <pool_malloc+0x56>
 8002734:	1c02      	adds	r2, r0, #0
 8002736:	6800      	ldr	r0, [r0, #0]
 8002738:	2800      	cmp	r0, #0
 800273a:	d1f4      	bne.n	8002726 <pool_malloc+0x28>
 800273c:	1c20      	adds	r0, r4, #0
 800273e:	1c29      	adds	r1, r5, #0
 8002740:	f7ff ffba 	bl	80026b8 <grow>
 8002744:	2800      	cmp	r0, #0
 8002746:	d0ec      	beq.n	8002722 <pool_malloc+0x24>
 8002748:	2e01      	cmp	r6, #1
 800274a:	d0ea      	beq.n	8002722 <pool_malloc+0x24>
 800274c:	2601      	movs	r6, #1
 800274e:	6820      	ldr	r0, [r4, #0]
 8002750:	2200      	movs	r2, #0
 8002752:	e7f1      	b.n	8002738 <pool_malloc+0x3a>
 8002754:	1c0d      	adds	r5, r1, #0
 8002756:	350c      	adds	r5, #12
 8002758:	42bd      	cmp	r5, r7
 800275a:	d805      	bhi.n	8002768 <pool_malloc+0x6a>
 800275c:	600f      	str	r7, [r1, #0]
 800275e:	4661      	mov	r1, ip
 8002760:	600b      	str	r3, [r1, #0]
 8002762:	6801      	ldr	r1, [r0, #0]
 8002764:	6019      	str	r1, [r3, #0]
 8002766:	6003      	str	r3, [r0, #0]
 8002768:	6803      	ldr	r3, [r0, #0]
 800276a:	2a00      	cmp	r2, #0
 800276c:	d001      	beq.n	8002772 <pool_malloc+0x74>
 800276e:	6013      	str	r3, [r2, #0]
 8002770:	e000      	b.n	8002774 <pool_malloc+0x76>
 8002772:	6023      	str	r3, [r4, #0]
 8002774:	bdf8      	pop	{r3, r4, r5, r6, r7, pc}

08002776 <pool_realloc>:
 8002776:	2303      	movs	r3, #3
 8002778:	b5f0      	push	{r4, r5, r6, r7, lr}
 800277a:	1cd7      	adds	r7, r2, #3
 800277c:	b085      	sub	sp, #20
 800277e:	1c04      	adds	r4, r0, #0
 8002780:	1c0d      	adds	r5, r1, #0
 8002782:	9203      	str	r2, [sp, #12]
 8002784:	439f      	bics	r7, r3
 8002786:	2900      	cmp	r1, #0
 8002788:	d104      	bne.n	8002794 <pool_realloc+0x1e>
 800278a:	1c39      	adds	r1, r7, #0
 800278c:	f7ff ffb7 	bl	80026fe <pool_malloc>
 8002790:	1c07      	adds	r7, r0, #0
 8002792:	e050      	b.n	8002836 <pool_realloc+0xc0>
 8002794:	1f0b      	subs	r3, r1, #4
 8002796:	9300      	str	r3, [sp, #0]
 8002798:	681e      	ldr	r6, [r3, #0]
 800279a:	2302      	movs	r3, #2
 800279c:	9302      	str	r3, [sp, #8]
 800279e:	2f00      	cmp	r7, #0
 80027a0:	d045      	beq.n	800282e <pool_realloc+0xb8>
 80027a2:	2200      	movs	r2, #0
 80027a4:	6823      	ldr	r3, [r4, #0]
 80027a6:	2b00      	cmp	r3, #0
 80027a8:	d014      	beq.n	80027d4 <pool_realloc+0x5e>
 80027aa:	42b3      	cmp	r3, r6
 80027ac:	d812      	bhi.n	80027d4 <pool_realloc+0x5e>
 80027ae:	d10e      	bne.n	80027ce <pool_realloc+0x58>
 80027b0:	1f19      	subs	r1, r3, #4
 80027b2:	6809      	ldr	r1, [r1, #0]
 80027b4:	9101      	str	r1, [sp, #4]
 80027b6:	9801      	ldr	r0, [sp, #4]
 80027b8:	9900      	ldr	r1, [sp, #0]
 80027ba:	6008      	str	r0, [r1, #0]
 80027bc:	681b      	ldr	r3, [r3, #0]
 80027be:	2a00      	cmp	r2, #0
 80027c0:	d001      	beq.n	80027c6 <pool_realloc+0x50>
 80027c2:	6013      	str	r3, [r2, #0]
 80027c4:	e000      	b.n	80027c8 <pool_realloc+0x52>
 80027c6:	6023      	str	r3, [r4, #0]
 80027c8:	9b00      	ldr	r3, [sp, #0]
 80027ca:	681e      	ldr	r6, [r3, #0]
 80027cc:	e002      	b.n	80027d4 <pool_realloc+0x5e>
 80027ce:	1c1a      	adds	r2, r3, #0
 80027d0:	681b      	ldr	r3, [r3, #0]
 80027d2:	e7e8      	b.n	80027a6 <pool_realloc+0x30>
 80027d4:	1b73      	subs	r3, r6, r5
 80027d6:	3b04      	subs	r3, #4
 80027d8:	9301      	str	r3, [sp, #4]
 80027da:	429f      	cmp	r7, r3
 80027dc:	d804      	bhi.n	80027e8 <pool_realloc+0x72>
 80027de:	19eb      	adds	r3, r5, r7
 80027e0:	1d19      	adds	r1, r3, #4
 80027e2:	42b1      	cmp	r1, r6
 80027e4:	d910      	bls.n	8002808 <pool_realloc+0x92>
 80027e6:	e018      	b.n	800281a <pool_realloc+0xa4>
 80027e8:	68a3      	ldr	r3, [r4, #8]
 80027ea:	429e      	cmp	r6, r3
 80027ec:	d1f7      	bne.n	80027de <pool_realloc+0x68>
 80027ee:	9b01      	ldr	r3, [sp, #4]
 80027f0:	1c20      	adds	r0, r4, #0
 80027f2:	1af9      	subs	r1, r7, r3
 80027f4:	f7ff ff60 	bl	80026b8 <grow>
 80027f8:	2800      	cmp	r0, #0
 80027fa:	d0f0      	beq.n	80027de <pool_realloc+0x68>
 80027fc:	9b02      	ldr	r3, [sp, #8]
 80027fe:	2b01      	cmp	r3, #1
 8002800:	d0ed      	beq.n	80027de <pool_realloc+0x68>
 8002802:	2301      	movs	r3, #1
 8002804:	9302      	str	r3, [sp, #8]
 8002806:	e7cc      	b.n	80027a2 <pool_realloc+0x2c>
 8002808:	1a72      	subs	r2, r6, r1
 800280a:	1c2f      	adds	r7, r5, #0
 800280c:	2a07      	cmp	r2, #7
 800280e:	d912      	bls.n	8002836 <pool_realloc+0xc0>
 8002810:	601e      	str	r6, [r3, #0]
 8002812:	9b00      	ldr	r3, [sp, #0]
 8002814:	1c20      	adds	r0, r4, #0
 8002816:	6019      	str	r1, [r3, #0]
 8002818:	e00b      	b.n	8002832 <pool_realloc+0xbc>
 800281a:	1c20      	adds	r0, r4, #0
 800281c:	9903      	ldr	r1, [sp, #12]
 800281e:	f7ff ff6e 	bl	80026fe <pool_malloc>
 8002822:	1e07      	subs	r7, r0, #0
 8002824:	d007      	beq.n	8002836 <pool_realloc+0xc0>
 8002826:	1c29      	adds	r1, r5, #0
 8002828:	9a01      	ldr	r2, [sp, #4]
 800282a:	f005 fa19 	bl	8007c60 <memcpy>
 800282e:	1c20      	adds	r0, r4, #0
 8002830:	1c29      	adds	r1, r5, #0
 8002832:	f7ff ff00 	bl	8002636 <pool_free>
 8002836:	1c38      	adds	r0, r7, #0
 8002838:	b005      	add	sp, #20
 800283a:	bdf0      	pop	{r4, r5, r6, r7, pc}

0800283c <pool_free_ptr>:
 800283c:	6880      	ldr	r0, [r0, #8]
 800283e:	3004      	adds	r0, #4
 8002840:	4770      	bx	lr

08002842 <pool_check>:
 8002842:	b530      	push	{r4, r5, lr}
 8002844:	6844      	ldr	r4, [r0, #4]
 8002846:	2c00      	cmp	r4, #0
 8002848:	d028      	beq.n	800289c <pool_check+0x5a>
 800284a:	6882      	ldr	r2, [r0, #8]
 800284c:	2a00      	cmp	r2, #0
 800284e:	d025      	beq.n	800289c <pool_check+0x5a>
 8002850:	4294      	cmp	r4, r2
 8002852:	d823      	bhi.n	800289c <pool_check+0x5a>
 8002854:	6803      	ldr	r3, [r0, #0]
 8002856:	4293      	cmp	r3, r2
 8002858:	d820      	bhi.n	800289c <pool_check+0x5a>
 800285a:	1f10      	subs	r0, r2, #4
 800285c:	6800      	ldr	r0, [r0, #0]
 800285e:	2800      	cmp	r0, #0
 8002860:	d11c      	bne.n	800289c <pool_check+0x5a>
 8002862:	1c05      	adds	r5, r0, #0
 8002864:	4291      	cmp	r1, r2
 8002866:	d20e      	bcs.n	8002886 <pool_check+0x44>
 8002868:	2380      	movs	r3, #128	; 0x80
 800286a:	221d      	movs	r2, #29
 800286c:	059b      	lsls	r3, r3, #22
 800286e:	681b      	ldr	r3, [r3, #0]
 8002870:	4252      	negs	r2, r2
 8002872:	601a      	str	r2, [r3, #0]
 8002874:	e01b      	b.n	80028ae <pool_check+0x6c>
 8002876:	4294      	cmp	r4, r2
 8002878:	d810      	bhi.n	800289c <pool_check+0x5a>
 800287a:	1f21      	subs	r1, r4, #4
 800287c:	6809      	ldr	r1, [r1, #0]
 800287e:	1c25      	adds	r5, r4, #0
 8002880:	2900      	cmp	r1, #0
 8002882:	d007      	beq.n	8002894 <pool_check+0x52>
 8002884:	1c0c      	adds	r4, r1, #0
 8002886:	42a5      	cmp	r5, r4
 8002888:	d9f5      	bls.n	8002876 <pool_check+0x34>
 800288a:	e007      	b.n	800289c <pool_check+0x5a>
 800288c:	4293      	cmp	r3, r2
 800288e:	d805      	bhi.n	800289c <pool_check+0x5a>
 8002890:	1c19      	adds	r1, r3, #0
 8002892:	681b      	ldr	r3, [r3, #0]
 8002894:	2b00      	cmp	r3, #0
 8002896:	d009      	beq.n	80028ac <pool_check+0x6a>
 8002898:	4299      	cmp	r1, r3
 800289a:	d9f7      	bls.n	800288c <pool_check+0x4a>
 800289c:	2380      	movs	r3, #128	; 0x80
 800289e:	2220      	movs	r2, #32
 80028a0:	059b      	lsls	r3, r3, #22
 80028a2:	681b      	ldr	r3, [r3, #0]
 80028a4:	4252      	negs	r2, r2
 80028a6:	601a      	str	r2, [r3, #0]
 80028a8:	2000      	movs	r0, #0
 80028aa:	e000      	b.n	80028ae <pool_check+0x6c>
 80028ac:	2001      	movs	r0, #1
 80028ae:	bd30      	pop	{r4, r5, pc}

080028b0 <pool_stat>:
 80028b0:	b570      	push	{r4, r5, r6, lr}
 80028b2:	1c06      	adds	r6, r0, #0
 80028b4:	1c15      	adds	r5, r2, #0
 80028b6:	1c08      	adds	r0, r1, #0
 80028b8:	2214      	movs	r2, #20
 80028ba:	1c0c      	adds	r4, r1, #0
 80028bc:	2100      	movs	r1, #0
 80028be:	f005 fa59 	bl	8007d74 <memset>
 80028c2:	1c30      	adds	r0, r6, #0
 80028c4:	1c29      	adds	r1, r5, #0
 80028c6:	f7ff ffbc 	bl	8002842 <pool_check>
 80028ca:	68b2      	ldr	r2, [r6, #8]
 80028cc:	2800      	cmp	r0, #0
 80028ce:	d104      	bne.n	80028da <pool_stat+0x2a>
 80028d0:	1c13      	adds	r3, r2, #0
 80028d2:	330c      	adds	r3, #12
 80028d4:	429d      	cmp	r5, r3
 80028d6:	d21e      	bcs.n	8002916 <pool_stat+0x66>
 80028d8:	e029      	b.n	800292e <pool_stat+0x7e>
 80028da:	6831      	ldr	r1, [r6, #0]
 80028dc:	6876      	ldr	r6, [r6, #4]
 80028de:	4296      	cmp	r6, r2
 80028e0:	d0f6      	beq.n	80028d0 <pool_stat+0x20>
 80028e2:	1f33      	subs	r3, r6, #4
 80028e4:	6818      	ldr	r0, [r3, #0]
 80028e6:	1b83      	subs	r3, r0, r6
 80028e8:	3b04      	subs	r3, #4
 80028ea:	428e      	cmp	r6, r1
 80028ec:	d10b      	bne.n	8002906 <pool_stat+0x56>
 80028ee:	6821      	ldr	r1, [r4, #0]
 80028f0:	3101      	adds	r1, #1
 80028f2:	6021      	str	r1, [r4, #0]
 80028f4:	6921      	ldr	r1, [r4, #16]
 80028f6:	428b      	cmp	r3, r1
 80028f8:	d900      	bls.n	80028fc <pool_stat+0x4c>
 80028fa:	6123      	str	r3, [r4, #16]
 80028fc:	68a1      	ldr	r1, [r4, #8]
 80028fe:	18cb      	adds	r3, r1, r3
 8002900:	60a3      	str	r3, [r4, #8]
 8002902:	6831      	ldr	r1, [r6, #0]
 8002904:	e005      	b.n	8002912 <pool_stat+0x62>
 8002906:	6866      	ldr	r6, [r4, #4]
 8002908:	3601      	adds	r6, #1
 800290a:	6066      	str	r6, [r4, #4]
 800290c:	68e6      	ldr	r6, [r4, #12]
 800290e:	18f3      	adds	r3, r6, r3
 8002910:	60e3      	str	r3, [r4, #12]
 8002912:	1c06      	adds	r6, r0, #0
 8002914:	e7e3      	b.n	80028de <pool_stat+0x2e>
 8002916:	6823      	ldr	r3, [r4, #0]
 8002918:	1aad      	subs	r5, r5, r2
 800291a:	3301      	adds	r3, #1
 800291c:	6023      	str	r3, [r4, #0]
 800291e:	6923      	ldr	r3, [r4, #16]
 8002920:	3d08      	subs	r5, #8
 8002922:	429d      	cmp	r5, r3
 8002924:	d900      	bls.n	8002928 <pool_stat+0x78>
 8002926:	6125      	str	r5, [r4, #16]
 8002928:	68a3      	ldr	r3, [r4, #8]
 800292a:	195d      	adds	r5, r3, r5
 800292c:	60a5      	str	r5, [r4, #8]
 800292e:	bd70      	pop	{r4, r5, r6, pc}

08002930 <pad_spaces>:
 8002930:	b570      	push	{r4, r5, r6, lr}
 8002932:	1c04      	adds	r4, r0, #0
 8002934:	1c0d      	adds	r5, r1, #0
 8002936:	1c16      	adds	r6, r2, #0
 8002938:	2c0a      	cmp	r4, #10
 800293a:	dd05      	ble.n	8002948 <pad_spaces+0x18>
 800293c:	4806      	ldr	r0, [pc, #24]	; (8002958 <pad_spaces+0x28>)
 800293e:	210a      	movs	r1, #10
 8002940:	1c32      	adds	r2, r6, #0
 8002942:	47a8      	blx	r5
 8002944:	3c0a      	subs	r4, #10
 8002946:	e7f7      	b.n	8002938 <pad_spaces+0x8>
 8002948:	2c00      	cmp	r4, #0
 800294a:	dd03      	ble.n	8002954 <pad_spaces+0x24>
 800294c:	4802      	ldr	r0, [pc, #8]	; (8002958 <pad_spaces+0x28>)
 800294e:	1c21      	adds	r1, r4, #0
 8002950:	1c32      	adds	r2, r6, #0
 8002952:	47a8      	blx	r5
 8002954:	bd70      	pop	{r4, r5, r6, pc}
 8002956:	46c0      	nop			; (mov r8, r8)
 8002958:	0800843b 	.word	0x0800843b

0800295c <pad_zeroes>:
 800295c:	b570      	push	{r4, r5, r6, lr}
 800295e:	1c04      	adds	r4, r0, #0
 8002960:	1c0d      	adds	r5, r1, #0
 8002962:	1c16      	adds	r6, r2, #0
 8002964:	2c0a      	cmp	r4, #10
 8002966:	dd05      	ble.n	8002974 <pad_zeroes+0x18>
 8002968:	4806      	ldr	r0, [pc, #24]	; (8002984 <pad_zeroes+0x28>)
 800296a:	210a      	movs	r1, #10
 800296c:	1c32      	adds	r2, r6, #0
 800296e:	47a8      	blx	r5
 8002970:	3c0a      	subs	r4, #10
 8002972:	e7f7      	b.n	8002964 <pad_zeroes+0x8>
 8002974:	2c00      	cmp	r4, #0
 8002976:	dd03      	ble.n	8002980 <pad_zeroes+0x24>
 8002978:	4802      	ldr	r0, [pc, #8]	; (8002984 <pad_zeroes+0x28>)
 800297a:	1c21      	adds	r1, r4, #0
 800297c:	1c32      	adds	r2, r6, #0
 800297e:	47a8      	blx	r5
 8002980:	bd70      	pop	{r4, r5, r6, pc}
 8002982:	46c0      	nop			; (mov r8, r8)
 8002984:	08008424 	.word	0x08008424

08002988 <sprintf_handler>:
 8002988:	b538      	push	{r3, r4, r5, lr}
 800298a:	1c03      	adds	r3, r0, #0
 800298c:	1c0c      	adds	r4, r1, #0
 800298e:	1c15      	adds	r5, r2, #0
 8002990:	1c19      	adds	r1, r3, #0
 8002992:	6810      	ldr	r0, [r2, #0]
 8002994:	1c22      	adds	r2, r4, #0
 8002996:	f005 f963 	bl	8007c60 <memcpy>
 800299a:	682b      	ldr	r3, [r5, #0]
 800299c:	191c      	adds	r4, r3, r4
 800299e:	602c      	str	r4, [r5, #0]
 80029a0:	bd38      	pop	{r3, r4, r5, pc}

080029a2 <__atou>:
 80029a2:	b530      	push	{r4, r5, lr}
 80029a4:	2300      	movs	r3, #0
 80029a6:	1c04      	adds	r4, r0, #0
 80029a8:	1a22      	subs	r2, r4, r0
 80029aa:	428a      	cmp	r2, r1
 80029ac:	da0a      	bge.n	80029c4 <__atou+0x22>
 80029ae:	7825      	ldrb	r5, [r4, #0]
 80029b0:	3401      	adds	r4, #1
 80029b2:	1c2a      	adds	r2, r5, #0
 80029b4:	3a30      	subs	r2, #48	; 0x30
 80029b6:	2a09      	cmp	r2, #9
 80029b8:	d804      	bhi.n	80029c4 <__atou+0x22>
 80029ba:	220a      	movs	r2, #10
 80029bc:	4353      	muls	r3, r2
 80029be:	3b30      	subs	r3, #48	; 0x30
 80029c0:	195b      	adds	r3, r3, r5
 80029c2:	e7f1      	b.n	80029a8 <__atou+0x6>
 80029c4:	1c18      	adds	r0, r3, #0
 80029c6:	bd30      	pop	{r4, r5, pc}

080029c8 <__utoa>:
 80029c8:	b5f7      	push	{r0, r1, r2, r4, r5, r6, r7, lr}
 80029ca:	1c05      	adds	r5, r0, #0
 80029cc:	1e0e      	subs	r6, r1, #0
 80029ce:	9200      	str	r2, [sp, #0]
 80029d0:	9301      	str	r3, [sp, #4]
 80029d2:	d01e      	beq.n	8002a12 <__utoa+0x4a>
 80029d4:	1c07      	adds	r7, r0, #0
 80029d6:	370a      	adds	r7, #10
 80029d8:	1c30      	adds	r0, r6, #0
 80029da:	9900      	ldr	r1, [sp, #0]
 80029dc:	f005 f826 	bl	8007a2c <__aeabi_uidivmod>
 80029e0:	b2c9      	uxtb	r1, r1
 80029e2:	1c0b      	adds	r3, r1, #0
 80029e4:	3330      	adds	r3, #48	; 0x30
 80029e6:	b2db      	uxtb	r3, r3
 80029e8:	2909      	cmp	r1, #9
 80029ea:	d906      	bls.n	80029fa <__utoa+0x32>
 80029ec:	9a01      	ldr	r2, [sp, #4]
 80029ee:	2337      	movs	r3, #55	; 0x37
 80029f0:	2a00      	cmp	r2, #0
 80029f2:	d100      	bne.n	80029f6 <__utoa+0x2e>
 80029f4:	3320      	adds	r3, #32
 80029f6:	1859      	adds	r1, r3, r1
 80029f8:	b2cb      	uxtb	r3, r1
 80029fa:	703b      	strb	r3, [r7, #0]
 80029fc:	1c30      	adds	r0, r6, #0
 80029fe:	9900      	ldr	r1, [sp, #0]
 8002a00:	f004 ff8e 	bl	8007920 <__aeabi_uidiv>
 8002a04:	1bec      	subs	r4, r5, r7
 8002a06:	340b      	adds	r4, #11
 8002a08:	1c06      	adds	r6, r0, #0
 8002a0a:	3f01      	subs	r7, #1
 8002a0c:	2800      	cmp	r0, #0
 8002a0e:	d1e3      	bne.n	80029d8 <__utoa+0x10>
 8002a10:	e002      	b.n	8002a18 <__utoa+0x50>
 8002a12:	2330      	movs	r3, #48	; 0x30
 8002a14:	2401      	movs	r4, #1
 8002a16:	7283      	strb	r3, [r0, #10]
 8002a18:	1b29      	subs	r1, r5, r4
 8002a1a:	1c28      	adds	r0, r5, #0
 8002a1c:	310b      	adds	r1, #11
 8002a1e:	1c22      	adds	r2, r4, #0
 8002a20:	f005 f95c 	bl	8007cdc <memmove>
 8002a24:	1c20      	adds	r0, r4, #0
 8002a26:	bdfe      	pop	{r1, r2, r3, r4, r5, r6, r7, pc}

08002a28 <size_in_bytes>:
 8002a28:	4a0f      	ldr	r2, [pc, #60]	; (8002a68 <size_in_bytes+0x40>)
 8002a2a:	b538      	push	{r3, r4, r5, lr}
 8002a2c:	1c03      	adds	r3, r0, #0
 8002a2e:	1c0c      	adds	r4, r1, #0
 8002a30:	2500      	movs	r5, #0
 8002a32:	4290      	cmp	r0, r2
 8002a34:	d905      	bls.n	8002a42 <size_in_bytes+0x1a>
 8002a36:	0a83      	lsrs	r3, r0, #10
 8002a38:	3501      	adds	r5, #1
 8002a3a:	4293      	cmp	r3, r2
 8002a3c:	d901      	bls.n	8002a42 <size_in_bytes+0x1a>
 8002a3e:	0a9b      	lsrs	r3, r3, #10
 8002a40:	3501      	adds	r5, #1
 8002a42:	1c19      	adds	r1, r3, #0
 8002a44:	1c20      	adds	r0, r4, #0
 8002a46:	220a      	movs	r2, #10
 8002a48:	2300      	movs	r3, #0
 8002a4a:	f7ff ffbd 	bl	80029c8 <__utoa>
 8002a4e:	2d00      	cmp	r5, #0
 8002a50:	d006      	beq.n	8002a60 <size_in_bytes+0x38>
 8002a52:	4a06      	ldr	r2, [pc, #24]	; (8002a6c <size_in_bytes+0x44>)
 8002a54:	1c43      	adds	r3, r0, #1
 8002a56:	5d52      	ldrb	r2, [r2, r5]
 8002a58:	5422      	strb	r2, [r4, r0]
 8002a5a:	2242      	movs	r2, #66	; 0x42
 8002a5c:	3002      	adds	r0, #2
 8002a5e:	54e2      	strb	r2, [r4, r3]
 8002a60:	2300      	movs	r3, #0
 8002a62:	5423      	strb	r3, [r4, r0]
 8002a64:	bd38      	pop	{r3, r4, r5, pc}
 8002a66:	46c0      	nop			; (mov r8, r8)
 8002a68:	0000270e 	.word	0x0000270e
 8002a6c:	0800842d 	.word	0x0800842d

08002a70 <__format>:
 8002a70:	b5f0      	push	{r4, r5, r6, r7, lr}
 8002a72:	b08f      	sub	sp, #60	; 0x3c
 8002a74:	9303      	str	r3, [sp, #12]
 8002a76:	2300      	movs	r3, #0
 8002a78:	1c0c      	adds	r4, r1, #0
 8002a7a:	1c1d      	adds	r5, r3, #0
 8002a7c:	1c1f      	adds	r7, r3, #0
 8002a7e:	9005      	str	r0, [sp, #20]
 8002a80:	9202      	str	r2, [sp, #8]
 8002a82:	9307      	str	r3, [sp, #28]
 8002a84:	9b05      	ldr	r3, [sp, #20]
 8002a86:	5d5b      	ldrb	r3, [r3, r5]
 8002a88:	2b00      	cmp	r3, #0
 8002a8a:	d100      	bne.n	8002a8e <__format+0x1e>
 8002a8c:	e1bc      	b.n	8002e08 <__format+0x398>
 8002a8e:	1c69      	adds	r1, r5, #1
 8002a90:	2b25      	cmp	r3, #37	; 0x25
 8002a92:	d000      	beq.n	8002a96 <__format+0x26>
 8002a94:	e1b4      	b.n	8002e00 <__format+0x390>
 8002a96:	9b05      	ldr	r3, [sp, #20]
 8002a98:	1c0e      	adds	r6, r1, #0
 8002a9a:	5c5b      	ldrb	r3, [r3, r1]
 8002a9c:	2b25      	cmp	r3, #37	; 0x25
 8002a9e:	d109      	bne.n	8002ab4 <__format+0x44>
 8002aa0:	9b05      	ldr	r3, [sp, #20]
 8002aa2:	1bc9      	subs	r1, r1, r7
 8002aa4:	19d8      	adds	r0, r3, r7
 8002aa6:	9a03      	ldr	r2, [sp, #12]
 8002aa8:	9b02      	ldr	r3, [sp, #8]
 8002aaa:	1caf      	adds	r7, r5, #2
 8002aac:	4798      	blx	r3
 8002aae:	1c3d      	adds	r5, r7, #0
 8002ab0:	9406      	str	r4, [sp, #24]
 8002ab2:	e1a7      	b.n	8002e04 <__format+0x394>
 8002ab4:	42bd      	cmp	r5, r7
 8002ab6:	d905      	bls.n	8002ac4 <__format+0x54>
 8002ab8:	9b05      	ldr	r3, [sp, #20]
 8002aba:	1be9      	subs	r1, r5, r7
 8002abc:	19d8      	adds	r0, r3, r7
 8002abe:	9a03      	ldr	r2, [sp, #12]
 8002ac0:	9b02      	ldr	r3, [sp, #8]
 8002ac2:	4798      	blx	r3
 8002ac4:	2501      	movs	r5, #1
 8002ac6:	9b05      	ldr	r3, [sp, #20]
 8002ac8:	1998      	adds	r0, r3, r6
 8002aca:	7803      	ldrb	r3, [r0, #0]
 8002acc:	2b00      	cmp	r3, #0
 8002ace:	d024      	beq.n	8002b1a <__format+0xaa>
 8002ad0:	07ea      	lsls	r2, r5, #31
 8002ad2:	d519      	bpl.n	8002b08 <__format+0x98>
 8002ad4:	2b2b      	cmp	r3, #43	; 0x2b
 8002ad6:	d00e      	beq.n	8002af6 <__format+0x86>
 8002ad8:	d805      	bhi.n	8002ae6 <__format+0x76>
 8002ada:	2b20      	cmp	r3, #32
 8002adc:	d00d      	beq.n	8002afa <__format+0x8a>
 8002ade:	2b23      	cmp	r3, #35	; 0x23
 8002ae0:	d10f      	bne.n	8002b02 <__format+0x92>
 8002ae2:	2310      	movs	r3, #16
 8002ae4:	e00a      	b.n	8002afc <__format+0x8c>
 8002ae6:	2b2d      	cmp	r3, #45	; 0x2d
 8002ae8:	d003      	beq.n	8002af2 <__format+0x82>
 8002aea:	2b30      	cmp	r3, #48	; 0x30
 8002aec:	d109      	bne.n	8002b02 <__format+0x92>
 8002aee:	2320      	movs	r3, #32
 8002af0:	e004      	b.n	8002afc <__format+0x8c>
 8002af2:	2302      	movs	r3, #2
 8002af4:	e002      	b.n	8002afc <__format+0x8c>
 8002af6:	2304      	movs	r3, #4
 8002af8:	e000      	b.n	8002afc <__format+0x8c>
 8002afa:	2308      	movs	r3, #8
 8002afc:	431d      	orrs	r5, r3
 8002afe:	3601      	adds	r6, #1
 8002b00:	e7e1      	b.n	8002ac6 <__format+0x56>
 8002b02:	2301      	movs	r3, #1
 8002b04:	439d      	bics	r5, r3
 8002b06:	e7de      	b.n	8002ac6 <__format+0x56>
 8002b08:	1c37      	adds	r7, r6, #0
 8002b0a:	9501      	str	r5, [sp, #4]
 8002b0c:	2b2a      	cmp	r3, #42	; 0x2a
 8002b0e:	d106      	bne.n	8002b1e <__format+0xae>
 8002b10:	6823      	ldr	r3, [r4, #0]
 8002b12:	3701      	adds	r7, #1
 8002b14:	9304      	str	r3, [sp, #16]
 8002b16:	3404      	adds	r4, #4
 8002b18:	e010      	b.n	8002b3c <__format+0xcc>
 8002b1a:	1c37      	adds	r7, r6, #0
 8002b1c:	9501      	str	r5, [sp, #4]
 8002b1e:	9b05      	ldr	r3, [sp, #20]
 8002b20:	5ddb      	ldrb	r3, [r3, r7]
 8002b22:	3b30      	subs	r3, #48	; 0x30
 8002b24:	2b09      	cmp	r3, #9
 8002b26:	d801      	bhi.n	8002b2c <__format+0xbc>
 8002b28:	3701      	adds	r7, #1
 8002b2a:	e7f8      	b.n	8002b1e <__format+0xae>
 8002b2c:	2300      	movs	r3, #0
 8002b2e:	9304      	str	r3, [sp, #16]
 8002b30:	42b7      	cmp	r7, r6
 8002b32:	d903      	bls.n	8002b3c <__format+0xcc>
 8002b34:	1bb9      	subs	r1, r7, r6
 8002b36:	f7ff ff34 	bl	80029a2 <__atou>
 8002b3a:	9004      	str	r0, [sp, #16]
 8002b3c:	9b05      	ldr	r3, [sp, #20]
 8002b3e:	2601      	movs	r6, #1
 8002b40:	5ddb      	ldrb	r3, [r3, r7]
 8002b42:	2b2e      	cmp	r3, #46	; 0x2e
 8002b44:	d119      	bne.n	8002b7a <__format+0x10a>
 8002b46:	9a05      	ldr	r2, [sp, #20]
 8002b48:	19bb      	adds	r3, r7, r6
 8002b4a:	18d0      	adds	r0, r2, r3
 8002b4c:	7802      	ldrb	r2, [r0, #0]
 8002b4e:	2a2a      	cmp	r2, #42	; 0x2a
 8002b50:	d001      	beq.n	8002b56 <__format+0xe6>
 8002b52:	1c1f      	adds	r7, r3, #0
 8002b54:	e003      	b.n	8002b5e <__format+0xee>
 8002b56:	6826      	ldr	r6, [r4, #0]
 8002b58:	3702      	adds	r7, #2
 8002b5a:	3404      	adds	r4, #4
 8002b5c:	e00d      	b.n	8002b7a <__format+0x10a>
 8002b5e:	9a05      	ldr	r2, [sp, #20]
 8002b60:	5dd2      	ldrb	r2, [r2, r7]
 8002b62:	3a30      	subs	r2, #48	; 0x30
 8002b64:	2a09      	cmp	r2, #9
 8002b66:	d801      	bhi.n	8002b6c <__format+0xfc>
 8002b68:	3701      	adds	r7, #1
 8002b6a:	e7f8      	b.n	8002b5e <__format+0xee>
 8002b6c:	2601      	movs	r6, #1
 8002b6e:	429f      	cmp	r7, r3
 8002b70:	d903      	bls.n	8002b7a <__format+0x10a>
 8002b72:	1af9      	subs	r1, r7, r3
 8002b74:	f7ff ff15 	bl	80029a2 <__atou>
 8002b78:	1c06      	adds	r6, r0, #0
 8002b7a:	9b05      	ldr	r3, [sp, #20]
 8002b7c:	5dda      	ldrb	r2, [r3, r7]
 8002b7e:	1c7b      	adds	r3, r7, #1
 8002b80:	2a68      	cmp	r2, #104	; 0x68
 8002b82:	d002      	beq.n	8002b8a <__format+0x11a>
 8002b84:	2a6c      	cmp	r2, #108	; 0x6c
 8002b86:	d003      	beq.n	8002b90 <__format+0x120>
 8002b88:	e003      	b.n	8002b92 <__format+0x122>
 8002b8a:	2240      	movs	r2, #64	; 0x40
 8002b8c:	432a      	orrs	r2, r5
 8002b8e:	9201      	str	r2, [sp, #4]
 8002b90:	1c1f      	adds	r7, r3, #0
 8002b92:	9b05      	ldr	r3, [sp, #20]
 8002b94:	19db      	adds	r3, r3, r7
 8002b96:	9308      	str	r3, [sp, #32]
 8002b98:	781b      	ldrb	r3, [r3, #0]
 8002b9a:	2b69      	cmp	r3, #105	; 0x69
 8002b9c:	d031      	beq.n	8002c02 <__format+0x192>
 8002b9e:	d80b      	bhi.n	8002bb8 <__format+0x148>
 8002ba0:	2b62      	cmp	r3, #98	; 0x62
 8002ba2:	d100      	bne.n	8002ba6 <__format+0x136>
 8002ba4:	e0b0      	b.n	8002d08 <__format+0x298>
 8002ba6:	d802      	bhi.n	8002bae <__format+0x13e>
 8002ba8:	2b58      	cmp	r3, #88	; 0x58
 8002baa:	d070      	beq.n	8002c8e <__format+0x21e>
 8002bac:	e0bf      	b.n	8002d2e <__format+0x2be>
 8002bae:	2b63      	cmp	r3, #99	; 0x63
 8002bb0:	d00e      	beq.n	8002bd0 <__format+0x160>
 8002bb2:	2b64      	cmp	r3, #100	; 0x64
 8002bb4:	d025      	beq.n	8002c02 <__format+0x192>
 8002bb6:	e0ba      	b.n	8002d2e <__format+0x2be>
 8002bb8:	2b73      	cmp	r3, #115	; 0x73
 8002bba:	d011      	beq.n	8002be0 <__format+0x170>
 8002bbc:	d803      	bhi.n	8002bc6 <__format+0x156>
 8002bbe:	2b6f      	cmp	r3, #111	; 0x6f
 8002bc0:	d100      	bne.n	8002bc4 <__format+0x154>
 8002bc2:	e083      	b.n	8002ccc <__format+0x25c>
 8002bc4:	e0b3      	b.n	8002d2e <__format+0x2be>
 8002bc6:	2b75      	cmp	r3, #117	; 0x75
 8002bc8:	d04b      	beq.n	8002c62 <__format+0x1f2>
 8002bca:	2b78      	cmp	r3, #120	; 0x78
 8002bcc:	d05f      	beq.n	8002c8e <__format+0x21e>
 8002bce:	e0ae      	b.n	8002d2e <__format+0x2be>
 8002bd0:	1d23      	adds	r3, r4, #4
 8002bd2:	6822      	ldr	r2, [r4, #0]
 8002bd4:	9306      	str	r3, [sp, #24]
 8002bd6:	ab0a      	add	r3, sp, #40	; 0x28
 8002bd8:	70da      	strb	r2, [r3, #3]
 8002bda:	2401      	movs	r4, #1
 8002bdc:	2500      	movs	r5, #0
 8002bde:	e0a9      	b.n	8002d34 <__format+0x2c4>
 8002be0:	1d23      	adds	r3, r4, #4
 8002be2:	9306      	str	r3, [sp, #24]
 8002be4:	6823      	ldr	r3, [r4, #0]
 8002be6:	2500      	movs	r5, #0
 8002be8:	1c18      	adds	r0, r3, #0
 8002bea:	9307      	str	r3, [sp, #28]
 8002bec:	f005 f908 	bl	8007e00 <strlen>
 8002bf0:	1c04      	adds	r4, r0, #0
 8002bf2:	2e01      	cmp	r6, #1
 8002bf4:	d800      	bhi.n	8002bf8 <__format+0x188>
 8002bf6:	e09d      	b.n	8002d34 <__format+0x2c4>
 8002bf8:	4286      	cmp	r6, r0
 8002bfa:	d300      	bcc.n	8002bfe <__format+0x18e>
 8002bfc:	e09a      	b.n	8002d34 <__format+0x2c4>
 8002bfe:	1c34      	adds	r4, r6, #0
 8002c00:	e098      	b.n	8002d34 <__format+0x2c4>
 8002c02:	9b01      	ldr	r3, [sp, #4]
 8002c04:	069b      	lsls	r3, r3, #26
 8002c06:	d503      	bpl.n	8002c10 <__format+0x1a0>
 8002c08:	9b04      	ldr	r3, [sp, #16]
 8002c0a:	429e      	cmp	r6, r3
 8002c0c:	d200      	bcs.n	8002c10 <__format+0x1a0>
 8002c0e:	1c1e      	adds	r6, r3, #0
 8002c10:	1d23      	adds	r3, r4, #4
 8002c12:	9306      	str	r3, [sp, #24]
 8002c14:	9b01      	ldr	r3, [sp, #4]
 8002c16:	6824      	ldr	r4, [r4, #0]
 8002c18:	065b      	lsls	r3, r3, #25
 8002c1a:	d500      	bpl.n	8002c1e <__format+0x1ae>
 8002c1c:	b224      	sxth	r4, r4
 8002c1e:	2c00      	cmp	r4, #0
 8002c20:	da0e      	bge.n	8002c40 <__format+0x1d0>
 8002c22:	4261      	negs	r1, r4
 8002c24:	220a      	movs	r2, #10
 8002c26:	2300      	movs	r3, #0
 8002c28:	a80b      	add	r0, sp, #44	; 0x2c
 8002c2a:	f7ff fecd 	bl	80029c8 <__utoa>
 8002c2e:	2380      	movs	r3, #128	; 0x80
 8002c30:	9a01      	ldr	r2, [sp, #4]
 8002c32:	425b      	negs	r3, r3
 8002c34:	4313      	orrs	r3, r2
 8002c36:	b2db      	uxtb	r3, r3
 8002c38:	1c05      	adds	r5, r0, #0
 8002c3a:	1c44      	adds	r4, r0, #1
 8002c3c:	9301      	str	r3, [sp, #4]
 8002c3e:	e071      	b.n	8002d24 <__format+0x2b4>
 8002c40:	2500      	movs	r5, #0
 8002c42:	42ac      	cmp	r4, r5
 8002c44:	d06e      	beq.n	8002d24 <__format+0x2b4>
 8002c46:	1c2b      	adds	r3, r5, #0
 8002c48:	1c21      	adds	r1, r4, #0
 8002c4a:	220a      	movs	r2, #10
 8002c4c:	a80b      	add	r0, sp, #44	; 0x2c
 8002c4e:	f7ff febb 	bl	80029c8 <__utoa>
 8002c52:	230c      	movs	r3, #12
 8002c54:	9a01      	ldr	r2, [sp, #4]
 8002c56:	1c04      	adds	r4, r0, #0
 8002c58:	4013      	ands	r3, r2
 8002c5a:	1c05      	adds	r5, r0, #0
 8002c5c:	1e5a      	subs	r2, r3, #1
 8002c5e:	4193      	sbcs	r3, r2
 8002c60:	e04e      	b.n	8002d00 <__format+0x290>
 8002c62:	9b01      	ldr	r3, [sp, #4]
 8002c64:	069b      	lsls	r3, r3, #26
 8002c66:	d503      	bpl.n	8002c70 <__format+0x200>
 8002c68:	9b04      	ldr	r3, [sp, #16]
 8002c6a:	429e      	cmp	r6, r3
 8002c6c:	d200      	bcs.n	8002c70 <__format+0x200>
 8002c6e:	1c1e      	adds	r6, r3, #0
 8002c70:	1d23      	adds	r3, r4, #4
 8002c72:	9306      	str	r3, [sp, #24]
 8002c74:	9b01      	ldr	r3, [sp, #4]
 8002c76:	6821      	ldr	r1, [r4, #0]
 8002c78:	065b      	lsls	r3, r3, #25
 8002c7a:	d500      	bpl.n	8002c7e <__format+0x20e>
 8002c7c:	b289      	uxth	r1, r1
 8002c7e:	2900      	cmp	r1, #0
 8002c80:	d040      	beq.n	8002d04 <__format+0x294>
 8002c82:	a80b      	add	r0, sp, #44	; 0x2c
 8002c84:	220a      	movs	r2, #10
 8002c86:	2300      	movs	r3, #0
 8002c88:	f7ff fe9e 	bl	80029c8 <__utoa>
 8002c8c:	e048      	b.n	8002d20 <__format+0x2b0>
 8002c8e:	9a01      	ldr	r2, [sp, #4]
 8002c90:	0692      	lsls	r2, r2, #26
 8002c92:	d503      	bpl.n	8002c9c <__format+0x22c>
 8002c94:	9a04      	ldr	r2, [sp, #16]
 8002c96:	4296      	cmp	r6, r2
 8002c98:	d200      	bcs.n	8002c9c <__format+0x22c>
 8002c9a:	1c16      	adds	r6, r2, #0
 8002c9c:	1d22      	adds	r2, r4, #4
 8002c9e:	9206      	str	r2, [sp, #24]
 8002ca0:	9a01      	ldr	r2, [sp, #4]
 8002ca2:	6821      	ldr	r1, [r4, #0]
 8002ca4:	0652      	lsls	r2, r2, #25
 8002ca6:	d500      	bpl.n	8002caa <__format+0x23a>
 8002ca8:	b289      	uxth	r1, r1
 8002caa:	2900      	cmp	r1, #0
 8002cac:	d02a      	beq.n	8002d04 <__format+0x294>
 8002cae:	3b58      	subs	r3, #88	; 0x58
 8002cb0:	425a      	negs	r2, r3
 8002cb2:	4153      	adcs	r3, r2
 8002cb4:	a80b      	add	r0, sp, #44	; 0x2c
 8002cb6:	b2db      	uxtb	r3, r3
 8002cb8:	2210      	movs	r2, #16
 8002cba:	f7ff fe85 	bl	80029c8 <__utoa>
 8002cbe:	9b01      	ldr	r3, [sp, #4]
 8002cc0:	1c04      	adds	r4, r0, #0
 8002cc2:	1c05      	adds	r5, r0, #0
 8002cc4:	06db      	lsls	r3, r3, #27
 8002cc6:	d52d      	bpl.n	8002d24 <__format+0x2b4>
 8002cc8:	3402      	adds	r4, #2
 8002cca:	e02b      	b.n	8002d24 <__format+0x2b4>
 8002ccc:	9b01      	ldr	r3, [sp, #4]
 8002cce:	069b      	lsls	r3, r3, #26
 8002cd0:	d503      	bpl.n	8002cda <__format+0x26a>
 8002cd2:	9b04      	ldr	r3, [sp, #16]
 8002cd4:	429e      	cmp	r6, r3
 8002cd6:	d200      	bcs.n	8002cda <__format+0x26a>
 8002cd8:	1c1e      	adds	r6, r3, #0
 8002cda:	1d23      	adds	r3, r4, #4
 8002cdc:	9306      	str	r3, [sp, #24]
 8002cde:	9b01      	ldr	r3, [sp, #4]
 8002ce0:	6821      	ldr	r1, [r4, #0]
 8002ce2:	065b      	lsls	r3, r3, #25
 8002ce4:	d500      	bpl.n	8002ce8 <__format+0x278>
 8002ce6:	b289      	uxth	r1, r1
 8002ce8:	2900      	cmp	r1, #0
 8002cea:	d00b      	beq.n	8002d04 <__format+0x294>
 8002cec:	2300      	movs	r3, #0
 8002cee:	a80b      	add	r0, sp, #44	; 0x2c
 8002cf0:	2208      	movs	r2, #8
 8002cf2:	f7ff fe69 	bl	80029c8 <__utoa>
 8002cf6:	1c04      	adds	r4, r0, #0
 8002cf8:	1c05      	adds	r5, r0, #0
 8002cfa:	9b01      	ldr	r3, [sp, #4]
 8002cfc:	06db      	lsls	r3, r3, #27
 8002cfe:	0fdb      	lsrs	r3, r3, #31
 8002d00:	18e4      	adds	r4, r4, r3
 8002d02:	e00f      	b.n	8002d24 <__format+0x2b4>
 8002d04:	1c0c      	adds	r4, r1, #0
 8002d06:	e00c      	b.n	8002d22 <__format+0x2b2>
 8002d08:	1d23      	adds	r3, r4, #4
 8002d0a:	9306      	str	r3, [sp, #24]
 8002d0c:	9b01      	ldr	r3, [sp, #4]
 8002d0e:	6820      	ldr	r0, [r4, #0]
 8002d10:	065b      	lsls	r3, r3, #25
 8002d12:	d500      	bpl.n	8002d16 <__format+0x2a6>
 8002d14:	b280      	uxth	r0, r0
 8002d16:	2800      	cmp	r0, #0
 8002d18:	d002      	beq.n	8002d20 <__format+0x2b0>
 8002d1a:	a90b      	add	r1, sp, #44	; 0x2c
 8002d1c:	f7ff fe84 	bl	8002a28 <size_in_bytes>
 8002d20:	1c04      	adds	r4, r0, #0
 8002d22:	1c25      	adds	r5, r4, #0
 8002d24:	42b5      	cmp	r5, r6
 8002d26:	d205      	bcs.n	8002d34 <__format+0x2c4>
 8002d28:	1b61      	subs	r1, r4, r5
 8002d2a:	198c      	adds	r4, r1, r6
 8002d2c:	e002      	b.n	8002d34 <__format+0x2c4>
 8002d2e:	9406      	str	r4, [sp, #24]
 8002d30:	2400      	movs	r4, #0
 8002d32:	1c25      	adds	r5, r4, #0
 8002d34:	2302      	movs	r3, #2
 8002d36:	9a01      	ldr	r2, [sp, #4]
 8002d38:	401a      	ands	r2, r3
 8002d3a:	9209      	str	r2, [sp, #36]	; 0x24
 8002d3c:	d105      	bne.n	8002d4a <__format+0x2da>
 8002d3e:	9b04      	ldr	r3, [sp, #16]
 8002d40:	9902      	ldr	r1, [sp, #8]
 8002d42:	1b18      	subs	r0, r3, r4
 8002d44:	9a03      	ldr	r2, [sp, #12]
 8002d46:	f7ff fdf3 	bl	8002930 <pad_spaces>
 8002d4a:	9b08      	ldr	r3, [sp, #32]
 8002d4c:	3701      	adds	r7, #1
 8002d4e:	781b      	ldrb	r3, [r3, #0]
 8002d50:	2b69      	cmp	r3, #105	; 0x69
 8002d52:	d01d      	beq.n	8002d90 <__format+0x320>
 8002d54:	d80a      	bhi.n	8002d6c <__format+0x2fc>
 8002d56:	2b62      	cmp	r3, #98	; 0x62
 8002d58:	d01a      	beq.n	8002d90 <__format+0x320>
 8002d5a:	d802      	bhi.n	8002d62 <__format+0x2f2>
 8002d5c:	2b58      	cmp	r3, #88	; 0x58
 8002d5e:	d026      	beq.n	8002dae <__format+0x33e>
 8002d60:	e043      	b.n	8002dea <__format+0x37a>
 8002d62:	2b63      	cmp	r3, #99	; 0x63
 8002d64:	d00d      	beq.n	8002d82 <__format+0x312>
 8002d66:	2b64      	cmp	r3, #100	; 0x64
 8002d68:	d012      	beq.n	8002d90 <__format+0x320>
 8002d6a:	e03e      	b.n	8002dea <__format+0x37a>
 8002d6c:	2b73      	cmp	r3, #115	; 0x73
 8002d6e:	d00c      	beq.n	8002d8a <__format+0x31a>
 8002d70:	d802      	bhi.n	8002d78 <__format+0x308>
 8002d72:	2b6f      	cmp	r3, #111	; 0x6f
 8002d74:	d023      	beq.n	8002dbe <__format+0x34e>
 8002d76:	e038      	b.n	8002dea <__format+0x37a>
 8002d78:	2b75      	cmp	r3, #117	; 0x75
 8002d7a:	d009      	beq.n	8002d90 <__format+0x320>
 8002d7c:	2b78      	cmp	r3, #120	; 0x78
 8002d7e:	d016      	beq.n	8002dae <__format+0x33e>
 8002d80:	e033      	b.n	8002dea <__format+0x37a>
 8002d82:	ab0a      	add	r3, sp, #40	; 0x28
 8002d84:	1cd8      	adds	r0, r3, #3
 8002d86:	2101      	movs	r1, #1
 8002d88:	e02c      	b.n	8002de4 <__format+0x374>
 8002d8a:	9807      	ldr	r0, [sp, #28]
 8002d8c:	1c21      	adds	r1, r4, #0
 8002d8e:	e029      	b.n	8002de4 <__format+0x374>
 8002d90:	9b01      	ldr	r3, [sp, #4]
 8002d92:	4822      	ldr	r0, [pc, #136]	; (8002e1c <__format+0x3ac>)
 8002d94:	061b      	lsls	r3, r3, #24
 8002d96:	d418      	bmi.n	8002dca <__format+0x35a>
 8002d98:	2d00      	cmp	r5, #0
 8002d9a:	d01a      	beq.n	8002dd2 <__format+0x362>
 8002d9c:	9b01      	ldr	r3, [sp, #4]
 8002d9e:	4820      	ldr	r0, [pc, #128]	; (8002e20 <__format+0x3b0>)
 8002da0:	075b      	lsls	r3, r3, #29
 8002da2:	d412      	bmi.n	8002dca <__format+0x35a>
 8002da4:	9b01      	ldr	r3, [sp, #4]
 8002da6:	481f      	ldr	r0, [pc, #124]	; (8002e24 <__format+0x3b4>)
 8002da8:	071b      	lsls	r3, r3, #28
 8002daa:	d512      	bpl.n	8002dd2 <__format+0x362>
 8002dac:	e00d      	b.n	8002dca <__format+0x35a>
 8002dae:	2d00      	cmp	r5, #0
 8002db0:	d00f      	beq.n	8002dd2 <__format+0x362>
 8002db2:	9b01      	ldr	r3, [sp, #4]
 8002db4:	06db      	lsls	r3, r3, #27
 8002db6:	d50c      	bpl.n	8002dd2 <__format+0x362>
 8002db8:	481b      	ldr	r0, [pc, #108]	; (8002e28 <__format+0x3b8>)
 8002dba:	2102      	movs	r1, #2
 8002dbc:	e006      	b.n	8002dcc <__format+0x35c>
 8002dbe:	2d00      	cmp	r5, #0
 8002dc0:	d007      	beq.n	8002dd2 <__format+0x362>
 8002dc2:	9b01      	ldr	r3, [sp, #4]
 8002dc4:	06db      	lsls	r3, r3, #27
 8002dc6:	d504      	bpl.n	8002dd2 <__format+0x362>
 8002dc8:	4818      	ldr	r0, [pc, #96]	; (8002e2c <__format+0x3bc>)
 8002dca:	2101      	movs	r1, #1
 8002dcc:	9a03      	ldr	r2, [sp, #12]
 8002dce:	9b02      	ldr	r3, [sp, #8]
 8002dd0:	4798      	blx	r3
 8002dd2:	42b5      	cmp	r5, r6
 8002dd4:	d204      	bcs.n	8002de0 <__format+0x370>
 8002dd6:	1b70      	subs	r0, r6, r5
 8002dd8:	9902      	ldr	r1, [sp, #8]
 8002dda:	9a03      	ldr	r2, [sp, #12]
 8002ddc:	f7ff fdbe 	bl	800295c <pad_zeroes>
 8002de0:	1c29      	adds	r1, r5, #0
 8002de2:	a80b      	add	r0, sp, #44	; 0x2c
 8002de4:	9a03      	ldr	r2, [sp, #12]
 8002de6:	9b02      	ldr	r3, [sp, #8]
 8002de8:	4798      	blx	r3
 8002dea:	9b09      	ldr	r3, [sp, #36]	; 0x24
 8002dec:	1c3d      	adds	r5, r7, #0
 8002dee:	2b00      	cmp	r3, #0
 8002df0:	d008      	beq.n	8002e04 <__format+0x394>
 8002df2:	9b04      	ldr	r3, [sp, #16]
 8002df4:	9902      	ldr	r1, [sp, #8]
 8002df6:	1b18      	subs	r0, r3, r4
 8002df8:	9a03      	ldr	r2, [sp, #12]
 8002dfa:	f7ff fd99 	bl	8002930 <pad_spaces>
 8002dfe:	e001      	b.n	8002e04 <__format+0x394>
 8002e00:	1c0d      	adds	r5, r1, #0
 8002e02:	9406      	str	r4, [sp, #24]
 8002e04:	9c06      	ldr	r4, [sp, #24]
 8002e06:	e63d      	b.n	8002a84 <__format+0x14>
 8002e08:	42bd      	cmp	r5, r7
 8002e0a:	d905      	bls.n	8002e18 <__format+0x3a8>
 8002e0c:	9b05      	ldr	r3, [sp, #20]
 8002e0e:	1be9      	subs	r1, r5, r7
 8002e10:	19d8      	adds	r0, r3, r7
 8002e12:	9a03      	ldr	r2, [sp, #12]
 8002e14:	9b02      	ldr	r3, [sp, #8]
 8002e16:	4798      	blx	r3
 8002e18:	b00f      	add	sp, #60	; 0x3c
 8002e1a:	bdf0      	pop	{r4, r5, r6, r7, pc}
 8002e1c:	08008432 	.word	0x08008432
 8002e20:	08008434 	.word	0x08008434
 8002e24:	08008239 	.word	0x08008239
 8002e28:	08008436 	.word	0x08008436
 8002e2c:	08008439 	.word	0x08008439

08002e30 <sformat>:
 8002e30:	b507      	push	{r0, r1, r2, lr}
 8002e32:	9001      	str	r0, [sp, #4]
 8002e34:	ab01      	add	r3, sp, #4
 8002e36:	1c08      	adds	r0, r1, #0
 8002e38:	1c11      	adds	r1, r2, #0
 8002e3a:	4a03      	ldr	r2, [pc, #12]	; (8002e48 <sformat+0x18>)
 8002e3c:	f7ff fe18 	bl	8002a70 <__format>
 8002e40:	2300      	movs	r3, #0
 8002e42:	9a01      	ldr	r2, [sp, #4]
 8002e44:	7013      	strb	r3, [r2, #0]
 8002e46:	bd07      	pop	{r0, r1, r2, pc}
 8002e48:	08002989 	.word	0x08002989

08002e4c <lib_array_create>:
 8002e4c:	b570      	push	{r4, r5, r6, lr}
 8002e4e:	1c15      	adds	r5, r2, #0
 8002e50:	2380      	movs	r3, #128	; 0x80
 8002e52:	1c0c      	adds	r4, r1, #0
 8002e54:	1c29      	adds	r1, r5, #0
 8002e56:	059b      	lsls	r3, r3, #22
 8002e58:	689a      	ldr	r2, [r3, #8]
 8002e5a:	4361      	muls	r1, r4
 8002e5c:	1c06      	adds	r6, r0, #0
 8002e5e:	6812      	ldr	r2, [r2, #0]
 8002e60:	6818      	ldr	r0, [r3, #0]
 8002e62:	310c      	adds	r1, #12
 8002e64:	3008      	adds	r0, #8
 8002e66:	68d3      	ldr	r3, [r2, #12]
 8002e68:	4798      	blx	r3
 8002e6a:	6030      	str	r0, [r6, #0]
 8002e6c:	2800      	cmp	r0, #0
 8002e6e:	d003      	beq.n	8002e78 <lib_array_create+0x2c>
 8002e70:	2300      	movs	r3, #0
 8002e72:	6045      	str	r5, [r0, #4]
 8002e74:	6003      	str	r3, [r0, #0]
 8002e76:	6084      	str	r4, [r0, #8]
 8002e78:	bd70      	pop	{r4, r5, r6, pc}

08002e7a <lib_array_destroy>:
 8002e7a:	2380      	movs	r3, #128	; 0x80
 8002e7c:	b510      	push	{r4, lr}
 8002e7e:	1c04      	adds	r4, r0, #0
 8002e80:	059b      	lsls	r3, r3, #22
 8002e82:	689a      	ldr	r2, [r3, #8]
 8002e84:	6818      	ldr	r0, [r3, #0]
 8002e86:	6812      	ldr	r2, [r2, #0]
 8002e88:	3008      	adds	r0, #8
 8002e8a:	6953      	ldr	r3, [r2, #20]
 8002e8c:	6821      	ldr	r1, [r4, #0]
 8002e8e:	4798      	blx	r3
 8002e90:	2300      	movs	r3, #0
 8002e92:	6023      	str	r3, [r4, #0]
 8002e94:	bd10      	pop	{r4, pc}

08002e96 <lib_array_at>:
 8002e96:	1e03      	subs	r3, r0, #0
 8002e98:	d00e      	beq.n	8002eb8 <lib_array_at+0x22>
 8002e9a:	6803      	ldr	r3, [r0, #0]
 8002e9c:	4299      	cmp	r1, r3
 8002e9e:	d307      	bcc.n	8002eb0 <lib_array_at+0x1a>
 8002ea0:	2380      	movs	r3, #128	; 0x80
 8002ea2:	220d      	movs	r2, #13
 8002ea4:	059b      	lsls	r3, r3, #22
 8002ea6:	681b      	ldr	r3, [r3, #0]
 8002ea8:	4252      	negs	r2, r2
 8002eaa:	601a      	str	r2, [r3, #0]
 8002eac:	2300      	movs	r3, #0
 8002eae:	e003      	b.n	8002eb8 <lib_array_at+0x22>
 8002eb0:	6883      	ldr	r3, [r0, #8]
 8002eb2:	434b      	muls	r3, r1
 8002eb4:	330c      	adds	r3, #12
 8002eb6:	18c3      	adds	r3, r0, r3
 8002eb8:	1c18      	adds	r0, r3, #0
 8002eba:	4770      	bx	lr

08002ebc <lib_array_size>:
 8002ebc:	1e03      	subs	r3, r0, #0
 8002ebe:	d000      	beq.n	8002ec2 <lib_array_size+0x6>
 8002ec0:	6818      	ldr	r0, [r3, #0]
 8002ec2:	4770      	bx	lr

08002ec4 <lib_array_append>:
 8002ec4:	6801      	ldr	r1, [r0, #0]
 8002ec6:	b538      	push	{r3, r4, r5, lr}
 8002ec8:	2900      	cmp	r1, #0
 8002eca:	d017      	beq.n	8002efc <lib_array_append+0x38>
 8002ecc:	1c04      	adds	r4, r0, #0
 8002ece:	684a      	ldr	r2, [r1, #4]
 8002ed0:	6808      	ldr	r0, [r1, #0]
 8002ed2:	1c43      	adds	r3, r0, #1
 8002ed4:	4282      	cmp	r2, r0
 8002ed6:	d901      	bls.n	8002edc <lib_array_append+0x18>
 8002ed8:	600b      	str	r3, [r1, #0]
 8002eda:	e00e      	b.n	8002efa <lib_array_append+0x36>
 8002edc:	600b      	str	r3, [r1, #0]
 8002ede:	2380      	movs	r3, #128	; 0x80
 8002ee0:	059b      	lsls	r3, r3, #22
 8002ee2:	6898      	ldr	r0, [r3, #8]
 8002ee4:	3201      	adds	r2, #1
 8002ee6:	6805      	ldr	r5, [r0, #0]
 8002ee8:	6818      	ldr	r0, [r3, #0]
 8002eea:	688b      	ldr	r3, [r1, #8]
 8002eec:	604a      	str	r2, [r1, #4]
 8002eee:	435a      	muls	r2, r3
 8002ef0:	3008      	adds	r0, #8
 8002ef2:	320c      	adds	r2, #12
 8002ef4:	692b      	ldr	r3, [r5, #16]
 8002ef6:	4798      	blx	r3
 8002ef8:	6020      	str	r0, [r4, #0]
 8002efa:	6821      	ldr	r1, [r4, #0]
 8002efc:	1c08      	adds	r0, r1, #0
 8002efe:	bd38      	pop	{r3, r4, r5, pc}

08002f00 <lib_array_clear>:
 8002f00:	6800      	ldr	r0, [r0, #0]
 8002f02:	2800      	cmp	r0, #0
 8002f04:	d001      	beq.n	8002f0a <lib_array_clear+0xa>
 8002f06:	2300      	movs	r3, #0
 8002f08:	6003      	str	r3, [r0, #0]
 8002f0a:	4770      	bx	lr

08002f0c <lib_array_insert>:
 8002f0c:	b5f8      	push	{r3, r4, r5, r6, r7, lr}
 8002f0e:	1c04      	adds	r4, r0, #0
 8002f10:	1c0d      	adds	r5, r1, #0
 8002f12:	f7ff ffd7 	bl	8002ec4 <lib_array_append>
 8002f16:	2800      	cmp	r0, #0
 8002f18:	d01c      	beq.n	8002f54 <lib_array_insert+0x48>
 8002f1a:	6820      	ldr	r0, [r4, #0]
 8002f1c:	6806      	ldr	r6, [r0, #0]
 8002f1e:	42b5      	cmp	r5, r6
 8002f20:	d306      	bcc.n	8002f30 <lib_array_insert+0x24>
 8002f22:	2380      	movs	r3, #128	; 0x80
 8002f24:	220d      	movs	r2, #13
 8002f26:	059b      	lsls	r3, r3, #22
 8002f28:	681b      	ldr	r3, [r3, #0]
 8002f2a:	4252      	negs	r2, r2
 8002f2c:	601a      	str	r2, [r3, #0]
 8002f2e:	e011      	b.n	8002f54 <lib_array_insert+0x48>
 8002f30:	6887      	ldr	r7, [r0, #8]
 8002f32:	1c6b      	adds	r3, r5, #1
 8002f34:	437b      	muls	r3, r7
 8002f36:	1c1a      	adds	r2, r3, #0
 8002f38:	1bd9      	subs	r1, r3, r7
 8002f3a:	320c      	adds	r2, #12
 8002f3c:	1882      	adds	r2, r0, r2
 8002f3e:	1c0b      	adds	r3, r1, #0
 8002f40:	4694      	mov	ip, r2
 8002f42:	1e72      	subs	r2, r6, #1
 8002f44:	330c      	adds	r3, #12
 8002f46:	1b52      	subs	r2, r2, r5
 8002f48:	18c1      	adds	r1, r0, r3
 8002f4a:	437a      	muls	r2, r7
 8002f4c:	4660      	mov	r0, ip
 8002f4e:	f004 fec5 	bl	8007cdc <memmove>
 8002f52:	6820      	ldr	r0, [r4, #0]
 8002f54:	bdf8      	pop	{r3, r4, r5, r6, r7, pc}

08002f56 <lib_array_remove>:
 8002f56:	b5f8      	push	{r3, r4, r5, r6, r7, lr}
 8002f58:	6803      	ldr	r3, [r0, #0]
 8002f5a:	2b00      	cmp	r3, #0
 8002f5c:	d01d      	beq.n	8002f9a <lib_array_remove+0x44>
 8002f5e:	681d      	ldr	r5, [r3, #0]
 8002f60:	42a9      	cmp	r1, r5
 8002f62:	d306      	bcc.n	8002f72 <lib_array_remove+0x1c>
 8002f64:	2280      	movs	r2, #128	; 0x80
 8002f66:	210d      	movs	r1, #13
 8002f68:	0592      	lsls	r2, r2, #22
 8002f6a:	6812      	ldr	r2, [r2, #0]
 8002f6c:	4249      	negs	r1, r1
 8002f6e:	6011      	str	r1, [r2, #0]
 8002f70:	e013      	b.n	8002f9a <lib_array_remove+0x44>
 8002f72:	689a      	ldr	r2, [r3, #8]
 8002f74:	1c0c      	adds	r4, r1, #0
 8002f76:	1c17      	adds	r7, r2, #0
 8002f78:	434f      	muls	r7, r1
 8002f7a:	1c06      	adds	r6, r0, #0
 8002f7c:	1c38      	adds	r0, r7, #0
 8002f7e:	18b9      	adds	r1, r7, r2
 8002f80:	3d01      	subs	r5, #1
 8002f82:	300c      	adds	r0, #12
 8002f84:	310c      	adds	r1, #12
 8002f86:	1b2c      	subs	r4, r5, r4
 8002f88:	1818      	adds	r0, r3, r0
 8002f8a:	1859      	adds	r1, r3, r1
 8002f8c:	4362      	muls	r2, r4
 8002f8e:	f004 fea5 	bl	8007cdc <memmove>
 8002f92:	6833      	ldr	r3, [r6, #0]
 8002f94:	681a      	ldr	r2, [r3, #0]
 8002f96:	3a01      	subs	r2, #1
 8002f98:	601a      	str	r2, [r3, #0]
 8002f9a:	1c18      	adds	r0, r3, #0
 8002f9c:	bdf8      	pop	{r3, r4, r5, r6, r7, pc}

08002f9e <lib_array_squeeze>:
 8002f9e:	6801      	ldr	r1, [r0, #0]
 8002fa0:	b538      	push	{r3, r4, r5, lr}
 8002fa2:	2900      	cmp	r1, #0
 8002fa4:	d010      	beq.n	8002fc8 <lib_array_squeeze+0x2a>
 8002fa6:	2380      	movs	r3, #128	; 0x80
 8002fa8:	059b      	lsls	r3, r3, #22
 8002faa:	689a      	ldr	r2, [r3, #8]
 8002fac:	1c04      	adds	r4, r0, #0
 8002fae:	6815      	ldr	r5, [r2, #0]
 8002fb0:	6818      	ldr	r0, [r3, #0]
 8002fb2:	680a      	ldr	r2, [r1, #0]
 8002fb4:	688b      	ldr	r3, [r1, #8]
 8002fb6:	3008      	adds	r0, #8
 8002fb8:	435a      	muls	r2, r3
 8002fba:	692b      	ldr	r3, [r5, #16]
 8002fbc:	320c      	adds	r2, #12
 8002fbe:	4798      	blx	r3
 8002fc0:	1c01      	adds	r1, r0, #0
 8002fc2:	6803      	ldr	r3, [r0, #0]
 8002fc4:	6020      	str	r0, [r4, #0]
 8002fc6:	6043      	str	r3, [r0, #4]
 8002fc8:	1c08      	adds	r0, r1, #0
 8002fca:	bd38      	pop	{r3, r4, r5, pc}

08002fcc <pformat>:
 8002fcc:	b508      	push	{r3, lr}
 8002fce:	4a02      	ldr	r2, [pc, #8]	; (8002fd8 <pformat+0xc>)
 8002fd0:	2300      	movs	r3, #0
 8002fd2:	f7ff fd4d 	bl	8002a70 <__format>
 8002fd6:	bd08      	pop	{r3, pc}
 8002fd8:	0800301d 	.word	0x0800301d

08002fdc <stream_write>:
 8002fdc:	b570      	push	{r4, r5, r6, lr}
 8002fde:	2480      	movs	r4, #128	; 0x80
 8002fe0:	1c06      	adds	r6, r0, #0
 8002fe2:	1c0d      	adds	r5, r1, #0
 8002fe4:	2100      	movs	r1, #0
 8002fe6:	05a4      	lsls	r4, r4, #22
 8002fe8:	1c13      	adds	r3, r2, #0
 8002fea:	6822      	ldr	r2, [r4, #0]
 8002fec:	201e      	movs	r0, #30
 8002fee:	6011      	str	r1, [r2, #0]
 8002ff0:	1c31      	adds	r1, r6, #0
 8002ff2:	1c2a      	adds	r2, r5, #0
 8002ff4:	f7fd f8f0 	bl	80001d8 <svc_call>
 8002ff8:	6823      	ldr	r3, [r4, #0]
 8002ffa:	6818      	ldr	r0, [r3, #0]
 8002ffc:	4243      	negs	r3, r0
 8002ffe:	4158      	adcs	r0, r3
 8003000:	b2c0      	uxtb	r0, r0
 8003002:	bd70      	pop	{r4, r5, r6, pc}

08003004 <__putc>:
 8003004:	b507      	push	{r0, r1, r2, lr}
 8003006:	466b      	mov	r3, sp
 8003008:	1dd9      	adds	r1, r3, #7
 800300a:	2380      	movs	r3, #128	; 0x80
 800300c:	7008      	strb	r0, [r1, #0]
 800300e:	059b      	lsls	r3, r3, #22
 8003010:	681b      	ldr	r3, [r3, #0]
 8003012:	2201      	movs	r2, #1
 8003014:	6958      	ldr	r0, [r3, #20]
 8003016:	f7ff ffe1 	bl	8002fdc <stream_write>
 800301a:	bd07      	pop	{r0, r1, r2, pc}

0800301c <printf_handler>:
 800301c:	1c0a      	adds	r2, r1, #0
 800301e:	2180      	movs	r1, #128	; 0x80
 8003020:	b508      	push	{r3, lr}
 8003022:	1c03      	adds	r3, r0, #0
 8003024:	0589      	lsls	r1, r1, #22
 8003026:	6809      	ldr	r1, [r1, #0]
 8003028:	6948      	ldr	r0, [r1, #20]
 800302a:	1c19      	adds	r1, r3, #0
 800302c:	f7ff ffd6 	bl	8002fdc <stream_write>
 8003030:	bd08      	pop	{r3, pc}

08003032 <__puts>:
 8003032:	b538      	push	{r3, r4, r5, lr}
 8003034:	2380      	movs	r3, #128	; 0x80
 8003036:	059b      	lsls	r3, r3, #22
 8003038:	681b      	ldr	r3, [r3, #0]
 800303a:	1c04      	adds	r4, r0, #0
 800303c:	695d      	ldr	r5, [r3, #20]
 800303e:	f004 fedf 	bl	8007e00 <strlen>
 8003042:	1c21      	adds	r1, r4, #0
 8003044:	1c02      	adds	r2, r0, #0
 8003046:	1c28      	adds	r0, r5, #0
 8003048:	f7ff ffc8 	bl	8002fdc <stream_write>
 800304c:	bd38      	pop	{r3, r4, r5, pc}

0800304e <__getc>:
 800304e:	2380      	movs	r3, #128	; 0x80
 8003050:	2200      	movs	r2, #0
 8003052:	b513      	push	{r0, r1, r4, lr}
 8003054:	059b      	lsls	r3, r3, #22
 8003056:	681b      	ldr	r3, [r3, #0]
 8003058:	201f      	movs	r0, #31
 800305a:	6999      	ldr	r1, [r3, #24]
 800305c:	601a      	str	r2, [r3, #0]
 800305e:	466b      	mov	r3, sp
 8003060:	1ddc      	adds	r4, r3, #7
 8003062:	1c22      	adds	r2, r4, #0
 8003064:	2301      	movs	r3, #1
 8003066:	f7fd f8b7 	bl	80001d8 <svc_call>
 800306a:	7820      	ldrb	r0, [r4, #0]
 800306c:	bd16      	pop	{r1, r2, r4, pc}

0800306e <__gets>:
 800306e:	b570      	push	{r4, r5, r6, lr}
 8003070:	1c05      	adds	r5, r0, #0
 8003072:	1c0e      	adds	r6, r1, #0
 8003074:	1c04      	adds	r4, r0, #0
 8003076:	f7ff ffea 	bl	800304e <__getc>
 800307a:	7020      	strb	r0, [r4, #0]
 800307c:	280a      	cmp	r0, #10
 800307e:	d005      	beq.n	800308c <__gets+0x1e>
 8003080:	1e72      	subs	r2, r6, #1
 8003082:	1b63      	subs	r3, r4, r5
 8003084:	4293      	cmp	r3, r2
 8003086:	da01      	bge.n	800308c <__gets+0x1e>
 8003088:	3401      	adds	r4, #1
 800308a:	e7f4      	b.n	8003076 <__gets+0x8>
 800308c:	2300      	movs	r3, #0
 800308e:	1c28      	adds	r0, r5, #0
 8003090:	7023      	strb	r3, [r4, #0]
 8003092:	bd70      	pop	{r4, r5, r6, pc}

08003094 <__heap_struct_ptr>:
 8003094:	b510      	push	{r4, lr}
 8003096:	1c04      	adds	r4, r0, #0
 8003098:	342c      	adds	r4, #44	; 0x2c
 800309a:	2901      	cmp	r1, #1
 800309c:	d108      	bne.n	80030b0 <__heap_struct_ptr+0x1c>
 800309e:	7903      	ldrb	r3, [r0, #4]
 80030a0:	2004      	movs	r0, #4
 80030a2:	420b      	tst	r3, r1
 80030a4:	d103      	bne.n	80030ae <__heap_struct_ptr+0x1a>
 80030a6:	1c20      	adds	r0, r4, #0
 80030a8:	f004 feaa 	bl	8007e00 <strlen>
 80030ac:	3001      	adds	r0, #1
 80030ae:	1824      	adds	r4, r4, r0
 80030b0:	1c20      	adds	r0, r4, #0
 80030b2:	bd10      	pop	{r4, pc}

080030b4 <__process_name>:
 80030b4:	7902      	ldrb	r2, [r0, #4]
 80030b6:	1c03      	adds	r3, r0, #0
 80030b8:	302c      	adds	r0, #44	; 0x2c
 80030ba:	07d2      	lsls	r2, r2, #31
 80030bc:	d500      	bpl.n	80030c0 <__process_name+0xc>
 80030be:	6ad8      	ldr	r0, [r3, #44]	; 0x2c
 80030c0:	4770      	bx	lr
 80030c2:	0000      	movs	r0, r0

080030c4 <stm32_lib_gpio_set_pin>:
 80030c4:	0903      	lsrs	r3, r0, #4
 80030c6:	4a04      	ldr	r2, [pc, #16]	; (80030d8 <stm32_lib_gpio_set_pin+0x14>)
 80030c8:	009b      	lsls	r3, r3, #2
 80030ca:	589a      	ldr	r2, [r3, r2]
 80030cc:	230f      	movs	r3, #15
 80030ce:	4018      	ands	r0, r3
 80030d0:	3b0e      	subs	r3, #14
 80030d2:	4083      	lsls	r3, r0
 80030d4:	6193      	str	r3, [r2, #24]
 80030d6:	4770      	bx	lr
 80030d8:	08008690 	.word	0x08008690

080030dc <stm32_lib_gpio_set_mask>:
 80030dc:	4b02      	ldr	r3, [pc, #8]	; (80030e8 <stm32_lib_gpio_set_mask+0xc>)
 80030de:	0080      	lsls	r0, r0, #2
 80030e0:	58c3      	ldr	r3, [r0, r3]
 80030e2:	6199      	str	r1, [r3, #24]
 80030e4:	4770      	bx	lr
 80030e6:	46c0      	nop			; (mov r8, r8)
 80030e8:	08008690 	.word	0x08008690

080030ec <stm32_lib_gpio_reset_pin>:
 80030ec:	0903      	lsrs	r3, r0, #4
 80030ee:	4a04      	ldr	r2, [pc, #16]	; (8003100 <stm32_lib_gpio_reset_pin+0x14>)
 80030f0:	009b      	lsls	r3, r3, #2
 80030f2:	589a      	ldr	r2, [r3, r2]
 80030f4:	230f      	movs	r3, #15
 80030f6:	4018      	ands	r0, r3
 80030f8:	3b0e      	subs	r3, #14
 80030fa:	4083      	lsls	r3, r0
 80030fc:	6293      	str	r3, [r2, #40]	; 0x28
 80030fe:	4770      	bx	lr
 8003100:	08008690 	.word	0x08008690

08003104 <stm32_lib_gpio_reset_mask>:
 8003104:	4b02      	ldr	r3, [pc, #8]	; (8003110 <stm32_lib_gpio_reset_mask+0xc>)
 8003106:	0080      	lsls	r0, r0, #2
 8003108:	58c3      	ldr	r3, [r0, r3]
 800310a:	6299      	str	r1, [r3, #40]	; 0x28
 800310c:	4770      	bx	lr
 800310e:	46c0      	nop			; (mov r8, r8)
 8003110:	08008690 	.word	0x08008690

08003114 <stm32_lib_gpio_get_pin>:
 8003114:	4a05      	ldr	r2, [pc, #20]	; (800312c <stm32_lib_gpio_get_pin+0x18>)
 8003116:	0903      	lsrs	r3, r0, #4
 8003118:	009b      	lsls	r3, r3, #2
 800311a:	589b      	ldr	r3, [r3, r2]
 800311c:	220f      	movs	r2, #15
 800311e:	691b      	ldr	r3, [r3, #16]
 8003120:	4010      	ands	r0, r2
 8003122:	40c3      	lsrs	r3, r0
 8003124:	1c18      	adds	r0, r3, #0
 8003126:	2301      	movs	r3, #1
 8003128:	4018      	ands	r0, r3
 800312a:	4770      	bx	lr
 800312c:	08008690 	.word	0x08008690

08003130 <stm32_lib_gpio_get_mask>:
 8003130:	4b02      	ldr	r3, [pc, #8]	; (800313c <stm32_lib_gpio_get_mask+0xc>)
 8003132:	0080      	lsls	r0, r0, #2
 8003134:	58c3      	ldr	r3, [r0, r3]
 8003136:	6918      	ldr	r0, [r3, #16]
 8003138:	4008      	ands	r0, r1
 800313a:	4770      	bx	lr
 800313c:	08008690 	.word	0x08008690

08003140 <stm32_lib_gpio_set_data_out>:
 8003140:	2301      	movs	r3, #1
 8003142:	0049      	lsls	r1, r1, #1
 8003144:	408b      	lsls	r3, r1
 8003146:	1c19      	adds	r1, r3, #0
 8003148:	4b06      	ldr	r3, [pc, #24]	; (8003164 <stm32_lib_gpio_set_data_out+0x24>)
 800314a:	0080      	lsls	r0, r0, #2
 800314c:	58c3      	ldr	r3, [r0, r3]
 800314e:	3901      	subs	r1, #1
 8003150:	681a      	ldr	r2, [r3, #0]
 8003152:	4805      	ldr	r0, [pc, #20]	; (8003168 <stm32_lib_gpio_set_data_out+0x28>)
 8003154:	438a      	bics	r2, r1
 8003156:	601a      	str	r2, [r3, #0]
 8003158:	681a      	ldr	r2, [r3, #0]
 800315a:	4001      	ands	r1, r0
 800315c:	4311      	orrs	r1, r2
 800315e:	6019      	str	r1, [r3, #0]
 8003160:	4770      	bx	lr
 8003162:	46c0      	nop			; (mov r8, r8)
 8003164:	08008690 	.word	0x08008690
 8003168:	55555555 	.word	0x55555555

0800316c <stm32_lib_gpio_set_data_in>:
 800316c:	4b06      	ldr	r3, [pc, #24]	; (8003188 <stm32_lib_gpio_set_data_in+0x1c>)
 800316e:	0080      	lsls	r0, r0, #2
 8003170:	58c0      	ldr	r0, [r0, r3]
 8003172:	2301      	movs	r3, #1
 8003174:	004a      	lsls	r2, r1, #1
 8003176:	425b      	negs	r3, r3
 8003178:	4093      	lsls	r3, r2
 800317a:	1c19      	adds	r1, r3, #0
 800317c:	b510      	push	{r4, lr}
 800317e:	6804      	ldr	r4, [r0, #0]
 8003180:	4021      	ands	r1, r4
 8003182:	6001      	str	r1, [r0, #0]
 8003184:	bd10      	pop	{r4, pc}
 8003186:	46c0      	nop			; (mov r8, r8)
 8003188:	08008690 	.word	0x08008690

0800318c <object_get.constprop.0>:
 800318c:	2301      	movs	r3, #1
 800318e:	b507      	push	{r0, r1, r2, lr}
 8003190:	425b      	negs	r3, r3
 8003192:	9301      	str	r3, [sp, #4]
 8003194:	202d      	movs	r0, #45	; 0x2d
 8003196:	2101      	movs	r1, #1
 8003198:	aa01      	add	r2, sp, #4
 800319a:	2300      	movs	r3, #0
 800319c:	f7fd f81c 	bl	80001d8 <svc_call>
 80031a0:	9801      	ldr	r0, [sp, #4]
 80031a2:	bd0e      	pop	{r1, r2, r3, pc}

080031a4 <ipc_call_ms.constprop.2>:
 80031a4:	2380      	movs	r3, #128	; 0x80
 80031a6:	b513      	push	{r0, r1, r4, lr}
 80031a8:	1c04      	adds	r4, r0, #0
 80031aa:	059b      	lsls	r3, r3, #22
 80031ac:	689b      	ldr	r3, [r3, #8]
 80031ae:	4669      	mov	r1, sp
 80031b0:	689b      	ldr	r3, [r3, #8]
 80031b2:	2000      	movs	r0, #0
 80031b4:	699b      	ldr	r3, [r3, #24]
 80031b6:	4798      	blx	r3
 80031b8:	2016      	movs	r0, #22
 80031ba:	1c21      	adds	r1, r4, #0
 80031bc:	466a      	mov	r2, sp
 80031be:	2300      	movs	r3, #0
 80031c0:	f7fd f80a 	bl	80001d8 <svc_call>
 80031c4:	bd13      	pop	{r0, r1, r4, pc}
 80031c6:	0000      	movs	r0, r0

080031c8 <stm32_lib_gpio_disable_pin>:
 80031c8:	b510      	push	{r4, lr}
 80031ca:	b086      	sub	sp, #24
 80031cc:	1c04      	adds	r4, r0, #0
 80031ce:	f7ff ffdd 	bl	800318c <object_get.constprop.0>
 80031d2:	4b06      	ldr	r3, [pc, #24]	; (80031ec <stm32_lib_gpio_disable_pin+0x24>)
 80031d4:	9001      	str	r0, [sp, #4]
 80031d6:	9302      	str	r3, [sp, #8]
 80031d8:	2300      	movs	r3, #0
 80031da:	a801      	add	r0, sp, #4
 80031dc:	9403      	str	r4, [sp, #12]
 80031de:	9304      	str	r3, [sp, #16]
 80031e0:	9305      	str	r3, [sp, #20]
 80031e2:	f7ff ffdf 	bl	80031a4 <ipc_call_ms.constprop.2>
 80031e6:	b006      	add	sp, #24
 80031e8:	bd10      	pop	{r4, pc}
 80031ea:	46c0      	nop			; (mov r8, r8)
 80031ec:	00010001 	.word	0x00010001

080031f0 <stm32_lib_gpio_disable_mask>:
 80031f0:	b538      	push	{r3, r4, r5, lr}
 80031f2:	1c0c      	adds	r4, r1, #0
 80031f4:	0105      	lsls	r5, r0, #4
 80031f6:	2c00      	cmp	r4, #0
 80031f8:	d00b      	beq.n	8003212 <stm32_lib_gpio_disable_mask+0x22>
 80031fa:	1c20      	adds	r0, r4, #0
 80031fc:	f004 fd12 	bl	8007c24 <__clzsi2>
 8003200:	231f      	movs	r3, #31
 8003202:	2201      	movs	r2, #1
 8003204:	1a1b      	subs	r3, r3, r0
 8003206:	409a      	lsls	r2, r3
 8003208:	1958      	adds	r0, r3, r5
 800320a:	4394      	bics	r4, r2
 800320c:	f7ff ffdc 	bl	80031c8 <stm32_lib_gpio_disable_pin>
 8003210:	e7f1      	b.n	80031f6 <stm32_lib_gpio_disable_mask+0x6>
 8003212:	bd38      	pop	{r3, r4, r5, pc}

08003214 <stm32_lib_gpio_enable_pin>:
 8003214:	b530      	push	{r4, r5, lr}
 8003216:	b087      	sub	sp, #28
 8003218:	2903      	cmp	r1, #3
 800321a:	d828      	bhi.n	800326e <stm32_lib_gpio_enable_pin+0x5a>
 800321c:	1c04      	adds	r4, r0, #0
 800321e:	2580      	movs	r5, #128	; 0x80
 8003220:	1c08      	adds	r0, r1, #0
 8003222:	026d      	lsls	r5, r5, #9
 8003224:	f004 fb68 	bl	80078f8 <__gnu_thumb1_case_uqi>
 8003228:	17100902 	.word	0x17100902
 800322c:	f7ff ffae 	bl	800318c <object_get.constprop.0>
 8003230:	9502      	str	r5, [sp, #8]
 8003232:	9001      	str	r0, [sp, #4]
 8003234:	9403      	str	r4, [sp, #12]
 8003236:	2319      	movs	r3, #25
 8003238:	e013      	b.n	8003262 <stm32_lib_gpio_enable_pin+0x4e>
 800323a:	f7ff ffa7 	bl	800318c <object_get.constprop.0>
 800323e:	9502      	str	r5, [sp, #8]
 8003240:	9001      	str	r0, [sp, #4]
 8003242:	9403      	str	r4, [sp, #12]
 8003244:	2318      	movs	r3, #24
 8003246:	e00c      	b.n	8003262 <stm32_lib_gpio_enable_pin+0x4e>
 8003248:	f7ff ffa0 	bl	800318c <object_get.constprop.0>
 800324c:	9502      	str	r5, [sp, #8]
 800324e:	9001      	str	r0, [sp, #4]
 8003250:	9403      	str	r4, [sp, #12]
 8003252:	2338      	movs	r3, #56	; 0x38
 8003254:	e005      	b.n	8003262 <stm32_lib_gpio_enable_pin+0x4e>
 8003256:	f7ff ff99 	bl	800318c <object_get.constprop.0>
 800325a:	2358      	movs	r3, #88	; 0x58
 800325c:	9502      	str	r5, [sp, #8]
 800325e:	9001      	str	r0, [sp, #4]
 8003260:	9403      	str	r4, [sp, #12]
 8003262:	9304      	str	r3, [sp, #16]
 8003264:	2300      	movs	r3, #0
 8003266:	a801      	add	r0, sp, #4
 8003268:	9305      	str	r3, [sp, #20]
 800326a:	f7ff ff9b 	bl	80031a4 <ipc_call_ms.constprop.2>
 800326e:	b007      	add	sp, #28
 8003270:	bd30      	pop	{r4, r5, pc}

08003272 <stm32_lib_gpio_enable_mask>:
 8003272:	b570      	push	{r4, r5, r6, lr}
 8003274:	1c0e      	adds	r6, r1, #0
 8003276:	1c14      	adds	r4, r2, #0
 8003278:	0105      	lsls	r5, r0, #4
 800327a:	2c00      	cmp	r4, #0
 800327c:	d00c      	beq.n	8003298 <stm32_lib_gpio_enable_mask+0x26>
 800327e:	1c20      	adds	r0, r4, #0
 8003280:	f004 fcd0 	bl	8007c24 <__clzsi2>
 8003284:	231f      	movs	r3, #31
 8003286:	2201      	movs	r2, #1
 8003288:	1a1b      	subs	r3, r3, r0
 800328a:	409a      	lsls	r2, r3
 800328c:	1958      	adds	r0, r3, r5
 800328e:	1c31      	adds	r1, r6, #0
 8003290:	4394      	bics	r4, r2
 8003292:	f7ff ffbf 	bl	8003214 <stm32_lib_gpio_enable_pin>
 8003296:	e7f0      	b.n	800327a <stm32_lib_gpio_enable_mask+0x8>
 8003298:	bd70      	pop	{r4, r5, r6, pc}

0800329a <malloc>:
 800329a:	b508      	push	{r3, lr}
 800329c:	2380      	movs	r3, #128	; 0x80
 800329e:	059b      	lsls	r3, r3, #22
 80032a0:	689a      	ldr	r2, [r3, #8]
 80032a2:	1c01      	adds	r1, r0, #0
 80032a4:	6812      	ldr	r2, [r2, #0]
 80032a6:	6818      	ldr	r0, [r3, #0]
 80032a8:	68d3      	ldr	r3, [r2, #12]
 80032aa:	3008      	adds	r0, #8
 80032ac:	4798      	blx	r3
 80032ae:	bd08      	pop	{r3, pc}

080032b0 <free>:
 80032b0:	b508      	push	{r3, lr}
 80032b2:	2380      	movs	r3, #128	; 0x80
 80032b4:	059b      	lsls	r3, r3, #22
 80032b6:	689a      	ldr	r2, [r3, #8]
 80032b8:	1c01      	adds	r1, r0, #0
 80032ba:	6812      	ldr	r2, [r2, #0]
 80032bc:	6818      	ldr	r0, [r3, #0]
 80032be:	6953      	ldr	r3, [r2, #20]
 80032c0:	3008      	adds	r0, #8
 80032c2:	4798      	blx	r3
 80032c4:	bd08      	pop	{r3, pc}
 80032c6:	0000      	movs	r0, r0

080032c8 <ack.constprop.1>:
 80032c8:	b510      	push	{r4, lr}
 80032ca:	4b0c      	ldr	r3, [pc, #48]	; (80032fc <ack.constprop.1+0x34>)
 80032cc:	b088      	sub	sp, #32
 80032ce:	9304      	str	r3, [sp, #16]
 80032d0:	2380      	movs	r3, #128	; 0x80
 80032d2:	2400      	movs	r4, #0
 80032d4:	059b      	lsls	r3, r3, #22
 80032d6:	689b      	ldr	r3, [r3, #8]
 80032d8:	9003      	str	r0, [sp, #12]
 80032da:	689b      	ldr	r3, [r3, #8]
 80032dc:	9105      	str	r1, [sp, #20]
 80032de:	9206      	str	r2, [sp, #24]
 80032e0:	1c20      	adds	r0, r4, #0
 80032e2:	a901      	add	r1, sp, #4
 80032e4:	9407      	str	r4, [sp, #28]
 80032e6:	699b      	ldr	r3, [r3, #24]
 80032e8:	4798      	blx	r3
 80032ea:	2016      	movs	r0, #22
 80032ec:	a903      	add	r1, sp, #12
 80032ee:	aa01      	add	r2, sp, #4
 80032f0:	1c23      	adds	r3, r4, #0
 80032f2:	f7fc ff71 	bl	80001d8 <svc_call>
 80032f6:	2001      	movs	r0, #1
 80032f8:	b008      	add	sp, #32
 80032fa:	bd10      	pop	{r4, pc}
 80032fc:	000f0001 	.word	0x000f0001

08003300 <libusb_register_descriptor>:
 8003300:	b5f0      	push	{r4, r5, r6, r7, lr}
 8003302:	1c1e      	adds	r6, r3, #0
 8003304:	2301      	movs	r3, #1
 8003306:	b087      	sub	sp, #28
 8003308:	425b      	negs	r3, r3
 800330a:	9001      	str	r0, [sp, #4]
 800330c:	9102      	str	r1, [sp, #8]
 800330e:	9203      	str	r2, [sp, #12]
 8003310:	9305      	str	r3, [sp, #20]
 8003312:	aa05      	add	r2, sp, #20
 8003314:	2300      	movs	r3, #0
 8003316:	202d      	movs	r0, #45	; 0x2d
 8003318:	2102      	movs	r1, #2
 800331a:	f7fc ff5d 	bl	80001d8 <svc_call>
 800331e:	2301      	movs	r3, #1
 8003320:	9a0d      	ldr	r2, [sp, #52]	; 0x34
 8003322:	9f05      	ldr	r7, [sp, #20]
 8003324:	401a      	ands	r2, r3
 8003326:	9200      	str	r2, [sp, #0]
 8003328:	250c      	movs	r5, #12
 800332a:	2a00      	cmp	r2, #0
 800332c:	d101      	bne.n	8003332 <libusb_register_descriptor+0x32>
 800332e:	9d0c      	ldr	r5, [sp, #48]	; 0x30
 8003330:	3508      	adds	r5, #8
 8003332:	1c28      	adds	r0, r5, #0
 8003334:	f7ff ffb1 	bl	800329a <malloc>
 8003338:	1e04      	subs	r4, r0, #0
 800333a:	d02d      	beq.n	8003398 <libusb_register_descriptor+0x98>
 800333c:	9b0d      	ldr	r3, [sp, #52]	; 0x34
 800333e:	7023      	strb	r3, [r4, #0]
 8003340:	466b      	mov	r3, sp
 8003342:	891b      	ldrh	r3, [r3, #8]
 8003344:	70e3      	strb	r3, [r4, #3]
 8003346:	0a1b      	lsrs	r3, r3, #8
 8003348:	7123      	strb	r3, [r4, #4]
 800334a:	466b      	mov	r3, sp
 800334c:	899b      	ldrh	r3, [r3, #12]
 800334e:	7063      	strb	r3, [r4, #1]
 8003350:	0a1b      	lsrs	r3, r3, #8
 8003352:	70a3      	strb	r3, [r4, #2]
 8003354:	9b00      	ldr	r3, [sp, #0]
 8003356:	2b00      	cmp	r3, #0
 8003358:	d001      	beq.n	800335e <libusb_register_descriptor+0x5e>
 800335a:	60a6      	str	r6, [r4, #8]
 800335c:	e005      	b.n	800336a <libusb_register_descriptor+0x6a>
 800335e:	1c20      	adds	r0, r4, #0
 8003360:	1c31      	adds	r1, r6, #0
 8003362:	3008      	adds	r0, #8
 8003364:	1c2a      	adds	r2, r5, #0
 8003366:	f004 fc7b 	bl	8007c60 <memcpy>
 800336a:	2680      	movs	r6, #128	; 0x80
 800336c:	2201      	movs	r2, #1
 800336e:	05b6      	lsls	r6, r6, #22
 8003370:	6833      	ldr	r3, [r6, #0]
 8003372:	1c38      	adds	r0, r7, #0
 8003374:	69d9      	ldr	r1, [r3, #28]
 8003376:	621f      	str	r7, [r3, #32]
 8003378:	430a      	orrs	r2, r1
 800337a:	61da      	str	r2, [r3, #28]
 800337c:	625c      	str	r4, [r3, #36]	; 0x24
 800337e:	629d      	str	r5, [r3, #40]	; 0x28
 8003380:	9901      	ldr	r1, [sp, #4]
 8003382:	1c2a      	adds	r2, r5, #0
 8003384:	f7ff ffa0 	bl	80032c8 <ack.constprop.1>
 8003388:	1c20      	adds	r0, r4, #0
 800338a:	f7ff ff91 	bl	80032b0 <free>
 800338e:	6833      	ldr	r3, [r6, #0]
 8003390:	681b      	ldr	r3, [r3, #0]
 8003392:	4258      	negs	r0, r3
 8003394:	4158      	adcs	r0, r3
 8003396:	b2c0      	uxtb	r0, r0
 8003398:	b007      	add	sp, #28
 800339a:	bdf0      	pop	{r4, r5, r6, r7, pc}

0800339c <printd_handler>:
 800339c:	b508      	push	{r3, lr}
 800339e:	1c03      	adds	r3, r0, #0
 80033a0:	1c0a      	adds	r2, r1, #0
 80033a2:	202f      	movs	r0, #47	; 0x2f
 80033a4:	1c19      	adds	r1, r3, #0
 80033a6:	2300      	movs	r3, #0
 80033a8:	f7fc ff16 	bl	80001d8 <svc_call>
 80033ac:	bd08      	pop	{r3, pc}

080033ae <printf>:
 80033ae:	b40f      	push	{r0, r1, r2, r3}
 80033b0:	2380      	movs	r3, #128	; 0x80
 80033b2:	b507      	push	{r0, r1, r2, lr}
 80033b4:	a904      	add	r1, sp, #16
 80033b6:	c901      	ldmia	r1!, {r0}
 80033b8:	059b      	lsls	r3, r3, #22
 80033ba:	9101      	str	r1, [sp, #4]
 80033bc:	689b      	ldr	r3, [r3, #8]
 80033be:	685b      	ldr	r3, [r3, #4]
 80033c0:	685b      	ldr	r3, [r3, #4]
 80033c2:	4798      	blx	r3
 80033c4:	b003      	add	sp, #12
 80033c6:	bc08      	pop	{r3}
 80033c8:	b004      	add	sp, #16
 80033ca:	4718      	bx	r3

080033cc <printd>:
 80033cc:	b40f      	push	{r0, r1, r2, r3}
 80033ce:	2380      	movs	r3, #128	; 0x80
 80033d0:	b513      	push	{r0, r1, r4, lr}
 80033d2:	a904      	add	r1, sp, #16
 80033d4:	c901      	ldmia	r1!, {r0}
 80033d6:	059b      	lsls	r3, r3, #22
 80033d8:	9101      	str	r1, [sp, #4]
 80033da:	689b      	ldr	r3, [r3, #8]
 80033dc:	4a04      	ldr	r2, [pc, #16]	; (80033f0 <printd+0x24>)
 80033de:	685b      	ldr	r3, [r3, #4]
 80033e0:	681c      	ldr	r4, [r3, #0]
 80033e2:	2300      	movs	r3, #0
 80033e4:	47a0      	blx	r4
 80033e6:	bc13      	pop	{r0, r1, r4}
 80033e8:	bc08      	pop	{r3}
 80033ea:	b004      	add	sp, #16
 80033ec:	4718      	bx	r3
 80033ee:	46c0      	nop			; (mov r8, r8)
 80033f0:	0800339d 	.word	0x0800339d

080033f4 <ms_to_time>:
 80033f4:	b508      	push	{r3, lr}
 80033f6:	2380      	movs	r3, #128	; 0x80
 80033f8:	059b      	lsls	r3, r3, #22
 80033fa:	689b      	ldr	r3, [r3, #8]
 80033fc:	689b      	ldr	r3, [r3, #8]
 80033fe:	699b      	ldr	r3, [r3, #24]
 8003400:	4798      	blx	r3
 8003402:	bd08      	pop	{r3, pc}

08003404 <object_get>:
 8003404:	2301      	movs	r3, #1
 8003406:	b507      	push	{r0, r1, r2, lr}
 8003408:	425b      	negs	r3, r3
 800340a:	1c01      	adds	r1, r0, #0
 800340c:	9301      	str	r3, [sp, #4]
 800340e:	202d      	movs	r0, #45	; 0x2d
 8003410:	aa01      	add	r2, sp, #4
 8003412:	2300      	movs	r3, #0
 8003414:	f7fc fee0 	bl	80001d8 <svc_call>
 8003418:	9801      	ldr	r0, [sp, #4]
 800341a:	bd0e      	pop	{r1, r2, r3, pc}

0800341c <ipc_call_ms.constprop.17>:
 800341c:	b513      	push	{r0, r1, r4, lr}
 800341e:	1c04      	adds	r4, r0, #0
 8003420:	4669      	mov	r1, sp
 8003422:	2000      	movs	r0, #0
 8003424:	f7ff ffe6 	bl	80033f4 <ms_to_time>
 8003428:	2016      	movs	r0, #22
 800342a:	1c21      	adds	r1, r4, #0
 800342c:	466a      	mov	r2, sp
 800342e:	2300      	movs	r3, #0
 8003430:	f7fc fed2 	bl	80001d8 <svc_call>
 8003434:	bd13      	pop	{r0, r1, r4, pc}
 8003436:	0000      	movs	r0, r0

08003438 <fopen>:
 8003438:	b57f      	push	{r0, r1, r2, r3, r4, r5, r6, lr}
 800343a:	4b05      	ldr	r3, [pc, #20]	; (8003450 <fopen+0x18>)
 800343c:	9001      	str	r0, [sp, #4]
 800343e:	a801      	add	r0, sp, #4
 8003440:	9302      	str	r3, [sp, #8]
 8003442:	9103      	str	r1, [sp, #12]
 8003444:	9204      	str	r2, [sp, #16]
 8003446:	f7ff ffe9 	bl	800341c <ipc_call_ms.constprop.17>
 800344a:	9803      	ldr	r0, [sp, #12]
 800344c:	b007      	add	sp, #28
 800344e:	bd00      	pop	{pc}
 8003450:	00001005 	.word	0x00001005

08003454 <adc_get.constprop.4>:
 8003454:	b57f      	push	{r0, r1, r2, r3, r4, r5, r6, lr}
 8003456:	2001      	movs	r0, #1
 8003458:	f7ff ffd4 	bl	8003404 <object_get>
 800345c:	2380      	movs	r3, #128	; 0x80
 800345e:	031b      	lsls	r3, r3, #12
 8003460:	9302      	str	r3, [sp, #8]
 8003462:	4b06      	ldr	r3, [pc, #24]	; (800347c <adc_get.constprop.4+0x28>)
 8003464:	9001      	str	r0, [sp, #4]
 8003466:	9303      	str	r3, [sp, #12]
 8003468:	2300      	movs	r3, #0
 800346a:	a801      	add	r0, sp, #4
 800346c:	9304      	str	r3, [sp, #16]
 800346e:	9305      	str	r3, [sp, #20]
 8003470:	f7ff ffd4 	bl	800341c <ipc_call_ms.constprop.17>
 8003474:	9804      	ldr	r0, [sp, #16]
 8003476:	b007      	add	sp, #28
 8003478:	bd00      	pop	{pc}
 800347a:	46c0      	nop			; (mov r8, r8)
 800347c:	00070011 	.word	0x00070011

08003480 <app>:
 8003480:	b5f0      	push	{r4, r5, r6, r7, lr}
 8003482:	2000      	movs	r0, #0
 8003484:	2680      	movs	r6, #128	; 0x80
 8003486:	b08f      	sub	sp, #60	; 0x3c
 8003488:	aa09      	add	r2, sp, #36	; 0x24
 800348a:	1c03      	adds	r3, r0, #0
 800348c:	49a9      	ldr	r1, [pc, #676]	; (8003734 <app+0x2b4>)
 800348e:	05b6      	lsls	r6, r6, #22
 8003490:	f7fc fea2 	bl	80001d8 <svc_call>
 8003494:	68b3      	ldr	r3, [r6, #8]
 8003496:	2100      	movs	r1, #0
 8003498:	695b      	ldr	r3, [r3, #20]
 800349a:	201e      	movs	r0, #30
 800349c:	681b      	ldr	r3, [r3, #0]
 800349e:	4798      	blx	r3
 80034a0:	68b3      	ldr	r3, [r6, #8]
 80034a2:	201e      	movs	r0, #30
 80034a4:	695b      	ldr	r3, [r3, #20]
 80034a6:	25a0      	movs	r5, #160	; 0xa0
 80034a8:	699b      	ldr	r3, [r3, #24]
 80034aa:	4798      	blx	r3
 80034ac:	2001      	movs	r0, #1
 80034ae:	f7ff ffa9 	bl	8003404 <object_get>
 80034b2:	2380      	movs	r3, #128	; 0x80
 80034b4:	025b      	lsls	r3, r3, #9
 80034b6:	930a      	str	r3, [sp, #40]	; 0x28
 80034b8:	2309      	movs	r3, #9
 80034ba:	930b      	str	r3, [sp, #44]	; 0x2c
 80034bc:	3311      	adds	r3, #17
 80034be:	9009      	str	r0, [sp, #36]	; 0x24
 80034c0:	930c      	str	r3, [sp, #48]	; 0x30
 80034c2:	a809      	add	r0, sp, #36	; 0x24
 80034c4:	3b16      	subs	r3, #22
 80034c6:	930d      	str	r3, [sp, #52]	; 0x34
 80034c8:	02ed      	lsls	r5, r5, #11
 80034ca:	f7ff ffa7 	bl	800341c <ipc_call_ms.constprop.17>
 80034ce:	2001      	movs	r0, #1
 80034d0:	f7ff ff98 	bl	8003404 <object_get>
 80034d4:	1c29      	adds	r1, r5, #0
 80034d6:	2202      	movs	r2, #2
 80034d8:	f7ff ffae 	bl	8003438 <fopen>
 80034dc:	23e1      	movs	r3, #225	; 0xe1
 80034de:	025b      	lsls	r3, r3, #9
 80034e0:	930c      	str	r3, [sp, #48]	; 0x30
 80034e2:	4b95      	ldr	r3, [pc, #596]	; (8003738 <app+0x2b8>)
 80034e4:	2001      	movs	r0, #1
 80034e6:	930d      	str	r3, [sp, #52]	; 0x34
 80034e8:	23c0      	movs	r3, #192	; 0xc0
 80034ea:	02db      	lsls	r3, r3, #11
 80034ec:	930a      	str	r3, [sp, #40]	; 0x28
 80034ee:	950b      	str	r5, [sp, #44]	; 0x2c
 80034f0:	f7ff ff88 	bl	8003404 <object_get>
 80034f4:	9009      	str	r0, [sp, #36]	; 0x24
 80034f6:	a809      	add	r0, sp, #36	; 0x24
 80034f8:	f7ff ff90 	bl	800341c <ipc_call_ms.constprop.17>
 80034fc:	2001      	movs	r0, #1
 80034fe:	f7ff ff81 	bl	8003404 <object_get>
 8003502:	2400      	movs	r4, #0
 8003504:	4b8d      	ldr	r3, [pc, #564]	; (800373c <app+0x2bc>)
 8003506:	9009      	str	r0, [sp, #36]	; 0x24
 8003508:	a809      	add	r0, sp, #36	; 0x24
 800350a:	930a      	str	r3, [sp, #40]	; 0x28
 800350c:	950b      	str	r5, [sp, #44]	; 0x2c
 800350e:	940c      	str	r4, [sp, #48]	; 0x30
 8003510:	940d      	str	r4, [sp, #52]	; 0x34
 8003512:	f7ff ff83 	bl	800341c <ipc_call_ms.constprop.17>
 8003516:	2001      	movs	r0, #1
 8003518:	f7ff ff74 	bl	8003404 <object_get>
 800351c:	4b88      	ldr	r3, [pc, #544]	; (8003740 <app+0x2c0>)
 800351e:	9009      	str	r0, [sp, #36]	; 0x24
 8003520:	a809      	add	r0, sp, #36	; 0x24
 8003522:	930a      	str	r3, [sp, #40]	; 0x28
 8003524:	950b      	str	r5, [sp, #44]	; 0x2c
 8003526:	940c      	str	r4, [sp, #48]	; 0x30
 8003528:	940d      	str	r4, [sp, #52]	; 0x34
 800352a:	f7ff ff77 	bl	800341c <ipc_call_ms.constprop.17>
 800352e:	9b0c      	ldr	r3, [sp, #48]	; 0x30
 8003530:	1c21      	adds	r1, r4, #0
 8003532:	1c1a      	adds	r2, r3, #0
 8003534:	9301      	str	r3, [sp, #4]
 8003536:	202c      	movs	r0, #44	; 0x2c
 8003538:	1c23      	adds	r3, r4, #0
 800353a:	f7fc fe4d 	bl	80001d8 <svc_call>
 800353e:	1c20      	adds	r0, r4, #0
 8003540:	f7ff ff60 	bl	8003404 <object_get>
 8003544:	1c01      	adds	r1, r0, #0
 8003546:	1c43      	adds	r3, r0, #1
 8003548:	d008      	beq.n	800355c <app+0xdc>
 800354a:	1c23      	adds	r3, r4, #0
 800354c:	2018      	movs	r0, #24
 800354e:	aa09      	add	r2, sp, #36	; 0x24
 8003550:	6835      	ldr	r5, [r6, #0]
 8003552:	9409      	str	r4, [sp, #36]	; 0x24
 8003554:	f7fc fe40 	bl	80001d8 <svc_call>
 8003558:	9b09      	ldr	r3, [sp, #36]	; 0x24
 800355a:	616b      	str	r3, [r5, #20]
 800355c:	22b0      	movs	r2, #176	; 0xb0
 800355e:	2300      	movs	r3, #0
 8003560:	0352      	lsls	r2, r2, #13
 8003562:	2010      	movs	r0, #16
 8003564:	a909      	add	r1, sp, #36	; 0x24
 8003566:	f7fc fe37 	bl	80001d8 <svc_call>
 800356a:	20fa      	movs	r0, #250	; 0xfa
 800356c:	9c09      	ldr	r4, [sp, #36]	; 0x24
 800356e:	0080      	lsls	r0, r0, #2
 8003570:	a909      	add	r1, sp, #36	; 0x24
 8003572:	9408      	str	r4, [sp, #32]
 8003574:	f7ff ff3e 	bl	80033f4 <ms_to_time>
 8003578:	1c21      	adds	r1, r4, #0
 800357a:	2011      	movs	r0, #17
 800357c:	aa09      	add	r2, sp, #36	; 0x24
 800357e:	2300      	movs	r3, #0
 8003580:	f7fc fe2a 	bl	80001d8 <svc_call>
 8003584:	2200      	movs	r2, #0
 8003586:	200c      	movs	r0, #12
 8003588:	a902      	add	r1, sp, #8
 800358a:	1c13      	adds	r3, r2, #0
 800358c:	f7fc fe24 	bl	80001d8 <svc_call>
 8003590:	4c6c      	ldr	r4, [pc, #432]	; (8003744 <app+0x2c4>)
 8003592:	2100      	movs	r1, #0
 8003594:	2030      	movs	r0, #48	; 0x30
 8003596:	1c0a      	adds	r2, r1, #0
 8003598:	1c0b      	adds	r3, r1, #0
 800359a:	3c01      	subs	r4, #1
 800359c:	f7fc fe1c 	bl	80001d8 <svc_call>
 80035a0:	2c00      	cmp	r4, #0
 80035a2:	d1f6      	bne.n	8003592 <app+0x112>
 80035a4:	2580      	movs	r5, #128	; 0x80
 80035a6:	05ad      	lsls	r5, r5, #22
 80035a8:	68ab      	ldr	r3, [r5, #8]
 80035aa:	a802      	add	r0, sp, #8
 80035ac:	689b      	ldr	r3, [r3, #8]
 80035ae:	6adb      	ldr	r3, [r3, #44]	; 0x2c
 80035b0:	4798      	blx	r3
 80035b2:	4964      	ldr	r1, [pc, #400]	; (8003744 <app+0x2c4>)
 80035b4:	1c06      	adds	r6, r0, #0
 80035b6:	f004 f9b3 	bl	8007920 <__aeabi_uidiv>
 80035ba:	21fa      	movs	r1, #250	; 0xfa
 80035bc:	1c07      	adds	r7, r0, #0
 80035be:	0089      	lsls	r1, r1, #2
 80035c0:	1c30      	adds	r0, r6, #0
 80035c2:	f004 f9ad 	bl	8007920 <__aeabi_uidiv>
 80035c6:	210a      	movs	r1, #10
 80035c8:	f004 fa30 	bl	8007a2c <__aeabi_uidivmod>
 80035cc:	485e      	ldr	r0, [pc, #376]	; (8003748 <app+0x2c8>)
 80035ce:	1c0a      	adds	r2, r1, #0
 80035d0:	1c39      	adds	r1, r7, #0
 80035d2:	f7ff feec 	bl	80033ae <printf>
 80035d6:	1c22      	adds	r2, r4, #0
 80035d8:	1c23      	adds	r3, r4, #0
 80035da:	200c      	movs	r0, #12
 80035dc:	a902      	add	r1, sp, #8
 80035de:	f7fc fdfb 	bl	80001d8 <svc_call>
 80035e2:	4c58      	ldr	r4, [pc, #352]	; (8003744 <app+0x2c4>)
 80035e4:	2100      	movs	r1, #0
 80035e6:	2008      	movs	r0, #8
 80035e8:	1c0a      	adds	r2, r1, #0
 80035ea:	1c0b      	adds	r3, r1, #0
 80035ec:	3c01      	subs	r4, #1
 80035ee:	f7fc fdf3 	bl	80001d8 <svc_call>
 80035f2:	2c00      	cmp	r4, #0
 80035f4:	d1f6      	bne.n	80035e4 <app+0x164>
 80035f6:	68ab      	ldr	r3, [r5, #8]
 80035f8:	a802      	add	r0, sp, #8
 80035fa:	689b      	ldr	r3, [r3, #8]
 80035fc:	6adb      	ldr	r3, [r3, #44]	; 0x2c
 80035fe:	4798      	blx	r3
 8003600:	4950      	ldr	r1, [pc, #320]	; (8003744 <app+0x2c4>)
 8003602:	1c05      	adds	r5, r0, #0
 8003604:	f004 f98c 	bl	8007920 <__aeabi_uidiv>
 8003608:	21fa      	movs	r1, #250	; 0xfa
 800360a:	1c06      	adds	r6, r0, #0
 800360c:	0089      	lsls	r1, r1, #2
 800360e:	1c28      	adds	r0, r5, #0
 8003610:	f004 f986 	bl	8007920 <__aeabi_uidiv>
 8003614:	210a      	movs	r1, #10
 8003616:	f004 fa09 	bl	8007a2c <__aeabi_uidivmod>
 800361a:	484c      	ldr	r0, [pc, #304]	; (800374c <app+0x2cc>)
 800361c:	1c0a      	adds	r2, r1, #0
 800361e:	1c31      	adds	r1, r6, #0
 8003620:	f7ff fec5 	bl	80033ae <printf>
 8003624:	2001      	movs	r0, #1
 8003626:	f7ff feed 	bl	8003404 <object_get>
 800362a:	2380      	movs	r3, #128	; 0x80
 800362c:	9009      	str	r0, [sp, #36]	; 0x24
 800362e:	029b      	lsls	r3, r3, #10
 8003630:	a809      	add	r0, sp, #36	; 0x24
 8003632:	930a      	str	r3, [sp, #40]	; 0x28
 8003634:	940b      	str	r4, [sp, #44]	; 0x2c
 8003636:	940c      	str	r4, [sp, #48]	; 0x30
 8003638:	940d      	str	r4, [sp, #52]	; 0x34
 800363a:	f7ff feef 	bl	800341c <ipc_call_ms.constprop.17>
 800363e:	9b0c      	ldr	r3, [sp, #48]	; 0x30
 8003640:	4843      	ldr	r0, [pc, #268]	; (8003750 <app+0x2d0>)
 8003642:	1c19      	adds	r1, r3, #0
 8003644:	9301      	str	r3, [sp, #4]
 8003646:	f7ff feb2 	bl	80033ae <printf>
 800364a:	1c23      	adds	r3, r4, #0
 800364c:	1c21      	adds	r1, r4, #0
 800364e:	1c22      	adds	r2, r4, #0
 8003650:	2009      	movs	r0, #9
 8003652:	f7fc fdc1 	bl	80001d8 <svc_call>
 8003656:	483f      	ldr	r0, [pc, #252]	; (8003754 <app+0x2d4>)
 8003658:	f7ff fea9 	bl	80033ae <printf>
 800365c:	a804      	add	r0, sp, #16
 800365e:	f000 f95f 	bl	8003920 <comm_init>
 8003662:	2001      	movs	r0, #1
 8003664:	f7ff fece 	bl	8003404 <object_get>
 8003668:	493b      	ldr	r1, [pc, #236]	; (8003758 <app+0x2d8>)
 800366a:	1c22      	adds	r2, r4, #0
 800366c:	f7ff fee4 	bl	8003438 <fopen>
 8003670:	2001      	movs	r0, #1
 8003672:	f7ff fec7 	bl	8003404 <object_get>
 8003676:	4939      	ldr	r1, [pc, #228]	; (800375c <app+0x2dc>)
 8003678:	2205      	movs	r2, #5
 800367a:	f7ff fedd 	bl	8003438 <fopen>
 800367e:	f7ff fee9 	bl	8003454 <adc_get.constprop.4>
 8003682:	2680      	movs	r6, #128	; 0x80
 8003684:	2400      	movs	r4, #0
 8003686:	2502      	movs	r5, #2
 8003688:	05b6      	lsls	r6, r6, #22
 800368a:	6833      	ldr	r3, [r6, #0]
 800368c:	1c20      	adds	r0, r4, #0
 800368e:	601c      	str	r4, [r3, #0]
 8003690:	a902      	add	r1, sp, #8
 8003692:	426d      	negs	r5, r5
 8003694:	f7ff feae 	bl	80033f4 <ms_to_time>
 8003698:	a909      	add	r1, sp, #36	; 0x24
 800369a:	2015      	movs	r0, #21
 800369c:	aa02      	add	r2, sp, #8
 800369e:	1c2b      	adds	r3, r5, #0
 80036a0:	f7fc fd9a 	bl	80001d8 <svc_call>
 80036a4:	990a      	ldr	r1, [sp, #40]	; 0x28
 80036a6:	2901      	cmp	r1, #1
 80036a8:	d011      	beq.n	80036ce <app+0x24e>
 80036aa:	42a1      	cmp	r1, r4
 80036ac:	d035      	beq.n	800371a <app+0x29a>
 80036ae:	2902      	cmp	r1, #2
 80036b0:	d012      	beq.n	80036d8 <app+0x258>
 80036b2:	23f0      	movs	r3, #240	; 0xf0
 80036b4:	031b      	lsls	r3, r3, #12
 80036b6:	4299      	cmp	r1, r3
 80036b8:	d122      	bne.n	8003700 <app+0x280>
 80036ba:	9b0b      	ldr	r3, [sp, #44]	; 0x2c
 80036bc:	a804      	add	r0, sp, #16
 80036be:	9301      	str	r3, [sp, #4]
 80036c0:	466b      	mov	r3, sp
 80036c2:	7919      	ldrb	r1, [r3, #4]
 80036c4:	f000 f878 	bl	80037b8 <comm_usbd_alert>
 80036c8:	42a0      	cmp	r0, r4
 80036ca:	d0da      	beq.n	8003682 <app+0x202>
 80036cc:	e025      	b.n	800371a <app+0x29a>
 80036ce:	a804      	add	r0, sp, #16
 80036d0:	990d      	ldr	r1, [sp, #52]	; 0x34
 80036d2:	f000 f8e9 	bl	80038a8 <comm_usbd_stream_rx>
 80036d6:	e7d4      	b.n	8003682 <app+0x202>
 80036d8:	4821      	ldr	r0, [pc, #132]	; (8003760 <app+0x2e0>)
 80036da:	f7ff fe68 	bl	80033ae <printf>
 80036de:	f7ff feb9 	bl	8003454 <adc_get.constprop.4>
 80036e2:	1c01      	adds	r1, r0, #0
 80036e4:	481f      	ldr	r0, [pc, #124]	; (8003764 <app+0x2e4>)
 80036e6:	f7ff fe62 	bl	80033ae <printf>
 80036ea:	20fa      	movs	r0, #250	; 0xfa
 80036ec:	9d08      	ldr	r5, [sp, #32]
 80036ee:	0080      	lsls	r0, r0, #2
 80036f0:	a902      	add	r1, sp, #8
 80036f2:	f7ff fe7f 	bl	80033f4 <ms_to_time>
 80036f6:	2011      	movs	r0, #17
 80036f8:	1c29      	adds	r1, r5, #0
 80036fa:	aa02      	add	r2, sp, #8
 80036fc:	1c23      	adds	r3, r4, #0
 80036fe:	e016      	b.n	800372e <app+0x2ae>
 8003700:	4819      	ldr	r0, [pc, #100]	; (8003768 <app+0x2e8>)
 8003702:	f7ff fe54 	bl	80033ae <printf>
 8003706:	4819      	ldr	r0, [pc, #100]	; (800376c <app+0x2ec>)
 8003708:	9909      	ldr	r1, [sp, #36]	; 0x24
 800370a:	f7ff fe50 	bl	80033ae <printf>
 800370e:	4818      	ldr	r0, [pc, #96]	; (8003770 <app+0x2f0>)
 8003710:	990b      	ldr	r1, [sp, #44]	; 0x2c
 8003712:	f7ff fe4c 	bl	80033ae <printf>
 8003716:	6833      	ldr	r3, [r6, #0]
 8003718:	601d      	str	r5, [r3, #0]
 800371a:	2380      	movs	r3, #128	; 0x80
 800371c:	2200      	movs	r2, #0
 800371e:	059b      	lsls	r3, r3, #22
 8003720:	681b      	ldr	r3, [r3, #0]
 8003722:	2014      	movs	r0, #20
 8003724:	681b      	ldr	r3, [r3, #0]
 8003726:	a909      	add	r1, sp, #36	; 0x24
 8003728:	9301      	str	r3, [sp, #4]
 800372a:	930d      	str	r3, [sp, #52]	; 0x34
 800372c:	1c13      	adds	r3, r2, #0
 800372e:	f7fc fd53 	bl	80001d8 <svc_call>
 8003732:	e7a6      	b.n	8003682 <app+0x202>
 8003734:	080086fc 	.word	0x080086fc
 8003738:	00084e01 	.word	0x00084e01
 800373c:	00060004 	.word	0x00060004
 8003740:	00001008 	.word	0x00001008
 8003744:	00002710 	.word	0x00002710
 8003748:	08008500 	.word	0x08008500
 800374c:	08008524 	.word	0x08008524
 8003750:	08008543 	.word	0x08008543
 8003754:	08008554 	.word	0x08008554
 8003758:	00070013 	.word	0x00070013
 800375c:	00070011 	.word	0x00070011
 8003760:	0800855f 	.word	0x0800855f
 8003764:	08008578 	.word	0x08008578
 8003768:	08008583 	.word	0x08008583
 800376c:	08008598 	.word	0x08008598
 8003770:	080085a6 	.word	0x080085a6

08003774 <stream_listen.constprop.5>:
 8003774:	b510      	push	{r4, lr}
 8003776:	2480      	movs	r4, #128	; 0x80
 8003778:	2300      	movs	r3, #0
 800377a:	05a4      	lsls	r4, r4, #22
 800377c:	6822      	ldr	r2, [r4, #0]
 800377e:	1c01      	adds	r1, r0, #0
 8003780:	6013      	str	r3, [r2, #0]
 8003782:	201c      	movs	r0, #28
 8003784:	1c1a      	adds	r2, r3, #0
 8003786:	f7fc fd27 	bl	80001d8 <svc_call>
 800378a:	6823      	ldr	r3, [r4, #0]
 800378c:	6818      	ldr	r0, [r3, #0]
 800378e:	4243      	negs	r3, r0
 8003790:	4158      	adcs	r0, r3
 8003792:	b2c0      	uxtb	r0, r0
 8003794:	bd10      	pop	{r4, pc}

08003796 <ipc_call_ms.constprop.8>:
 8003796:	2380      	movs	r3, #128	; 0x80
 8003798:	b513      	push	{r0, r1, r4, lr}
 800379a:	1c04      	adds	r4, r0, #0
 800379c:	059b      	lsls	r3, r3, #22
 800379e:	689b      	ldr	r3, [r3, #8]
 80037a0:	4669      	mov	r1, sp
 80037a2:	689b      	ldr	r3, [r3, #8]
 80037a4:	2000      	movs	r0, #0
 80037a6:	699b      	ldr	r3, [r3, #24]
 80037a8:	4798      	blx	r3
 80037aa:	2016      	movs	r0, #22
 80037ac:	1c21      	adds	r1, r4, #0
 80037ae:	466a      	mov	r2, sp
 80037b0:	2300      	movs	r3, #0
 80037b2:	f7fc fd11 	bl	80001d8 <svc_call>
 80037b6:	bd13      	pop	{r0, r1, r4, pc}

080037b8 <comm_usbd_alert>:
 80037b8:	b5f0      	push	{r4, r5, r6, r7, lr}
 80037ba:	2500      	movs	r5, #0
 80037bc:	b089      	sub	sp, #36	; 0x24
 80037be:	2903      	cmp	r1, #3
 80037c0:	d864      	bhi.n	800388c <comm_usbd_alert+0xd4>
 80037c2:	1c04      	adds	r4, r0, #0
 80037c4:	1c08      	adds	r0, r1, #0
 80037c6:	f004 f897 	bl	80078f8 <__gnu_thumb1_case_uqi>
 80037ca:	3d3d      	.short	0x3d3d
 80037cc:	0202      	.short	0x0202
 80037ce:	2301      	movs	r3, #1
 80037d0:	2500      	movs	r5, #0
 80037d2:	425b      	negs	r3, r3
 80037d4:	2102      	movs	r1, #2
 80037d6:	aa03      	add	r2, sp, #12
 80037d8:	9303      	str	r3, [sp, #12]
 80037da:	202d      	movs	r0, #45	; 0x2d
 80037dc:	2300      	movs	r3, #0
 80037de:	f7fc fcfb 	bl	80001d8 <svc_call>
 80037e2:	4e2c      	ldr	r6, [pc, #176]	; (8003894 <comm_usbd_alert+0xdc>)
 80037e4:	4b2c      	ldr	r3, [pc, #176]	; (8003898 <comm_usbd_alert+0xe0>)
 80037e6:	a803      	add	r0, sp, #12
 80037e8:	9f03      	ldr	r7, [sp, #12]
 80037ea:	9304      	str	r3, [sp, #16]
 80037ec:	9605      	str	r6, [sp, #20]
 80037ee:	9506      	str	r5, [sp, #24]
 80037f0:	9507      	str	r5, [sp, #28]
 80037f2:	f7ff ffd0 	bl	8003796 <ipc_call_ms.constprop.8>
 80037f6:	9b06      	ldr	r3, [sp, #24]
 80037f8:	a803      	add	r0, sp, #12
 80037fa:	9300      	str	r3, [sp, #0]
 80037fc:	4b27      	ldr	r3, [pc, #156]	; (800389c <comm_usbd_alert+0xe4>)
 80037fe:	9703      	str	r7, [sp, #12]
 8003800:	9304      	str	r3, [sp, #16]
 8003802:	9605      	str	r6, [sp, #20]
 8003804:	9506      	str	r5, [sp, #24]
 8003806:	9507      	str	r5, [sp, #28]
 8003808:	f7ff ffc5 	bl	8003796 <ipc_call_ms.constprop.8>
 800380c:	9b06      	ldr	r3, [sp, #24]
 800380e:	2018      	movs	r0, #24
 8003810:	9301      	str	r3, [sp, #4]
 8003812:	60a3      	str	r3, [r4, #8]
 8003814:	9900      	ldr	r1, [sp, #0]
 8003816:	aa03      	add	r2, sp, #12
 8003818:	1c2b      	adds	r3, r5, #0
 800381a:	9503      	str	r5, [sp, #12]
 800381c:	f7fc fcdc 	bl	80001d8 <svc_call>
 8003820:	9b03      	ldr	r3, [sp, #12]
 8003822:	2018      	movs	r0, #24
 8003824:	6023      	str	r3, [r4, #0]
 8003826:	68a1      	ldr	r1, [r4, #8]
 8003828:	aa03      	add	r2, sp, #12
 800382a:	1c2b      	adds	r3, r5, #0
 800382c:	9503      	str	r5, [sp, #12]
 800382e:	f7fc fcd3 	bl	80001d8 <svc_call>
 8003832:	9b03      	ldr	r3, [sp, #12]
 8003834:	68a0      	ldr	r0, [r4, #8]
 8003836:	6063      	str	r3, [r4, #4]
 8003838:	2301      	movs	r3, #1
 800383a:	7323      	strb	r3, [r4, #12]
 800383c:	f7ff ff9a 	bl	8003774 <stream_listen.constprop.5>
 8003840:	4817      	ldr	r0, [pc, #92]	; (80038a0 <comm_usbd_alert+0xe8>)
 8003842:	e021      	b.n	8003888 <comm_usbd_alert+0xd0>
 8003844:	7b23      	ldrb	r3, [r4, #12]
 8003846:	2501      	movs	r5, #1
 8003848:	2b00      	cmp	r3, #0
 800384a:	d01f      	beq.n	800388c <comm_usbd_alert+0xd4>
 800384c:	2380      	movs	r3, #128	; 0x80
 800384e:	2600      	movs	r6, #0
 8003850:	059b      	lsls	r3, r3, #22
 8003852:	681b      	ldr	r3, [r3, #0]
 8003854:	68a1      	ldr	r1, [r4, #8]
 8003856:	201d      	movs	r0, #29
 8003858:	601e      	str	r6, [r3, #0]
 800385a:	1c32      	adds	r2, r6, #0
 800385c:	1c33      	adds	r3, r6, #0
 800385e:	f7fc fcbb 	bl	80001d8 <svc_call>
 8003862:	2019      	movs	r0, #25
 8003864:	6821      	ldr	r1, [r4, #0]
 8003866:	1c32      	adds	r2, r6, #0
 8003868:	1c33      	adds	r3, r6, #0
 800386a:	f7fc fcb5 	bl	80001d8 <svc_call>
 800386e:	2019      	movs	r0, #25
 8003870:	1c33      	adds	r3, r6, #0
 8003872:	6861      	ldr	r1, [r4, #4]
 8003874:	1c32      	adds	r2, r6, #0
 8003876:	f7fc fcaf 	bl	80001d8 <svc_call>
 800387a:	2301      	movs	r3, #1
 800387c:	4809      	ldr	r0, [pc, #36]	; (80038a4 <comm_usbd_alert+0xec>)
 800387e:	425b      	negs	r3, r3
 8003880:	60a3      	str	r3, [r4, #8]
 8003882:	6023      	str	r3, [r4, #0]
 8003884:	6063      	str	r3, [r4, #4]
 8003886:	7326      	strb	r6, [r4, #12]
 8003888:	f7ff fd91 	bl	80033ae <printf>
 800388c:	1c28      	adds	r0, r5, #0
 800388e:	b009      	add	sp, #36	; 0x24
 8003890:	bdf0      	pop	{r4, r5, r6, r7, pc}
 8003892:	46c0      	nop			; (mov r8, r8)
 8003894:	000e0100 	.word	0x000e0100
 8003898:	00001008 	.word	0x00001008
 800389c:	00001007 	.word	0x00001007
 80038a0:	0800860c 	.word	0x0800860c
 80038a4:	08008618 	.word	0x08008618

080038a8 <comm_usbd_stream_rx>:
 80038a8:	b5f0      	push	{r4, r5, r6, r7, lr}
 80038aa:	1c04      	adds	r4, r0, #0
 80038ac:	b085      	sub	sp, #20
 80038ae:	4818      	ldr	r0, [pc, #96]	; (8003910 <comm_usbd_stream_rx+0x68>)
 80038b0:	9101      	str	r1, [sp, #4]
 80038b2:	2600      	movs	r6, #0
 80038b4:	f7ff fd7b 	bl	80033ae <printf>
 80038b8:	9b01      	ldr	r3, [sp, #4]
 80038ba:	429e      	cmp	r6, r3
 80038bc:	d020      	beq.n	8003900 <comm_usbd_stream_rx+0x58>
 80038be:	2780      	movs	r7, #128	; 0x80
 80038c0:	2200      	movs	r2, #0
 80038c2:	05bf      	lsls	r7, r7, #22
 80038c4:	683b      	ldr	r3, [r7, #0]
 80038c6:	6861      	ldr	r1, [r4, #4]
 80038c8:	601a      	str	r2, [r3, #0]
 80038ca:	ab02      	add	r3, sp, #8
 80038cc:	1ddd      	adds	r5, r3, #7
 80038ce:	201f      	movs	r0, #31
 80038d0:	1c2a      	adds	r2, r5, #0
 80038d2:	2301      	movs	r3, #1
 80038d4:	f7fc fc80 	bl	80001d8 <svc_call>
 80038d8:	2200      	movs	r2, #0
 80038da:	683b      	ldr	r3, [r7, #0]
 80038dc:	6821      	ldr	r1, [r4, #0]
 80038de:	201e      	movs	r0, #30
 80038e0:	601a      	str	r2, [r3, #0]
 80038e2:	2301      	movs	r3, #1
 80038e4:	1c2a      	adds	r2, r5, #0
 80038e6:	f7fc fc77 	bl	80001d8 <svc_call>
 80038ea:	7829      	ldrb	r1, [r5, #0]
 80038ec:	4809      	ldr	r0, [pc, #36]	; (8003914 <comm_usbd_stream_rx+0x6c>)
 80038ee:	1c0b      	adds	r3, r1, #0
 80038f0:	3b20      	subs	r3, #32
 80038f2:	2b5e      	cmp	r3, #94	; 0x5e
 80038f4:	d900      	bls.n	80038f8 <comm_usbd_stream_rx+0x50>
 80038f6:	4808      	ldr	r0, [pc, #32]	; (8003918 <comm_usbd_stream_rx+0x70>)
 80038f8:	f7ff fd59 	bl	80033ae <printf>
 80038fc:	3601      	adds	r6, #1
 80038fe:	e7db      	b.n	80038b8 <comm_usbd_stream_rx+0x10>
 8003900:	4806      	ldr	r0, [pc, #24]	; (800391c <comm_usbd_stream_rx+0x74>)
 8003902:	f7ff fd54 	bl	80033ae <printf>
 8003906:	68a0      	ldr	r0, [r4, #8]
 8003908:	f7ff ff34 	bl	8003774 <stream_listen.constprop.5>
 800390c:	b005      	add	sp, #20
 800390e:	bdf0      	pop	{r4, r5, r6, r7, pc}
 8003910:	08008623 	.word	0x08008623
 8003914:	0800862b 	.word	0x0800862b
 8003918:	0800862e 	.word	0x0800862e
 800391c:	080087b2 	.word	0x080087b2

08003920 <comm_init>:
 8003920:	2301      	movs	r3, #1
 8003922:	425b      	negs	r3, r3
 8003924:	b5f0      	push	{r4, r5, r6, r7, lr}
 8003926:	6083      	str	r3, [r0, #8]
 8003928:	6003      	str	r3, [r0, #0]
 800392a:	6043      	str	r3, [r0, #4]
 800392c:	2000      	movs	r0, #0
 800392e:	2400      	movs	r4, #0
 8003930:	b089      	sub	sp, #36	; 0x24
 8003932:	aa03      	add	r2, sp, #12
 8003934:	4931      	ldr	r1, [pc, #196]	; (80039fc <comm_init+0xdc>)
 8003936:	1c03      	adds	r3, r0, #0
 8003938:	f7fc fc4e 	bl	80001d8 <svc_call>
 800393c:	4b30      	ldr	r3, [pc, #192]	; (8003a00 <comm_init+0xe0>)
 800393e:	a803      	add	r0, sp, #12
 8003940:	2501      	movs	r5, #1
 8003942:	9304      	str	r3, [sp, #16]
 8003944:	9405      	str	r4, [sp, #20]
 8003946:	9406      	str	r4, [sp, #24]
 8003948:	9407      	str	r4, [sp, #28]
 800394a:	f7ff ff24 	bl	8003796 <ipc_call_ms.constprop.8>
 800394e:	2312      	movs	r3, #18
 8003950:	1c21      	adds	r1, r4, #0
 8003952:	9300      	str	r3, [sp, #0]
 8003954:	1c22      	adds	r2, r4, #0
 8003956:	9501      	str	r5, [sp, #4]
 8003958:	1c20      	adds	r0, r4, #0
 800395a:	4b2a      	ldr	r3, [pc, #168]	; (8003a04 <comm_init+0xe4>)
 800395c:	f7ff fcd0 	bl	8003300 <libusb_register_descriptor>
 8003960:	2343      	movs	r3, #67	; 0x43
 8003962:	2604      	movs	r6, #4
 8003964:	9300      	str	r3, [sp, #0]
 8003966:	1c21      	adds	r1, r4, #0
 8003968:	1c22      	adds	r2, r4, #0
 800396a:	9501      	str	r5, [sp, #4]
 800396c:	4b26      	ldr	r3, [pc, #152]	; (8003a08 <comm_init+0xe8>)
 800396e:	2002      	movs	r0, #2
 8003970:	f7ff fcc6 	bl	8003300 <libusb_register_descriptor>
 8003974:	1c21      	adds	r1, r4, #0
 8003976:	1c22      	adds	r2, r4, #0
 8003978:	9600      	str	r6, [sp, #0]
 800397a:	9501      	str	r5, [sp, #4]
 800397c:	1c30      	adds	r0, r6, #0
 800397e:	4b23      	ldr	r3, [pc, #140]	; (8003a0c <comm_init+0xec>)
 8003980:	f7ff fcbe 	bl	8003300 <libusb_register_descriptor>
 8003984:	230e      	movs	r3, #14
 8003986:	4f22      	ldr	r7, [pc, #136]	; (8003a10 <comm_init+0xf0>)
 8003988:	9300      	str	r3, [sp, #0]
 800398a:	1c29      	adds	r1, r5, #0
 800398c:	1c3a      	adds	r2, r7, #0
 800398e:	9501      	str	r5, [sp, #4]
 8003990:	1c30      	adds	r0, r6, #0
 8003992:	4b20      	ldr	r3, [pc, #128]	; (8003a14 <comm_init+0xf4>)
 8003994:	f7ff fcb4 	bl	8003300 <libusb_register_descriptor>
 8003998:	2310      	movs	r3, #16
 800399a:	1c3a      	adds	r2, r7, #0
 800399c:	9300      	str	r3, [sp, #0]
 800399e:	9501      	str	r5, [sp, #4]
 80039a0:	1c30      	adds	r0, r6, #0
 80039a2:	2102      	movs	r1, #2
 80039a4:	4b1c      	ldr	r3, [pc, #112]	; (8003a18 <comm_init+0xf8>)
 80039a6:	f7ff fcab 	bl	8003300 <libusb_register_descriptor>
 80039aa:	231a      	movs	r3, #26
 80039ac:	1c3a      	adds	r2, r7, #0
 80039ae:	9300      	str	r3, [sp, #0]
 80039b0:	9501      	str	r5, [sp, #4]
 80039b2:	1c30      	adds	r0, r6, #0
 80039b4:	2103      	movs	r1, #3
 80039b6:	4b19      	ldr	r3, [pc, #100]	; (8003a1c <comm_init+0xfc>)
 80039b8:	f7ff fca2 	bl	8003300 <libusb_register_descriptor>
 80039bc:	2310      	movs	r3, #16
 80039be:	1c31      	adds	r1, r6, #0
 80039c0:	9300      	str	r3, [sp, #0]
 80039c2:	1c3a      	adds	r2, r7, #0
 80039c4:	9501      	str	r5, [sp, #4]
 80039c6:	1c30      	adds	r0, r6, #0
 80039c8:	4b15      	ldr	r3, [pc, #84]	; (8003a20 <comm_init+0x100>)
 80039ca:	f7ff fc99 	bl	8003300 <libusb_register_descriptor>
 80039ce:	2301      	movs	r3, #1
 80039d0:	425b      	negs	r3, r3
 80039d2:	2102      	movs	r1, #2
 80039d4:	aa03      	add	r2, sp, #12
 80039d6:	9303      	str	r3, [sp, #12]
 80039d8:	202d      	movs	r0, #45	; 0x2d
 80039da:	1c23      	adds	r3, r4, #0
 80039dc:	f7fc fbfc 	bl	80001d8 <svc_call>
 80039e0:	4b10      	ldr	r3, [pc, #64]	; (8003a24 <comm_init+0x104>)
 80039e2:	a803      	add	r0, sp, #12
 80039e4:	9304      	str	r3, [sp, #16]
 80039e6:	23e0      	movs	r3, #224	; 0xe0
 80039e8:	031b      	lsls	r3, r3, #12
 80039ea:	9305      	str	r3, [sp, #20]
 80039ec:	9406      	str	r4, [sp, #24]
 80039ee:	f7ff fed2 	bl	8003796 <ipc_call_ms.constprop.8>
 80039f2:	480d      	ldr	r0, [pc, #52]	; (8003a28 <comm_init+0x108>)
 80039f4:	f7ff fcdb 	bl	80033ae <printf>
 80039f8:	b009      	add	sp, #36	; 0x24
 80039fa:	bdf0      	pop	{r4, r5, r6, r7, pc}
 80039fc:	08008784 	.word	0x08008784
 8003a00:	000f0003 	.word	0x000f0003
 8003a04:	0800865d 	.word	0x0800865d
 8003a08:	080085b9 	.word	0x080085b9
 8003a0c:	0800866f 	.word	0x0800866f
 8003a10:	00000409 	.word	0x00000409
 8003a14:	0800864f 	.word	0x0800864f
 8003a18:	0800863f 	.word	0x0800863f
 8003a1c:	08008673 	.word	0x08008673
 8003a20:	080085fc 	.word	0x080085fc
 8003a24:	00001005 	.word	0x00001005
 8003a28:	08008633 	.word	0x08008633

08003a2c <stm32_gpio_enable_syscfg>:
 8003a2c:	68c3      	ldr	r3, [r0, #12]
 8003a2e:	1c5a      	adds	r2, r3, #1
 8003a30:	60c2      	str	r2, [r0, #12]
 8003a32:	2b00      	cmp	r3, #0
 8003a34:	d104      	bne.n	8003a40 <stm32_gpio_enable_syscfg+0x14>
 8003a36:	2101      	movs	r1, #1
 8003a38:	4a02      	ldr	r2, [pc, #8]	; (8003a44 <stm32_gpio_enable_syscfg+0x18>)
 8003a3a:	6b53      	ldr	r3, [r2, #52]	; 0x34
 8003a3c:	430b      	orrs	r3, r1
 8003a3e:	6353      	str	r3, [r2, #52]	; 0x34
 8003a40:	4770      	bx	lr
 8003a42:	46c0      	nop			; (mov r8, r8)
 8003a44:	40021000 	.word	0x40021000

08003a48 <stm32_gpio_disable_syscfg>:
 8003a48:	68c3      	ldr	r3, [r0, #12]
 8003a4a:	3b01      	subs	r3, #1
 8003a4c:	60c3      	str	r3, [r0, #12]
 8003a4e:	2b00      	cmp	r3, #0
 8003a50:	d104      	bne.n	8003a5c <stm32_gpio_disable_syscfg+0x14>
 8003a52:	2101      	movs	r1, #1
 8003a54:	4a02      	ldr	r2, [pc, #8]	; (8003a60 <stm32_gpio_disable_syscfg+0x18>)
 8003a56:	6b53      	ldr	r3, [r2, #52]	; 0x34
 8003a58:	438b      	bics	r3, r1
 8003a5a:	6353      	str	r3, [r2, #52]	; 0x34
 8003a5c:	4770      	bx	lr
 8003a5e:	46c0      	nop			; (mov r8, r8)
 8003a60:	40021000 	.word	0x40021000

08003a64 <stm32_gpio_enable_pin>:
 8003a64:	b5f7      	push	{r0, r1, r2, r4, r5, r6, r7, lr}
 8003a66:	9301      	str	r3, [sp, #4]
 8003a68:	090b      	lsrs	r3, r1, #4
 8003a6a:	292f      	cmp	r1, #47	; 0x2f
 8003a6c:	d906      	bls.n	8003a7c <stm32_gpio_enable_pin+0x18>
 8003a6e:	2001      	movs	r0, #1
 8003a70:	4098      	lsls	r0, r3
 8003a72:	4d2a      	ldr	r5, [pc, #168]	; (8003b1c <stm32_gpio_enable_pin+0xb8>)
 8003a74:	6aec      	ldr	r4, [r5, #44]	; 0x2c
 8003a76:	4320      	orrs	r0, r4
 8003a78:	62e8      	str	r0, [r5, #44]	; 0x2c
 8003a7a:	e006      	b.n	8003a8a <stm32_gpio_enable_pin+0x26>
 8003a7c:	009c      	lsls	r4, r3, #2
 8003a7e:	1900      	adds	r0, r0, r4
 8003a80:	6804      	ldr	r4, [r0, #0]
 8003a82:	1d25      	adds	r5, r4, #4
 8003a84:	6005      	str	r5, [r0, #0]
 8003a86:	2c00      	cmp	r4, #0
 8003a88:	d0f1      	beq.n	8003a6e <stm32_gpio_enable_pin+0xa>
 8003a8a:	240f      	movs	r4, #15
 8003a8c:	2703      	movs	r7, #3
 8003a8e:	4824      	ldr	r0, [pc, #144]	; (8003b20 <stm32_gpio_enable_pin+0xbc>)
 8003a90:	400c      	ands	r4, r1
 8003a92:	009b      	lsls	r3, r3, #2
 8003a94:	5818      	ldr	r0, [r3, r0]
 8003a96:	0063      	lsls	r3, r4, #1
 8003a98:	409f      	lsls	r7, r3
 8003a9a:	43fd      	mvns	r5, r7
 8003a9c:	6806      	ldr	r6, [r0, #0]
 8003a9e:	9500      	str	r5, [sp, #0]
 8003aa0:	402e      	ands	r6, r5
 8003aa2:	1c17      	adds	r7, r2, #0
 8003aa4:	2503      	movs	r5, #3
 8003aa6:	402f      	ands	r7, r5
 8003aa8:	409f      	lsls	r7, r3
 8003aaa:	6006      	str	r6, [r0, #0]
 8003aac:	6806      	ldr	r6, [r0, #0]
 8003aae:	433e      	orrs	r6, r7
 8003ab0:	6006      	str	r6, [r0, #0]
 8003ab2:	2601      	movs	r6, #1
 8003ab4:	1c35      	adds	r5, r6, #0
 8003ab6:	40a5      	lsls	r5, r4
 8003ab8:	6847      	ldr	r7, [r0, #4]
 8003aba:	43af      	bics	r7, r5
 8003abc:	0895      	lsrs	r5, r2, #2
 8003abe:	402e      	ands	r6, r5
 8003ac0:	40a6      	lsls	r6, r4
 8003ac2:	6047      	str	r7, [r0, #4]
 8003ac4:	6847      	ldr	r7, [r0, #4]
 8003ac6:	9d00      	ldr	r5, [sp, #0]
 8003ac8:	433e      	orrs	r6, r7
 8003aca:	6046      	str	r6, [r0, #4]
 8003acc:	6886      	ldr	r6, [r0, #8]
 8003ace:	10e4      	asrs	r4, r4, #3
 8003ad0:	402e      	ands	r6, r5
 8003ad2:	2503      	movs	r5, #3
 8003ad4:	6086      	str	r6, [r0, #8]
 8003ad6:	08d6      	lsrs	r6, r2, #3
 8003ad8:	402e      	ands	r6, r5
 8003ada:	409e      	lsls	r6, r3
 8003adc:	6887      	ldr	r7, [r0, #8]
 8003ade:	9d00      	ldr	r5, [sp, #0]
 8003ae0:	433e      	orrs	r6, r7
 8003ae2:	6086      	str	r6, [r0, #8]
 8003ae4:	68c6      	ldr	r6, [r0, #12]
 8003ae6:	0952      	lsrs	r2, r2, #5
 8003ae8:	402e      	ands	r6, r5
 8003aea:	2503      	movs	r5, #3
 8003aec:	4015      	ands	r5, r2
 8003aee:	409d      	lsls	r5, r3
 8003af0:	1c2b      	adds	r3, r5, #0
 8003af2:	60c6      	str	r6, [r0, #12]
 8003af4:	68c6      	ldr	r6, [r0, #12]
 8003af6:	00a4      	lsls	r4, r4, #2
 8003af8:	4333      	orrs	r3, r6
 8003afa:	60c3      	str	r3, [r0, #12]
 8003afc:	2307      	movs	r3, #7
 8003afe:	4019      	ands	r1, r3
 8003b00:	0089      	lsls	r1, r1, #2
 8003b02:	3308      	adds	r3, #8
 8003b04:	408b      	lsls	r3, r1
 8003b06:	3020      	adds	r0, #32
 8003b08:	1900      	adds	r0, r0, r4
 8003b0a:	6802      	ldr	r2, [r0, #0]
 8003b0c:	439a      	bics	r2, r3
 8003b0e:	1c13      	adds	r3, r2, #0
 8003b10:	9a01      	ldr	r2, [sp, #4]
 8003b12:	408a      	lsls	r2, r1
 8003b14:	1c11      	adds	r1, r2, #0
 8003b16:	4319      	orrs	r1, r3
 8003b18:	6001      	str	r1, [r0, #0]
 8003b1a:	bdf7      	pop	{r0, r1, r2, r4, r5, r6, r7, pc}
 8003b1c:	40021000 	.word	0x40021000
 8003b20:	08008690 	.word	0x08008690

08003b24 <stm32_gpio_enable_exti>:
 8003b24:	230c      	movs	r3, #12
 8003b26:	b570      	push	{r4, r5, r6, lr}
 8003b28:	4013      	ands	r3, r2
 8003b2a:	1c06      	adds	r6, r0, #0
 8003b2c:	1c0c      	adds	r4, r1, #0
 8003b2e:	1c15      	adds	r5, r2, #0
 8003b30:	2b04      	cmp	r3, #4
 8003b32:	d005      	beq.n	8003b40 <stm32_gpio_enable_exti+0x1c>
 8003b34:	2b08      	cmp	r3, #8
 8003b36:	d005      	beq.n	8003b44 <stm32_gpio_enable_exti+0x20>
 8003b38:	2b00      	cmp	r3, #0
 8003b3a:	d107      	bne.n	8003b4c <stm32_gpio_enable_exti+0x28>
 8003b3c:	1c1a      	adds	r2, r3, #0
 8003b3e:	e003      	b.n	8003b48 <stm32_gpio_enable_exti+0x24>
 8003b40:	2220      	movs	r2, #32
 8003b42:	e000      	b.n	8003b46 <stm32_gpio_enable_exti+0x22>
 8003b44:	2240      	movs	r2, #64	; 0x40
 8003b46:	2300      	movs	r3, #0
 8003b48:	f7ff ff8c 	bl	8003a64 <stm32_gpio_enable_pin>
 8003b4c:	1c30      	adds	r0, r6, #0
 8003b4e:	f7ff ff6d 	bl	8003a2c <stm32_gpio_enable_syscfg>
 8003b52:	230f      	movs	r3, #15
 8003b54:	1c21      	adds	r1, r4, #0
 8003b56:	4019      	ands	r1, r3
 8003b58:	108a      	asrs	r2, r1, #2
 8003b5a:	4815      	ldr	r0, [pc, #84]	; (8003bb0 <stm32_gpio_enable_exti+0x8c>)
 8003b5c:	0092      	lsls	r2, r2, #2
 8003b5e:	1812      	adds	r2, r2, r0
 8003b60:	2003      	movs	r0, #3
 8003b62:	4020      	ands	r0, r4
 8003b64:	4083      	lsls	r3, r0
 8003b66:	6896      	ldr	r6, [r2, #8]
 8003b68:	439e      	bics	r6, r3
 8003b6a:	0923      	lsrs	r3, r4, #4
 8003b6c:	4083      	lsls	r3, r0
 8003b6e:	1c1c      	adds	r4, r3, #0
 8003b70:	6096      	str	r6, [r2, #8]
 8003b72:	6896      	ldr	r6, [r2, #8]
 8003b74:	4b0f      	ldr	r3, [pc, #60]	; (8003bb4 <stm32_gpio_enable_exti+0x90>)
 8003b76:	4334      	orrs	r4, r6
 8003b78:	6094      	str	r4, [r2, #8]
 8003b7a:	2401      	movs	r4, #1
 8003b7c:	1c22      	adds	r2, r4, #0
 8003b7e:	408a      	lsls	r2, r1
 8003b80:	43d1      	mvns	r1, r2
 8003b82:	6898      	ldr	r0, [r3, #8]
 8003b84:	4008      	ands	r0, r1
 8003b86:	6098      	str	r0, [r3, #8]
 8003b88:	68d8      	ldr	r0, [r3, #12]
 8003b8a:	4001      	ands	r1, r0
 8003b8c:	60d9      	str	r1, [r3, #12]
 8003b8e:	4225      	tst	r5, r4
 8003b90:	d002      	beq.n	8003b98 <stm32_gpio_enable_exti+0x74>
 8003b92:	6899      	ldr	r1, [r3, #8]
 8003b94:	4311      	orrs	r1, r2
 8003b96:	6099      	str	r1, [r3, #8]
 8003b98:	07a9      	lsls	r1, r5, #30
 8003b9a:	d502      	bpl.n	8003ba2 <stm32_gpio_enable_exti+0x7e>
 8003b9c:	68d9      	ldr	r1, [r3, #12]
 8003b9e:	4311      	orrs	r1, r2
 8003ba0:	60d9      	str	r1, [r3, #12]
 8003ba2:	6819      	ldr	r1, [r3, #0]
 8003ba4:	4311      	orrs	r1, r2
 8003ba6:	6019      	str	r1, [r3, #0]
 8003ba8:	6859      	ldr	r1, [r3, #4]
 8003baa:	430a      	orrs	r2, r1
 8003bac:	605a      	str	r2, [r3, #4]
 8003bae:	bd70      	pop	{r4, r5, r6, pc}
 8003bb0:	40010000 	.word	0x40010000
 8003bb4:	40010400 	.word	0x40010400

08003bb8 <stm32_gpio_disable_pin>:
 8003bb8:	b510      	push	{r4, lr}
 8003bba:	090c      	lsrs	r4, r1, #4
 8003bbc:	292f      	cmp	r1, #47	; 0x2f
 8003bbe:	d906      	bls.n	8003bce <stm32_gpio_disable_pin+0x16>
 8003bc0:	2201      	movs	r2, #1
 8003bc2:	40a2      	lsls	r2, r4
 8003bc4:	4906      	ldr	r1, [pc, #24]	; (8003be0 <stm32_gpio_disable_pin+0x28>)
 8003bc6:	6acb      	ldr	r3, [r1, #44]	; 0x2c
 8003bc8:	4393      	bics	r3, r2
 8003bca:	62cb      	str	r3, [r1, #44]	; 0x2c
 8003bcc:	e006      	b.n	8003bdc <stm32_gpio_disable_pin+0x24>
 8003bce:	00a3      	lsls	r3, r4, #2
 8003bd0:	18c0      	adds	r0, r0, r3
 8003bd2:	6803      	ldr	r3, [r0, #0]
 8003bd4:	3b04      	subs	r3, #4
 8003bd6:	6003      	str	r3, [r0, #0]
 8003bd8:	2b00      	cmp	r3, #0
 8003bda:	d0f1      	beq.n	8003bc0 <stm32_gpio_disable_pin+0x8>
 8003bdc:	bd10      	pop	{r4, pc}
 8003bde:	46c0      	nop			; (mov r8, r8)
 8003be0:	40021000 	.word	0x40021000

08003be4 <stm32_gpio_disable_exti>:
 8003be4:	b538      	push	{r3, r4, r5, lr}
 8003be6:	1c0c      	adds	r4, r1, #0
 8003be8:	230f      	movs	r3, #15
 8003bea:	1c05      	adds	r5, r0, #0
 8003bec:	2001      	movs	r0, #1
 8003bee:	4023      	ands	r3, r4
 8003bf0:	4098      	lsls	r0, r3
 8003bf2:	43c3      	mvns	r3, r0
 8003bf4:	4a0a      	ldr	r2, [pc, #40]	; (8003c20 <stm32_gpio_disable_exti+0x3c>)
 8003bf6:	1c28      	adds	r0, r5, #0
 8003bf8:	6811      	ldr	r1, [r2, #0]
 8003bfa:	4019      	ands	r1, r3
 8003bfc:	6011      	str	r1, [r2, #0]
 8003bfe:	6851      	ldr	r1, [r2, #4]
 8003c00:	4019      	ands	r1, r3
 8003c02:	6051      	str	r1, [r2, #4]
 8003c04:	6891      	ldr	r1, [r2, #8]
 8003c06:	4019      	ands	r1, r3
 8003c08:	6091      	str	r1, [r2, #8]
 8003c0a:	68d1      	ldr	r1, [r2, #12]
 8003c0c:	400b      	ands	r3, r1
 8003c0e:	60d3      	str	r3, [r2, #12]
 8003c10:	f7ff ff1a 	bl	8003a48 <stm32_gpio_disable_syscfg>
 8003c14:	1c28      	adds	r0, r5, #0
 8003c16:	1c21      	adds	r1, r4, #0
 8003c18:	f7ff ffce 	bl	8003bb8 <stm32_gpio_disable_pin>
 8003c1c:	bd38      	pop	{r3, r4, r5, pc}
 8003c1e:	46c0      	nop			; (mov r8, r8)
 8003c20:	40010400 	.word	0x40010400

08003c24 <stm32_gpio_disable_jtag>:
 8003c24:	b510      	push	{r4, lr}
 8003c26:	1c04      	adds	r4, r0, #0
 8003c28:	6803      	ldr	r3, [r0, #0]
 8003c2a:	210d      	movs	r1, #13
 8003c2c:	3308      	adds	r3, #8
 8003c2e:	6003      	str	r3, [r0, #0]
 8003c30:	f7ff ffc2 	bl	8003bb8 <stm32_gpio_disable_pin>
 8003c34:	1c20      	adds	r0, r4, #0
 8003c36:	210e      	movs	r1, #14
 8003c38:	f7ff ffbe 	bl	8003bb8 <stm32_gpio_disable_pin>
 8003c3c:	bd10      	pop	{r4, pc}

08003c3e <stm32_gpio_init>:
 8003c3e:	b508      	push	{r3, lr}
 8003c40:	2100      	movs	r1, #0
 8003c42:	2210      	movs	r2, #16
 8003c44:	f004 f896 	bl	8007d74 <memset>
 8003c48:	bd08      	pop	{r3, pc}
 8003c4a:	0000      	movs	r0, r0

08003c4c <stm32_gpio_request>:
 8003c4c:	684b      	ldr	r3, [r1, #4]
 8003c4e:	4a1d      	ldr	r2, [pc, #116]	; (8003cc4 <stm32_gpio_request+0x78>)
 8003c50:	b510      	push	{r4, lr}
 8003c52:	189b      	adds	r3, r3, r2
 8003c54:	2b06      	cmp	r3, #6
 8003c56:	d82d      	bhi.n	8003cb4 <stm32_gpio_request+0x68>
 8003c58:	1c04      	adds	r4, r0, #0
 8003c5a:	1c18      	adds	r0, r3, #0
 8003c5c:	1c0a      	adds	r2, r1, #0
 8003c5e:	f003 fe4b 	bl	80078f8 <__gnu_thumb1_case_uqi>
 8003c62:	040a      	.short	0x040a
 8003c64:	211d1711 	.word	0x211d1711
 8003c68:	25          	.byte	0x25
 8003c69:	00          	.byte	0x00
 8003c6a:	6889      	ldr	r1, [r1, #8]
 8003c6c:	1c20      	adds	r0, r4, #0
 8003c6e:	b2c9      	uxtb	r1, r1
 8003c70:	f7ff ffa2 	bl	8003bb8 <stm32_gpio_disable_pin>
 8003c74:	e024      	b.n	8003cc0 <stm32_gpio_request+0x74>
 8003c76:	7c13      	ldrb	r3, [r2, #16]
 8003c78:	7a09      	ldrb	r1, [r1, #8]
 8003c7a:	1c20      	adds	r0, r4, #0
 8003c7c:	68d2      	ldr	r2, [r2, #12]
 8003c7e:	f7ff fef1 	bl	8003a64 <stm32_gpio_enable_pin>
 8003c82:	e01d      	b.n	8003cc0 <stm32_gpio_request+0x74>
 8003c84:	7a09      	ldrb	r1, [r1, #8]
 8003c86:	1c20      	adds	r0, r4, #0
 8003c88:	68d2      	ldr	r2, [r2, #12]
 8003c8a:	f7ff ff4b 	bl	8003b24 <stm32_gpio_enable_exti>
 8003c8e:	e017      	b.n	8003cc0 <stm32_gpio_request+0x74>
 8003c90:	6889      	ldr	r1, [r1, #8]
 8003c92:	1c20      	adds	r0, r4, #0
 8003c94:	b2c9      	uxtb	r1, r1
 8003c96:	f7ff ffa5 	bl	8003be4 <stm32_gpio_disable_exti>
 8003c9a:	e011      	b.n	8003cc0 <stm32_gpio_request+0x74>
 8003c9c:	1c20      	adds	r0, r4, #0
 8003c9e:	f7ff ffc1 	bl	8003c24 <stm32_gpio_disable_jtag>
 8003ca2:	e00d      	b.n	8003cc0 <stm32_gpio_request+0x74>
 8003ca4:	1c20      	adds	r0, r4, #0
 8003ca6:	f7ff fec1 	bl	8003a2c <stm32_gpio_enable_syscfg>
 8003caa:	e009      	b.n	8003cc0 <stm32_gpio_request+0x74>
 8003cac:	1c20      	adds	r0, r4, #0
 8003cae:	f7ff fecb 	bl	8003a48 <stm32_gpio_disable_syscfg>
 8003cb2:	e005      	b.n	8003cc0 <stm32_gpio_request+0x74>
 8003cb4:	2380      	movs	r3, #128	; 0x80
 8003cb6:	2202      	movs	r2, #2
 8003cb8:	059b      	lsls	r3, r3, #22
 8003cba:	681b      	ldr	r3, [r3, #0]
 8003cbc:	4252      	negs	r2, r2
 8003cbe:	601a      	str	r2, [r3, #0]
 8003cc0:	2001      	movs	r0, #1
 8003cc2:	bd10      	pop	{r4, pc}
 8003cc4:	ffff0000 	.word	0xffff0000

08003cc8 <get_pll_clock>:
 8003cc8:	4a0c      	ldr	r2, [pc, #48]	; (8003cfc <get_pll_clock+0x34>)
 8003cca:	b508      	push	{r3, lr}
 8003ccc:	68d0      	ldr	r0, [r2, #12]
 8003cce:	68d1      	ldr	r1, [r2, #12]
 8003cd0:	0340      	lsls	r0, r0, #13
 8003cd2:	0fc0      	lsrs	r0, r0, #31
 8003cd4:	1cc3      	adds	r3, r0, #3
 8003cd6:	0288      	lsls	r0, r1, #10
 8003cd8:	0f40      	lsrs	r0, r0, #29
 8003cda:	4083      	lsls	r3, r0
 8003cdc:	68d1      	ldr	r1, [r2, #12]
 8003cde:	1c18      	adds	r0, r3, #0
 8003ce0:	0209      	lsls	r1, r1, #8
 8003ce2:	68d3      	ldr	r3, [r2, #12]
 8003ce4:	0f89      	lsrs	r1, r1, #30
 8003ce6:	3101      	adds	r1, #1
 8003ce8:	03db      	lsls	r3, r3, #15
 8003cea:	d501      	bpl.n	8003cf0 <get_pll_clock+0x28>
 8003cec:	4b04      	ldr	r3, [pc, #16]	; (8003d00 <get_pll_clock+0x38>)
 8003cee:	e000      	b.n	8003cf2 <get_pll_clock+0x2a>
 8003cf0:	4b04      	ldr	r3, [pc, #16]	; (8003d04 <get_pll_clock+0x3c>)
 8003cf2:	4358      	muls	r0, r3
 8003cf4:	f003 fe14 	bl	8007920 <__aeabi_uidiv>
 8003cf8:	bd08      	pop	{r3, pc}
 8003cfa:	46c0      	nop			; (mov r8, r8)
 8003cfc:	40021000 	.word	0x40021000
 8003d00:	007a1200 	.word	0x007a1200
 8003d04:	00f42400 	.word	0x00f42400

08003d08 <stm32_power_pll_on>:
 8003d08:	4b13      	ldr	r3, [pc, #76]	; (8003d58 <stm32_power_pll_on+0x50>)
 8003d0a:	4a14      	ldr	r2, [pc, #80]	; (8003d5c <stm32_power_pll_on+0x54>)
 8003d0c:	6819      	ldr	r1, [r3, #0]
 8003d0e:	400a      	ands	r2, r1
 8003d10:	601a      	str	r2, [r3, #0]
 8003d12:	68d9      	ldr	r1, [r3, #12]
 8003d14:	4a12      	ldr	r2, [pc, #72]	; (8003d60 <stm32_power_pll_on+0x58>)
 8003d16:	400a      	ands	r2, r1
 8003d18:	2180      	movs	r1, #128	; 0x80
 8003d1a:	60da      	str	r2, [r3, #12]
 8003d1c:	68da      	ldr	r2, [r3, #12]
 8003d1e:	0349      	lsls	r1, r1, #13
 8003d20:	430a      	orrs	r2, r1
 8003d22:	2190      	movs	r1, #144	; 0x90
 8003d24:	60da      	str	r2, [r3, #12]
 8003d26:	68da      	ldr	r2, [r3, #12]
 8003d28:	0409      	lsls	r1, r1, #16
 8003d2a:	430a      	orrs	r2, r1
 8003d2c:	60da      	str	r2, [r3, #12]
 8003d2e:	2802      	cmp	r0, #2
 8003d30:	d104      	bne.n	8003d3c <stm32_power_pll_on+0x34>
 8003d32:	2180      	movs	r1, #128	; 0x80
 8003d34:	68da      	ldr	r2, [r3, #12]
 8003d36:	0249      	lsls	r1, r1, #9
 8003d38:	430a      	orrs	r2, r1
 8003d3a:	e002      	b.n	8003d42 <stm32_power_pll_on+0x3a>
 8003d3c:	68d9      	ldr	r1, [r3, #12]
 8003d3e:	4a09      	ldr	r2, [pc, #36]	; (8003d64 <stm32_power_pll_on+0x5c>)
 8003d40:	400a      	ands	r2, r1
 8003d42:	2180      	movs	r1, #128	; 0x80
 8003d44:	60da      	str	r2, [r3, #12]
 8003d46:	681a      	ldr	r2, [r3, #0]
 8003d48:	0449      	lsls	r1, r1, #17
 8003d4a:	430a      	orrs	r2, r1
 8003d4c:	601a      	str	r2, [r3, #0]
 8003d4e:	681a      	ldr	r2, [r3, #0]
 8003d50:	0192      	lsls	r2, r2, #6
 8003d52:	d5fc      	bpl.n	8003d4e <stm32_power_pll_on+0x46>
 8003d54:	4770      	bx	lr
 8003d56:	46c0      	nop			; (mov r8, r8)
 8003d58:	40021000 	.word	0x40021000
 8003d5c:	feffffff 	.word	0xfeffffff
 8003d60:	ff03ffff 	.word	0xff03ffff
 8003d64:	fffeffff 	.word	0xfffeffff

08003d68 <stm32_power_hse_on>:
 8003d68:	4b0a      	ldr	r3, [pc, #40]	; (8003d94 <stm32_power_hse_on+0x2c>)
 8003d6a:	681a      	ldr	r2, [r3, #0]
 8003d6c:	03d2      	lsls	r2, r2, #15
 8003d6e:	d410      	bmi.n	8003d92 <stm32_power_hse_on+0x2a>
 8003d70:	6819      	ldr	r1, [r3, #0]
 8003d72:	4a09      	ldr	r2, [pc, #36]	; (8003d98 <stm32_power_hse_on+0x30>)
 8003d74:	400a      	ands	r2, r1
 8003d76:	2180      	movs	r1, #128	; 0x80
 8003d78:	601a      	str	r2, [r3, #0]
 8003d7a:	681a      	ldr	r2, [r3, #0]
 8003d7c:	0389      	lsls	r1, r1, #14
 8003d7e:	430a      	orrs	r2, r1
 8003d80:	21a0      	movs	r1, #160	; 0xa0
 8003d82:	601a      	str	r2, [r3, #0]
 8003d84:	681a      	ldr	r2, [r3, #0]
 8003d86:	02c9      	lsls	r1, r1, #11
 8003d88:	430a      	orrs	r2, r1
 8003d8a:	601a      	str	r2, [r3, #0]
 8003d8c:	681a      	ldr	r2, [r3, #0]
 8003d8e:	0392      	lsls	r2, r2, #14
 8003d90:	d5fc      	bpl.n	8003d8c <stm32_power_hse_on+0x24>
 8003d92:	4770      	bx	lr
 8003d94:	40021000 	.word	0x40021000
 8003d98:	ffcfffff 	.word	0xffcfffff

08003d9c <stm32_power_set_core_clock.isra.3>:
 8003d9c:	2300      	movs	r3, #0
 8003d9e:	b5f7      	push	{r0, r1, r2, r4, r5, r6, r7, lr}
 8003da0:	4c33      	ldr	r4, [pc, #204]	; (8003e70 <stm32_power_set_core_clock.isra.3+0xd4>)
 8003da2:	6ba6      	ldr	r6, [r4, #56]	; 0x38
 8003da4:	63a3      	str	r3, [r4, #56]	; 0x38
 8003da6:	6b62      	ldr	r2, [r4, #52]	; 0x34
 8003da8:	9201      	str	r2, [sp, #4]
 8003daa:	6363      	str	r3, [r4, #52]	; 0x34
 8003dac:	6b27      	ldr	r7, [r4, #48]	; 0x30
 8003dae:	6323      	str	r3, [r4, #48]	; 0x30
 8003db0:	46c0      	nop			; (mov r8, r8)
 8003db2:	46c0      	nop			; (mov r8, r8)
 8003db4:	2203      	movs	r2, #3
 8003db6:	68e3      	ldr	r3, [r4, #12]
 8003db8:	4393      	bics	r3, r2
 8003dba:	60e3      	str	r3, [r4, #12]
 8003dbc:	2503      	movs	r5, #3
 8003dbe:	68e2      	ldr	r2, [r4, #12]
 8003dc0:	0892      	lsrs	r2, r2, #2
 8003dc2:	402a      	ands	r2, r5
 8003dc4:	d1fa      	bne.n	8003dbc <stm32_power_set_core_clock.isra.3+0x20>
 8003dc6:	46c0      	nop			; (mov r8, r8)
 8003dc8:	46c0      	nop			; (mov r8, r8)
 8003dca:	2804      	cmp	r0, #4
 8003dcc:	d006      	beq.n	8003ddc <stm32_power_set_core_clock.isra.3+0x40>
 8003dce:	2805      	cmp	r0, #5
 8003dd0:	d00e      	beq.n	8003df0 <stm32_power_set_core_clock.isra.3+0x54>
 8003dd2:	2802      	cmp	r0, #2
 8003dd4:	d010      	beq.n	8003df8 <stm32_power_set_core_clock.isra.3+0x5c>
 8003dd6:	4b27      	ldr	r3, [pc, #156]	; (8003e74 <stm32_power_set_core_clock.isra.3+0xd8>)
 8003dd8:	3d02      	subs	r5, #2
 8003dda:	e00f      	b.n	8003dfc <stm32_power_set_core_clock.isra.3+0x60>
 8003ddc:	2080      	movs	r0, #128	; 0x80
 8003dde:	4b24      	ldr	r3, [pc, #144]	; (8003e70 <stm32_power_set_core_clock.isra.3+0xd4>)
 8003de0:	0240      	lsls	r0, r0, #9
 8003de2:	685b      	ldr	r3, [r3, #4]
 8003de4:	1c15      	adds	r5, r2, #0
 8003de6:	041b      	lsls	r3, r3, #16
 8003de8:	0f5b      	lsrs	r3, r3, #29
 8003dea:	4098      	lsls	r0, r3
 8003dec:	1c03      	adds	r3, r0, #0
 8003dee:	e005      	b.n	8003dfc <stm32_power_set_core_clock.isra.3+0x60>
 8003df0:	f7ff ff6a 	bl	8003cc8 <get_pll_clock>
 8003df4:	1c03      	adds	r3, r0, #0
 8003df6:	e001      	b.n	8003dfc <stm32_power_set_core_clock.isra.3+0x60>
 8003df8:	1c05      	adds	r5, r0, #0
 8003dfa:	4b1f      	ldr	r3, [pc, #124]	; (8003e78 <stm32_power_set_core_clock.isra.3+0xdc>)
 8003dfc:	4a1f      	ldr	r2, [pc, #124]	; (8003e7c <stm32_power_set_core_clock.isra.3+0xe0>)
 8003dfe:	68e0      	ldr	r0, [r4, #12]
 8003e00:	4010      	ands	r0, r2
 8003e02:	2200      	movs	r2, #0
 8003e04:	1c19      	adds	r1, r3, #0
 8003e06:	40d1      	lsrs	r1, r2
 8003e08:	468c      	mov	ip, r1
 8003e0a:	491d      	ldr	r1, [pc, #116]	; (8003e80 <stm32_power_set_core_clock.isra.3+0xe4>)
 8003e0c:	458c      	cmp	ip, r1
 8003e0e:	d903      	bls.n	8003e18 <stm32_power_set_core_clock.isra.3+0x7c>
 8003e10:	3201      	adds	r2, #1
 8003e12:	2a05      	cmp	r2, #5
 8003e14:	d1f6      	bne.n	8003e04 <stm32_power_set_core_clock.isra.3+0x68>
 8003e16:	e002      	b.n	8003e1e <stm32_power_set_core_clock.isra.3+0x82>
 8003e18:	2100      	movs	r1, #0
 8003e1a:	428a      	cmp	r2, r1
 8003e1c:	d000      	beq.n	8003e20 <stm32_power_set_core_clock.isra.3+0x84>
 8003e1e:	1cd1      	adds	r1, r2, #3
 8003e20:	02ca      	lsls	r2, r1, #11
 8003e22:	4302      	orrs	r2, r0
 8003e24:	60e2      	str	r2, [r4, #12]
 8003e26:	68e2      	ldr	r2, [r4, #12]
 8003e28:	0208      	lsls	r0, r1, #8
 8003e2a:	4916      	ldr	r1, [pc, #88]	; (8003e84 <stm32_power_set_core_clock.isra.3+0xe8>)
 8003e2c:	400a      	ands	r2, r1
 8003e2e:	4302      	orrs	r2, r0
 8003e30:	60e2      	str	r2, [r4, #12]
 8003e32:	1e58      	subs	r0, r3, #1
 8003e34:	490f      	ldr	r1, [pc, #60]	; (8003e74 <stm32_power_set_core_clock.isra.3+0xd8>)
 8003e36:	f003 fd73 	bl	8007920 <__aeabi_uidiv>
 8003e3a:	2340      	movs	r3, #64	; 0x40
 8003e3c:	4318      	orrs	r0, r3
 8003e3e:	4b12      	ldr	r3, [pc, #72]	; (8003e88 <stm32_power_set_core_clock.isra.3+0xec>)
 8003e40:	6018      	str	r0, [r3, #0]
 8003e42:	f3bf 8f4f 	dsb	sy
 8003e46:	f3bf 8f5f 	dmb	sy
 8003e4a:	46c0      	nop			; (mov r8, r8)
 8003e4c:	46c0      	nop			; (mov r8, r8)
 8003e4e:	68e3      	ldr	r3, [r4, #12]
 8003e50:	432b      	orrs	r3, r5
 8003e52:	60e3      	str	r3, [r4, #12]
 8003e54:	68e3      	ldr	r3, [r4, #12]
 8003e56:	4a06      	ldr	r2, [pc, #24]	; (8003e70 <stm32_power_set_core_clock.isra.3+0xd4>)
 8003e58:	071b      	lsls	r3, r3, #28
 8003e5a:	0f9b      	lsrs	r3, r3, #30
 8003e5c:	42ab      	cmp	r3, r5
 8003e5e:	d1f9      	bne.n	8003e54 <stm32_power_set_core_clock.isra.3+0xb8>
 8003e60:	46c0      	nop			; (mov r8, r8)
 8003e62:	46c0      	nop			; (mov r8, r8)
 8003e64:	9b01      	ldr	r3, [sp, #4]
 8003e66:	6317      	str	r7, [r2, #48]	; 0x30
 8003e68:	6396      	str	r6, [r2, #56]	; 0x38
 8003e6a:	6353      	str	r3, [r2, #52]	; 0x34
 8003e6c:	bdf7      	pop	{r0, r1, r2, r4, r5, r6, r7, pc}
 8003e6e:	46c0      	nop			; (mov r8, r8)
 8003e70:	40021000 	.word	0x40021000
 8003e74:	00f42400 	.word	0x00f42400
 8003e78:	007a1200 	.word	0x007a1200
 8003e7c:	ffffc7ff 	.word	0xffffc7ff
 8003e80:	01e84800 	.word	0x01e84800
 8003e84:	fffff8ff 	.word	0xfffff8ff
 8003e88:	40022000 	.word	0x40022000

08003e8c <stm32_power_enable_pll.isra.4>:
 8003e8c:	4a08      	ldr	r2, [pc, #32]	; (8003eb0 <stm32_power_enable_pll.isra.4+0x24>)
 8003e8e:	b508      	push	{r3, lr}
 8003e90:	6811      	ldr	r1, [r2, #0]
 8003e92:	4b08      	ldr	r3, [pc, #32]	; (8003eb4 <stm32_power_enable_pll.isra.4+0x28>)
 8003e94:	400b      	ands	r3, r1
 8003e96:	2180      	movs	r1, #128	; 0x80
 8003e98:	0509      	lsls	r1, r1, #20
 8003e9a:	430b      	orrs	r3, r1
 8003e9c:	6013      	str	r3, [r2, #0]
 8003e9e:	46c0      	nop			; (mov r8, r8)
 8003ea0:	46c0      	nop			; (mov r8, r8)
 8003ea2:	f7ff ff61 	bl	8003d68 <stm32_power_hse_on>
 8003ea6:	2002      	movs	r0, #2
 8003ea8:	f7ff ff2e 	bl	8003d08 <stm32_power_pll_on>
 8003eac:	bd08      	pop	{r3, pc}
 8003eae:	46c0      	nop			; (mov r8, r8)
 8003eb0:	40007000 	.word	0x40007000
 8003eb4:	e7ffffff 	.word	0xe7ffffff

08003eb8 <get_core_clock>:
 8003eb8:	220c      	movs	r2, #12
 8003eba:	b508      	push	{r3, lr}
 8003ebc:	4b0e      	ldr	r3, [pc, #56]	; (8003ef8 <get_core_clock+0x40>)
 8003ebe:	68d8      	ldr	r0, [r3, #12]
 8003ec0:	4010      	ands	r0, r2
 8003ec2:	f003 fd19 	bl	80078f8 <__gnu_thumb1_case_uqi>
 8003ec6:	1409      	.short	0x1409
 8003ec8:	14161414 	.word	0x14161414
 8003ecc:	14071414 	.word	0x14071414
 8003ed0:	1414      	.short	0x1414
 8003ed2:	11          	.byte	0x11
 8003ed3:	00          	.byte	0x00
 8003ed4:	4809      	ldr	r0, [pc, #36]	; (8003efc <get_core_clock+0x44>)
 8003ed6:	e00d      	b.n	8003ef4 <get_core_clock+0x3c>
 8003ed8:	6858      	ldr	r0, [r3, #4]
 8003eda:	2380      	movs	r3, #128	; 0x80
 8003edc:	0400      	lsls	r0, r0, #16
 8003ede:	0f40      	lsrs	r0, r0, #29
 8003ee0:	025b      	lsls	r3, r3, #9
 8003ee2:	4083      	lsls	r3, r0
 8003ee4:	1c18      	adds	r0, r3, #0
 8003ee6:	e005      	b.n	8003ef4 <get_core_clock+0x3c>
 8003ee8:	f7ff feee 	bl	8003cc8 <get_pll_clock>
 8003eec:	e002      	b.n	8003ef4 <get_core_clock+0x3c>
 8003eee:	2000      	movs	r0, #0
 8003ef0:	e000      	b.n	8003ef4 <get_core_clock+0x3c>
 8003ef2:	4803      	ldr	r0, [pc, #12]	; (8003f00 <get_core_clock+0x48>)
 8003ef4:	bd08      	pop	{r3, pc}
 8003ef6:	46c0      	nop			; (mov r8, r8)
 8003ef8:	40021000 	.word	0x40021000
 8003efc:	007a1200 	.word	0x007a1200
 8003f00:	00f42400 	.word	0x00f42400

08003f04 <get_ahb_clock>:
 8003f04:	4b09      	ldr	r3, [pc, #36]	; (8003f2c <get_ahb_clock+0x28>)
 8003f06:	b510      	push	{r4, lr}
 8003f08:	68da      	ldr	r2, [r3, #12]
 8003f0a:	2401      	movs	r4, #1
 8003f0c:	0612      	lsls	r2, r2, #24
 8003f0e:	d507      	bpl.n	8003f20 <get_ahb_clock+0x1c>
 8003f10:	68db      	ldr	r3, [r3, #12]
 8003f12:	065b      	lsls	r3, r3, #25
 8003f14:	0f5b      	lsrs	r3, r3, #29
 8003f16:	191b      	adds	r3, r3, r4
 8003f18:	409c      	lsls	r4, r3
 8003f1a:	2c1f      	cmp	r4, #31
 8003f1c:	dd00      	ble.n	8003f20 <get_ahb_clock+0x1c>
 8003f1e:	0064      	lsls	r4, r4, #1
 8003f20:	f7ff ffca 	bl	8003eb8 <get_core_clock>
 8003f24:	1c21      	adds	r1, r4, #0
 8003f26:	f003 fd8b 	bl	8007a40 <__aeabi_idiv>
 8003f2a:	bd10      	pop	{r4, pc}
 8003f2c:	40021000 	.word	0x40021000

08003f30 <get_apb2_clock>:
 8003f30:	4b08      	ldr	r3, [pc, #32]	; (8003f54 <get_apb2_clock+0x24>)
 8003f32:	b510      	push	{r4, lr}
 8003f34:	68da      	ldr	r2, [r3, #12]
 8003f36:	2401      	movs	r4, #1
 8003f38:	0492      	lsls	r2, r2, #18
 8003f3a:	d504      	bpl.n	8003f46 <get_apb2_clock+0x16>
 8003f3c:	68db      	ldr	r3, [r3, #12]
 8003f3e:	04db      	lsls	r3, r3, #19
 8003f40:	0f9b      	lsrs	r3, r3, #30
 8003f42:	191b      	adds	r3, r3, r4
 8003f44:	409c      	lsls	r4, r3
 8003f46:	f7ff ffdd 	bl	8003f04 <get_ahb_clock>
 8003f4a:	1c21      	adds	r1, r4, #0
 8003f4c:	f003 fd78 	bl	8007a40 <__aeabi_idiv>
 8003f50:	bd10      	pop	{r4, pc}
 8003f52:	46c0      	nop			; (mov r8, r8)
 8003f54:	40021000 	.word	0x40021000

08003f58 <get_apb1_clock>:
 8003f58:	4b08      	ldr	r3, [pc, #32]	; (8003f7c <get_apb1_clock+0x24>)
 8003f5a:	b510      	push	{r4, lr}
 8003f5c:	68da      	ldr	r2, [r3, #12]
 8003f5e:	2401      	movs	r4, #1
 8003f60:	0552      	lsls	r2, r2, #21
 8003f62:	d504      	bpl.n	8003f6e <get_apb1_clock+0x16>
 8003f64:	68db      	ldr	r3, [r3, #12]
 8003f66:	059b      	lsls	r3, r3, #22
 8003f68:	0f9b      	lsrs	r3, r3, #30
 8003f6a:	191b      	adds	r3, r3, r4
 8003f6c:	409c      	lsls	r4, r3
 8003f6e:	f7ff ffc9 	bl	8003f04 <get_ahb_clock>
 8003f72:	1c21      	adds	r1, r4, #0
 8003f74:	f003 fd64 	bl	8007a40 <__aeabi_idiv>
 8003f78:	bd10      	pop	{r4, pc}
 8003f7a:	46c0      	nop			; (mov r8, r8)
 8003f7c:	40021000 	.word	0x40021000

08003f80 <get_clock>:
 8003f80:	b508      	push	{r3, lr}
 8003f82:	2803      	cmp	r0, #3
 8003f84:	d80f      	bhi.n	8003fa6 <get_clock+0x26>
 8003f86:	f003 fcb7 	bl	80078f8 <__gnu_thumb1_case_uqi>
 8003f8a:	0502      	.short	0x0502
 8003f8c:	0b08      	.short	0x0b08
 8003f8e:	f7ff ff93 	bl	8003eb8 <get_core_clock>
 8003f92:	e00f      	b.n	8003fb4 <get_clock+0x34>
 8003f94:	f7ff ffb6 	bl	8003f04 <get_ahb_clock>
 8003f98:	e00c      	b.n	8003fb4 <get_clock+0x34>
 8003f9a:	f7ff ffdd 	bl	8003f58 <get_apb1_clock>
 8003f9e:	e009      	b.n	8003fb4 <get_clock+0x34>
 8003fa0:	f7ff ffc6 	bl	8003f30 <get_apb2_clock>
 8003fa4:	e006      	b.n	8003fb4 <get_clock+0x34>
 8003fa6:	2380      	movs	r3, #128	; 0x80
 8003fa8:	2207      	movs	r2, #7
 8003faa:	2000      	movs	r0, #0
 8003fac:	059b      	lsls	r3, r3, #22
 8003fae:	681b      	ldr	r3, [r3, #0]
 8003fb0:	4252      	negs	r2, r2
 8003fb2:	601a      	str	r2, [r3, #0]
 8003fb4:	bd08      	pop	{r3, pc}
 8003fb6:	0000      	movs	r0, r0

08003fb8 <stm32_power_init>:
 8003fb8:	210c      	movs	r1, #12
 8003fba:	b508      	push	{r3, lr}
 8003fbc:	4b0a      	ldr	r3, [pc, #40]	; (8003fe8 <stm32_power_init+0x30>)
 8003fbe:	681a      	ldr	r2, [r3, #0]
 8003fc0:	430a      	orrs	r2, r1
 8003fc2:	601a      	str	r2, [r3, #0]
 8003fc4:	6859      	ldr	r1, [r3, #4]
 8003fc6:	4a09      	ldr	r2, [pc, #36]	; (8003fec <stm32_power_init+0x34>)
 8003fc8:	400a      	ands	r2, r1
 8003fca:	605a      	str	r2, [r3, #4]
 8003fcc:	2300      	movs	r3, #0
 8003fce:	4a08      	ldr	r2, [pc, #32]	; (8003ff0 <stm32_power_init+0x38>)
 8003fd0:	6143      	str	r3, [r0, #20]
 8003fd2:	6183      	str	r3, [r0, #24]
 8003fd4:	6393      	str	r3, [r2, #56]	; 0x38
 8003fd6:	6353      	str	r3, [r2, #52]	; 0x34
 8003fd8:	6313      	str	r3, [r2, #48]	; 0x30
 8003fda:	60d3      	str	r3, [r2, #12]
 8003fdc:	f7ff ff56 	bl	8003e8c <stm32_power_enable_pll.isra.4>
 8003fe0:	2005      	movs	r0, #5
 8003fe2:	f7ff fedb 	bl	8003d9c <stm32_power_set_core_clock.isra.3>
 8003fe6:	bd08      	pop	{r3, pc}
 8003fe8:	40007000 	.word	0x40007000
 8003fec:	fffffdff 	.word	0xfffffdff
 8003ff0:	40021000 	.word	0x40021000

08003ff4 <stm32_power_request>:
 8003ff4:	b538      	push	{r3, r4, r5, lr}
 8003ff6:	4a52      	ldr	r2, [pc, #328]	; (8004140 <stm32_power_request+0x14c>)
 8003ff8:	684b      	ldr	r3, [r1, #4]
 8003ffa:	1c05      	adds	r5, r0, #0
 8003ffc:	1c0c      	adds	r4, r1, #0
 8003ffe:	4293      	cmp	r3, r2
 8004000:	d00b      	beq.n	800401a <stm32_power_request+0x26>
 8004002:	4a50      	ldr	r2, [pc, #320]	; (8004144 <stm32_power_request+0x150>)
 8004004:	4293      	cmp	r3, r2
 8004006:	d055      	beq.n	80040b4 <stm32_power_request+0xc0>
 8004008:	3a03      	subs	r2, #3
 800400a:	4293      	cmp	r3, r2
 800400c:	d000      	beq.n	8004010 <stm32_power_request+0x1c>
 800400e:	e08f      	b.n	8004130 <stm32_power_request+0x13c>
 8004010:	7a08      	ldrb	r0, [r1, #8]
 8004012:	f7ff ffb5 	bl	8003f80 <get_clock>
 8004016:	60e0      	str	r0, [r4, #12]
 8004018:	e090      	b.n	800413c <stm32_power_request+0x148>
 800401a:	690a      	ldr	r2, [r1, #16]
 800401c:	68cb      	ldr	r3, [r1, #12]
 800401e:	1e51      	subs	r1, r2, #1
 8004020:	418a      	sbcs	r2, r1
 8004022:	68a0      	ldr	r0, [r4, #8]
 8004024:	b2d2      	uxtb	r2, r2
 8004026:	b2c0      	uxtb	r0, r0
 8004028:	2805      	cmp	r0, #5
 800402a:	d900      	bls.n	800402e <stm32_power_request+0x3a>
 800402c:	e080      	b.n	8004130 <stm32_power_request+0x13c>
 800402e:	f003 fc63 	bl	80078f8 <__gnu_thumb1_case_uqi>
 8004032:	2003      	.short	0x2003
 8004034:	352c7f23 	.word	0x352c7f23
 8004038:	69a9      	ldr	r1, [r5, #24]
 800403a:	2a00      	cmp	r2, #0
 800403c:	d00c      	beq.n	8004058 <stm32_power_request+0x64>
 800403e:	1c4a      	adds	r2, r1, #1
 8004040:	61aa      	str	r2, [r5, #24]
 8004042:	2900      	cmp	r1, #0
 8004044:	d000      	beq.n	8004048 <stm32_power_request+0x54>
 8004046:	e079      	b.n	800413c <stm32_power_request+0x148>
 8004048:	b2db      	uxtb	r3, r3
 800404a:	3101      	adds	r1, #1
 800404c:	4099      	lsls	r1, r3
 800404e:	1c0b      	adds	r3, r1, #0
 8004050:	4c3d      	ldr	r4, [pc, #244]	; (8004148 <stm32_power_request+0x154>)
 8004052:	6b22      	ldr	r2, [r4, #48]	; 0x30
 8004054:	4313      	orrs	r3, r2
 8004056:	e00a      	b.n	800406e <stm32_power_request+0x7a>
 8004058:	3901      	subs	r1, #1
 800405a:	61a9      	str	r1, [r5, #24]
 800405c:	2900      	cmp	r1, #0
 800405e:	d16d      	bne.n	800413c <stm32_power_request+0x148>
 8004060:	b2db      	uxtb	r3, r3
 8004062:	3101      	adds	r1, #1
 8004064:	4099      	lsls	r1, r3
 8004066:	4c38      	ldr	r4, [pc, #224]	; (8004148 <stm32_power_request+0x154>)
 8004068:	6b22      	ldr	r2, [r4, #48]	; 0x30
 800406a:	438a      	bics	r2, r1
 800406c:	1c13      	adds	r3, r2, #0
 800406e:	6323      	str	r3, [r4, #48]	; 0x30
 8004070:	e064      	b.n	800413c <stm32_power_request+0x148>
 8004072:	b672      	cpsid	i
 8004074:	b2d8      	uxtb	r0, r3
 8004076:	e03a      	b.n	80040ee <stm32_power_request+0xfa>
 8004078:	2a00      	cmp	r2, #0
 800407a:	d002      	beq.n	8004082 <stm32_power_request+0x8e>
 800407c:	f7ff fe74 	bl	8003d68 <stm32_power_hse_on>
 8004080:	e05c      	b.n	800413c <stm32_power_request+0x148>
 8004082:	4a31      	ldr	r2, [pc, #196]	; (8004148 <stm32_power_request+0x154>)
 8004084:	4b31      	ldr	r3, [pc, #196]	; (800414c <stm32_power_request+0x158>)
 8004086:	6811      	ldr	r1, [r2, #0]
 8004088:	e011      	b.n	80040ae <stm32_power_request+0xba>
 800408a:	492f      	ldr	r1, [pc, #188]	; (8004148 <stm32_power_request+0x154>)
 800408c:	4a30      	ldr	r2, [pc, #192]	; (8004150 <stm32_power_request+0x15c>)
 800408e:	6848      	ldr	r0, [r1, #4]
 8004090:	075b      	lsls	r3, r3, #29
 8004092:	0c1b      	lsrs	r3, r3, #16
 8004094:	4002      	ands	r2, r0
 8004096:	4313      	orrs	r3, r2
 8004098:	604b      	str	r3, [r1, #4]
 800409a:	e046      	b.n	800412a <stm32_power_request+0x136>
 800409c:	2a00      	cmp	r2, #0
 800409e:	d003      	beq.n	80040a8 <stm32_power_request+0xb4>
 80040a0:	b2d8      	uxtb	r0, r3
 80040a2:	f7ff fe31 	bl	8003d08 <stm32_power_pll_on>
 80040a6:	e049      	b.n	800413c <stm32_power_request+0x148>
 80040a8:	4a27      	ldr	r2, [pc, #156]	; (8004148 <stm32_power_request+0x154>)
 80040aa:	4b2a      	ldr	r3, [pc, #168]	; (8004154 <stm32_power_request+0x160>)
 80040ac:	6811      	ldr	r1, [r2, #0]
 80040ae:	400b      	ands	r3, r1
 80040b0:	6013      	str	r3, [r2, #0]
 80040b2:	e043      	b.n	800413c <stm32_power_request+0x148>
 80040b4:	688c      	ldr	r4, [r1, #8]
 80040b6:	b2e4      	uxtb	r4, r4
 80040b8:	2c01      	cmp	r4, #1
 80040ba:	d01f      	beq.n	80040fc <stm32_power_request+0x108>
 80040bc:	2c00      	cmp	r4, #0
 80040be:	d012      	beq.n	80040e6 <stm32_power_request+0xf2>
 80040c0:	2c04      	cmp	r4, #4
 80040c2:	d135      	bne.n	8004130 <stm32_power_request+0x13c>
 80040c4:	b672      	cpsid	i
 80040c6:	f000 fbef 	bl	80048a8 <stm32_rtc_disable>
 80040ca:	2102      	movs	r1, #2
 80040cc:	4a22      	ldr	r2, [pc, #136]	; (8004158 <stm32_power_request+0x164>)
 80040ce:	6913      	ldr	r3, [r2, #16]
 80040d0:	4323      	orrs	r3, r4
 80040d2:	6113      	str	r3, [r2, #16]
 80040d4:	4b21      	ldr	r3, [pc, #132]	; (800415c <stm32_power_request+0x168>)
 80040d6:	681a      	ldr	r2, [r3, #0]
 80040d8:	430a      	orrs	r2, r1
 80040da:	601a      	str	r2, [r3, #0]
 80040dc:	681a      	ldr	r2, [r3, #0]
 80040de:	4314      	orrs	r4, r2
 80040e0:	601c      	str	r4, [r3, #0]
 80040e2:	bf30      	wfi
 80040e4:	e02a      	b.n	800413c <stm32_power_request+0x148>
 80040e6:	f7ff fed1 	bl	8003e8c <stm32_power_enable_pll.isra.4>
 80040ea:	b672      	cpsid	i
 80040ec:	2005      	movs	r0, #5
 80040ee:	f7ff fe55 	bl	8003d9c <stm32_power_set_core_clock.isra.3>
 80040f2:	1c28      	adds	r0, r5, #0
 80040f4:	f000 f96e 	bl	80043d4 <stm32_timer_pm_event>
 80040f8:	b662      	cpsie	i
 80040fa:	e01f      	b.n	800413c <stm32_power_request+0x148>
 80040fc:	b672      	cpsid	i
 80040fe:	2004      	movs	r0, #4
 8004100:	f7ff fe4c 	bl	8003d9c <stm32_power_set_core_clock.isra.3>
 8004104:	1c28      	adds	r0, r5, #0
 8004106:	f000 f965 	bl	80043d4 <stm32_timer_pm_event>
 800410a:	b662      	cpsie	i
 800410c:	4b0e      	ldr	r3, [pc, #56]	; (8004148 <stm32_power_request+0x154>)
 800410e:	4a11      	ldr	r2, [pc, #68]	; (8004154 <stm32_power_request+0x160>)
 8004110:	6819      	ldr	r1, [r3, #0]
 8004112:	400a      	ands	r2, r1
 8004114:	601a      	str	r2, [r3, #0]
 8004116:	6819      	ldr	r1, [r3, #0]
 8004118:	4a0c      	ldr	r2, [pc, #48]	; (800414c <stm32_power_request+0x158>)
 800411a:	400a      	ands	r2, r1
 800411c:	601a      	str	r2, [r3, #0]
 800411e:	23c0      	movs	r3, #192	; 0xc0
 8004120:	4a0e      	ldr	r2, [pc, #56]	; (800415c <stm32_power_request+0x168>)
 8004122:	055b      	lsls	r3, r3, #21
 8004124:	6811      	ldr	r1, [r2, #0]
 8004126:	430b      	orrs	r3, r1
 8004128:	6013      	str	r3, [r2, #0]
 800412a:	46c0      	nop			; (mov r8, r8)
 800412c:	46c0      	nop			; (mov r8, r8)
 800412e:	e005      	b.n	800413c <stm32_power_request+0x148>
 8004130:	2380      	movs	r3, #128	; 0x80
 8004132:	2202      	movs	r2, #2
 8004134:	059b      	lsls	r3, r3, #22
 8004136:	681b      	ldr	r3, [r3, #0]
 8004138:	4252      	negs	r2, r2
 800413a:	601a      	str	r2, [r3, #0]
 800413c:	2001      	movs	r0, #1
 800413e:	bd38      	pop	{r3, r4, r5, pc}
 8004140:	00020001 	.word	0x00020001
 8004144:	00020003 	.word	0x00020003
 8004148:	40021000 	.word	0x40021000
 800414c:	fffeffff 	.word	0xfffeffff
 8004150:	ffff1fff 	.word	0xffff1fff
 8004154:	feffffff 	.word	0xfeffffff
 8004158:	e000ed00 	.word	0xe000ed00
 800415c:	40007000 	.word	0x40007000

08004160 <stm32_timer_setup_clk>:
 8004160:	b538      	push	{r3, r4, r5, lr}
 8004162:	1c05      	adds	r5, r0, #0
 8004164:	0bcc      	lsrs	r4, r1, #15
 8004166:	d100      	bne.n	800416a <stm32_timer_setup_clk+0xa>
 8004168:	3401      	adds	r4, #1
 800416a:	1c08      	adds	r0, r1, #0
 800416c:	1c21      	adds	r1, r4, #0
 800416e:	f003 fbd7 	bl	8007920 <__aeabi_uidiv>
 8004172:	2801      	cmp	r0, #1
 8004174:	d905      	bls.n	8004182 <stm32_timer_setup_clk+0x22>
 8004176:	2380      	movs	r3, #128	; 0x80
 8004178:	025b      	lsls	r3, r3, #9
 800417a:	4298      	cmp	r0, r3
 800417c:	d902      	bls.n	8004184 <stm32_timer_setup_clk+0x24>
 800417e:	1c18      	adds	r0, r3, #0
 8004180:	e000      	b.n	8004184 <stm32_timer_setup_clk+0x24>
 8004182:	2002      	movs	r0, #2
 8004184:	4b03      	ldr	r3, [pc, #12]	; (8004194 <stm32_timer_setup_clk+0x34>)
 8004186:	00ad      	lsls	r5, r5, #2
 8004188:	58eb      	ldr	r3, [r5, r3]
 800418a:	3c01      	subs	r4, #1
 800418c:	3801      	subs	r0, #1
 800418e:	629c      	str	r4, [r3, #40]	; 0x28
 8004190:	62d8      	str	r0, [r3, #44]	; 0x2c
 8004192:	bd38      	pop	{r3, r4, r5, pc}
 8004194:	080086b0 	.word	0x080086b0

08004198 <hpet_isr>:
 8004198:	2101      	movs	r1, #1
 800419a:	4a07      	ldr	r2, [pc, #28]	; (80041b8 <hpet_isr+0x20>)
 800419c:	b510      	push	{r4, lr}
 800419e:	6913      	ldr	r3, [r2, #16]
 80041a0:	200e      	movs	r0, #14
 80041a2:	438b      	bics	r3, r1
 80041a4:	6113      	str	r3, [r2, #16]
 80041a6:	2380      	movs	r3, #128	; 0x80
 80041a8:	2100      	movs	r1, #0
 80041aa:	059b      	lsls	r3, r3, #22
 80041ac:	685c      	ldr	r4, [r3, #4]
 80041ae:	1c0a      	adds	r2, r1, #0
 80041b0:	1c0b      	adds	r3, r1, #0
 80041b2:	47a0      	blx	r4
 80041b4:	bd10      	pop	{r4, pc}
 80041b6:	46c0      	nop			; (mov r8, r8)
 80041b8:	40011400 	.word	0x40011400

080041bc <hpet_elapsed>:
 80041bc:	1c02      	adds	r2, r0, #0
 80041be:	4b05      	ldr	r3, [pc, #20]	; (80041d4 <hpet_elapsed+0x18>)
 80041c0:	b510      	push	{r4, lr}
 80041c2:	6a98      	ldr	r0, [r3, #40]	; 0x28
 80041c4:	6911      	ldr	r1, [r2, #16]
 80041c6:	3001      	adds	r0, #1
 80041c8:	6a5c      	ldr	r4, [r3, #36]	; 0x24
 80041ca:	f003 fba9 	bl	8007920 <__aeabi_uidiv>
 80041ce:	3401      	adds	r4, #1
 80041d0:	4360      	muls	r0, r4
 80041d2:	bd10      	pop	{r4, pc}
 80041d4:	40011400 	.word	0x40011400

080041d8 <stm32_timer_get_clock>:
 80041d8:	b5f0      	push	{r4, r5, r6, r7, lr}
 80041da:	1c0f      	adds	r7, r1, #0
 80041dc:	2580      	movs	r5, #128	; 0x80
 80041de:	2301      	movs	r3, #1
 80041e0:	b087      	sub	sp, #28
 80041e2:	02ad      	lsls	r5, r5, #10
 80041e4:	a901      	add	r1, sp, #4
 80041e6:	3f02      	subs	r7, #2
 80041e8:	9303      	str	r3, [sp, #12]
 80041ea:	1c04      	adds	r4, r0, #0
 80041ec:	9502      	str	r5, [sp, #8]
 80041ee:	f7ff ff01 	bl	8003ff4 <stm32_power_request>
 80041f2:	9e04      	ldr	r6, [sp, #16]
 80041f4:	9502      	str	r5, [sp, #8]
 80041f6:	2303      	movs	r3, #3
 80041f8:	2f01      	cmp	r7, #1
 80041fa:	d900      	bls.n	80041fe <stm32_timer_get_clock+0x26>
 80041fc:	2302      	movs	r3, #2
 80041fe:	1c20      	adds	r0, r4, #0
 8004200:	a901      	add	r1, sp, #4
 8004202:	9303      	str	r3, [sp, #12]
 8004204:	f7ff fef6 	bl	8003ff4 <stm32_power_request>
 8004208:	9804      	ldr	r0, [sp, #16]
 800420a:	4286      	cmp	r6, r0
 800420c:	d000      	beq.n	8004210 <stm32_timer_get_clock+0x38>
 800420e:	0040      	lsls	r0, r0, #1
 8004210:	b007      	add	sp, #28
 8004212:	bdf0      	pop	{r4, r5, r6, r7, pc}

08004214 <stm32_timer_open>:
 8004214:	4b33      	ldr	r3, [pc, #204]	; (80042e4 <stm32_timer_open+0xd0>)
 8004216:	0089      	lsls	r1, r1, #2
 8004218:	58c8      	ldr	r0, [r1, r3]
 800421a:	4b33      	ldr	r3, [pc, #204]	; (80042e8 <stm32_timer_open+0xd4>)
 800421c:	b570      	push	{r4, r5, r6, lr}
 800421e:	58cc      	ldr	r4, [r1, r3]
 8004220:	2301      	movs	r3, #1
 8004222:	40a3      	lsls	r3, r4
 8004224:	6804      	ldr	r4, [r0, #0]
 8004226:	4323      	orrs	r3, r4
 8004228:	2404      	movs	r4, #4
 800422a:	6003      	str	r3, [r0, #0]
 800422c:	4b2f      	ldr	r3, [pc, #188]	; (80042ec <stm32_timer_open+0xd8>)
 800422e:	58cb      	ldr	r3, [r1, r3]
 8004230:	6818      	ldr	r0, [r3, #0]
 8004232:	4320      	orrs	r0, r4
 8004234:	6018      	str	r0, [r3, #0]
 8004236:	0790      	lsls	r0, r2, #30
 8004238:	d503      	bpl.n	8004242 <stm32_timer_open+0x2e>
 800423a:	6818      	ldr	r0, [r3, #0]
 800423c:	1924      	adds	r4, r4, r4
 800423e:	4320      	orrs	r0, r4
 8004240:	6018      	str	r0, [r3, #0]
 8004242:	2004      	movs	r0, #4
 8004244:	4010      	ands	r0, r2
 8004246:	d003      	beq.n	8004250 <stm32_timer_open+0x3c>
 8004248:	2501      	movs	r5, #1
 800424a:	68dc      	ldr	r4, [r3, #12]
 800424c:	432c      	orrs	r4, r5
 800424e:	60dc      	str	r4, [r3, #12]
 8004250:	03d4      	lsls	r4, r2, #15
 8004252:	d504      	bpl.n	800425e <stm32_timer_open+0x4a>
 8004254:	2580      	movs	r5, #128	; 0x80
 8004256:	68dc      	ldr	r4, [r3, #12]
 8004258:	006d      	lsls	r5, r5, #1
 800425a:	432c      	orrs	r4, r5
 800425c:	60dc      	str	r4, [r3, #12]
 800425e:	07d4      	lsls	r4, r2, #31
 8004260:	d504      	bpl.n	800426c <stm32_timer_open+0x58>
 8004262:	2580      	movs	r5, #128	; 0x80
 8004264:	689c      	ldr	r4, [r3, #8]
 8004266:	01ed      	lsls	r5, r5, #7
 8004268:	432c      	orrs	r4, r5
 800426a:	609c      	str	r4, [r3, #8]
 800426c:	2800      	cmp	r0, #0
 800426e:	d037      	beq.n	80042e0 <stm32_timer_open+0xcc>
 8004270:	4b1f      	ldr	r3, [pc, #124]	; (80042f0 <stm32_timer_open+0xdc>)
 8004272:	20ff      	movs	r0, #255	; 0xff
 8004274:	585c      	ldr	r4, [r3, r1]
 8004276:	231f      	movs	r3, #31
 8004278:	2101      	movs	r1, #1
 800427a:	b2e4      	uxtb	r4, r4
 800427c:	4023      	ands	r3, r4
 800427e:	4099      	lsls	r1, r3
 8004280:	1c0b      	adds	r3, r1, #0
 8004282:	491c      	ldr	r1, [pc, #112]	; (80042f4 <stm32_timer_open+0xe0>)
 8004284:	0a12      	lsrs	r2, r2, #8
 8004286:	600b      	str	r3, [r1, #0]
 8004288:	4002      	ands	r2, r0
 800428a:	b261      	sxtb	r1, r4
 800428c:	0192      	lsls	r2, r2, #6
 800428e:	2900      	cmp	r1, #0
 8004290:	da13      	bge.n	80042ba <stm32_timer_open+0xa6>
 8004292:	210f      	movs	r1, #15
 8004294:	4021      	ands	r1, r4
 8004296:	3908      	subs	r1, #8
 8004298:	0889      	lsrs	r1, r1, #2
 800429a:	4b17      	ldr	r3, [pc, #92]	; (80042f8 <stm32_timer_open+0xe4>)
 800429c:	0089      	lsls	r1, r1, #2
 800429e:	18cb      	adds	r3, r1, r3
 80042a0:	2103      	movs	r1, #3
 80042a2:	400c      	ands	r4, r1
 80042a4:	408c      	lsls	r4, r1
 80042a6:	1c01      	adds	r1, r0, #0
 80042a8:	40a1      	lsls	r1, r4
 80042aa:	69dd      	ldr	r5, [r3, #28]
 80042ac:	4002      	ands	r2, r0
 80042ae:	438d      	bics	r5, r1
 80042b0:	1c29      	adds	r1, r5, #0
 80042b2:	40a2      	lsls	r2, r4
 80042b4:	4311      	orrs	r1, r2
 80042b6:	61d9      	str	r1, [r3, #28]
 80042b8:	e012      	b.n	80042e0 <stm32_timer_open+0xcc>
 80042ba:	4b0e      	ldr	r3, [pc, #56]	; (80042f4 <stm32_timer_open+0xe0>)
 80042bc:	0889      	lsrs	r1, r1, #2
 80042be:	0089      	lsls	r1, r1, #2
 80042c0:	18c9      	adds	r1, r1, r3
 80042c2:	2303      	movs	r3, #3
 80042c4:	401c      	ands	r4, r3
 80042c6:	409c      	lsls	r4, r3
 80042c8:	1c03      	adds	r3, r0, #0
 80042ca:	25c0      	movs	r5, #192	; 0xc0
 80042cc:	40a3      	lsls	r3, r4
 80042ce:	00ad      	lsls	r5, r5, #2
 80042d0:	594e      	ldr	r6, [r1, r5]
 80042d2:	439e      	bics	r6, r3
 80042d4:	1c13      	adds	r3, r2, #0
 80042d6:	4003      	ands	r3, r0
 80042d8:	40a3      	lsls	r3, r4
 80042da:	1c1a      	adds	r2, r3, #0
 80042dc:	4332      	orrs	r2, r6
 80042de:	514a      	str	r2, [r1, r5]
 80042e0:	bd70      	pop	{r4, r5, r6, pc}
 80042e2:	46c0      	nop			; (mov r8, r8)
 80042e4:	080086c0 	.word	0x080086c0
 80042e8:	080086d0 	.word	0x080086d0
 80042ec:	080086b0 	.word	0x080086b0
 80042f0:	080086ec 	.word	0x080086ec
 80042f4:	e000e100 	.word	0xe000e100
 80042f8:	e000ed00 	.word	0xe000ed00

080042fc <stm32_timer_close>:
 80042fc:	4b0c      	ldr	r3, [pc, #48]	; (8004330 <stm32_timer_close+0x34>)
 80042fe:	0089      	lsls	r1, r1, #2
 8004300:	58c8      	ldr	r0, [r1, r3]
 8004302:	2301      	movs	r3, #1
 8004304:	6802      	ldr	r2, [r0, #0]
 8004306:	439a      	bics	r2, r3
 8004308:	6002      	str	r2, [r0, #0]
 800430a:	4a0a      	ldr	r2, [pc, #40]	; (8004334 <stm32_timer_close+0x38>)
 800430c:	5888      	ldr	r0, [r1, r2]
 800430e:	221f      	movs	r2, #31
 8004310:	4002      	ands	r2, r0
 8004312:	1c18      	adds	r0, r3, #0
 8004314:	4090      	lsls	r0, r2
 8004316:	1c02      	adds	r2, r0, #0
 8004318:	4807      	ldr	r0, [pc, #28]	; (8004338 <stm32_timer_close+0x3c>)
 800431a:	67c2      	str	r2, [r0, #124]	; 0x7c
 800431c:	4a07      	ldr	r2, [pc, #28]	; (800433c <stm32_timer_close+0x40>)
 800431e:	4808      	ldr	r0, [pc, #32]	; (8004340 <stm32_timer_close+0x44>)
 8004320:	588a      	ldr	r2, [r1, r2]
 8004322:	5809      	ldr	r1, [r1, r0]
 8004324:	408b      	lsls	r3, r1
 8004326:	6811      	ldr	r1, [r2, #0]
 8004328:	4399      	bics	r1, r3
 800432a:	6011      	str	r1, [r2, #0]
 800432c:	4770      	bx	lr
 800432e:	46c0      	nop			; (mov r8, r8)
 8004330:	080086b0 	.word	0x080086b0
 8004334:	080086ec 	.word	0x080086ec
 8004338:	e000e104 	.word	0xe000e104
 800433c:	080086c0 	.word	0x080086c0
 8004340:	080086d0 	.word	0x080086d0

08004344 <stm32_timer_start>:
 8004344:	b538      	push	{r3, r4, r5, lr}
 8004346:	1c0c      	adds	r4, r1, #0
 8004348:	1c1d      	adds	r5, r3, #0
 800434a:	2a00      	cmp	r2, #0
 800434c:	d009      	beq.n	8004362 <stm32_timer_start+0x1e>
 800434e:	2a01      	cmp	r2, #1
 8004350:	d10f      	bne.n	8004372 <stm32_timer_start+0x2e>
 8004352:	f7ff ff41 	bl	80041d8 <stm32_timer_get_clock>
 8004356:	490e      	ldr	r1, [pc, #56]	; (8004390 <stm32_timer_start+0x4c>)
 8004358:	f003 fae2 	bl	8007920 <__aeabi_uidiv>
 800435c:	1c29      	adds	r1, r5, #0
 800435e:	4341      	muls	r1, r0
 8004360:	e005      	b.n	800436e <stm32_timer_start+0x2a>
 8004362:	f7ff ff39 	bl	80041d8 <stm32_timer_get_clock>
 8004366:	1c29      	adds	r1, r5, #0
 8004368:	f003 fada 	bl	8007920 <__aeabi_uidiv>
 800436c:	1c01      	adds	r1, r0, #0
 800436e:	1c20      	adds	r0, r4, #0
 8004370:	e001      	b.n	8004376 <stm32_timer_start+0x32>
 8004372:	1c08      	adds	r0, r1, #0
 8004374:	1c19      	adds	r1, r3, #0
 8004376:	f7ff fef3 	bl	8004160 <stm32_timer_setup_clk>
 800437a:	2101      	movs	r1, #1
 800437c:	2200      	movs	r2, #0
 800437e:	4b05      	ldr	r3, [pc, #20]	; (8004394 <stm32_timer_start+0x50>)
 8004380:	00a4      	lsls	r4, r4, #2
 8004382:	58e3      	ldr	r3, [r4, r3]
 8004384:	625a      	str	r2, [r3, #36]	; 0x24
 8004386:	6159      	str	r1, [r3, #20]
 8004388:	681a      	ldr	r2, [r3, #0]
 800438a:	430a      	orrs	r2, r1
 800438c:	601a      	str	r2, [r3, #0]
 800438e:	bd38      	pop	{r3, r4, r5, pc}
 8004390:	000f4240 	.word	0x000f4240
 8004394:	080086b0 	.word	0x080086b0

08004398 <hpet_start>:
 8004398:	b508      	push	{r3, lr}
 800439a:	690b      	ldr	r3, [r1, #16]
 800439c:	2202      	movs	r2, #2
 800439e:	4343      	muls	r3, r0
 80043a0:	1c08      	adds	r0, r1, #0
 80043a2:	2103      	movs	r1, #3
 80043a4:	f7ff ffce 	bl	8004344 <stm32_timer_start>
 80043a8:	bd08      	pop	{r3, pc}
 80043aa:	0000      	movs	r0, r0

080043ac <stm32_timer_stop>:
 80043ac:	2101      	movs	r1, #1
 80043ae:	4b05      	ldr	r3, [pc, #20]	; (80043c4 <stm32_timer_stop+0x18>)
 80043b0:	0080      	lsls	r0, r0, #2
 80043b2:	58c3      	ldr	r3, [r0, r3]
 80043b4:	681a      	ldr	r2, [r3, #0]
 80043b6:	438a      	bics	r2, r1
 80043b8:	601a      	str	r2, [r3, #0]
 80043ba:	691a      	ldr	r2, [r3, #16]
 80043bc:	438a      	bics	r2, r1
 80043be:	611a      	str	r2, [r3, #16]
 80043c0:	4770      	bx	lr
 80043c2:	46c0      	nop			; (mov r8, r8)
 80043c4:	080086b0 	.word	0x080086b0

080043c8 <hpet_stop>:
 80043c8:	b508      	push	{r3, lr}
 80043ca:	2003      	movs	r0, #3
 80043cc:	f7ff ffee 	bl	80043ac <stm32_timer_stop>
 80043d0:	bd08      	pop	{r3, pc}
 80043d2:	0000      	movs	r0, r0

080043d4 <stm32_timer_pm_event>:
 80043d4:	b510      	push	{r4, lr}
 80043d6:	2103      	movs	r1, #3
 80043d8:	1c04      	adds	r4, r0, #0
 80043da:	f7ff fefd 	bl	80041d8 <stm32_timer_get_clock>
 80043de:	4902      	ldr	r1, [pc, #8]	; (80043e8 <stm32_timer_pm_event+0x14>)
 80043e0:	f003 fa9e 	bl	8007920 <__aeabi_uidiv>
 80043e4:	6120      	str	r0, [r4, #16]
 80043e6:	bd10      	pop	{r4, pc}
 80043e8:	000f4240 	.word	0x000f4240

080043ec <stm32_timer_init>:
 80043ec:	b51f      	push	{r0, r1, r2, r3, r4, lr}
 80043ee:	1c04      	adds	r4, r0, #0
 80043f0:	4a0f      	ldr	r2, [pc, #60]	; (8004430 <stm32_timer_init+0x44>)
 80043f2:	1c23      	adds	r3, r4, #0
 80043f4:	200a      	movs	r0, #10
 80043f6:	2116      	movs	r1, #22
 80043f8:	f7fb feee 	bl	80001d8 <svc_call>
 80043fc:	1c20      	adds	r0, r4, #0
 80043fe:	2103      	movs	r1, #3
 8004400:	f7ff feea 	bl	80041d8 <stm32_timer_get_clock>
 8004404:	490b      	ldr	r1, [pc, #44]	; (8004434 <stm32_timer_init+0x48>)
 8004406:	f003 fa8b 	bl	8007920 <__aeabi_uidiv>
 800440a:	2103      	movs	r1, #3
 800440c:	6120      	str	r0, [r4, #16]
 800440e:	4a0a      	ldr	r2, [pc, #40]	; (8004438 <stm32_timer_init+0x4c>)
 8004410:	1c20      	adds	r0, r4, #0
 8004412:	f7ff feff 	bl	8004214 <stm32_timer_open>
 8004416:	4b09      	ldr	r3, [pc, #36]	; (800443c <stm32_timer_init+0x50>)
 8004418:	200f      	movs	r0, #15
 800441a:	9301      	str	r3, [sp, #4]
 800441c:	4b08      	ldr	r3, [pc, #32]	; (8004440 <stm32_timer_init+0x54>)
 800441e:	a901      	add	r1, sp, #4
 8004420:	9302      	str	r3, [sp, #8]
 8004422:	4b08      	ldr	r3, [pc, #32]	; (8004444 <stm32_timer_init+0x58>)
 8004424:	1c22      	adds	r2, r4, #0
 8004426:	9303      	str	r3, [sp, #12]
 8004428:	2300      	movs	r3, #0
 800442a:	f7fb fed5 	bl	80001d8 <svc_call>
 800442e:	bd1f      	pop	{r0, r1, r2, r3, r4, pc}
 8004430:	08004199 	.word	0x08004199
 8004434:	000f4240 	.word	0x000f4240
 8004438:	00000d06 	.word	0x00000d06
 800443c:	08004399 	.word	0x08004399
 8004440:	080043c9 	.word	0x080043c9
 8004444:	080041bd 	.word	0x080041bd

08004448 <stm32_timer_request>:
 8004448:	688a      	ldr	r2, [r1, #8]
 800444a:	b5f8      	push	{r3, r4, r5, r6, r7, lr}
 800444c:	1c0c      	adds	r4, r1, #0
 800444e:	b2d1      	uxtb	r1, r2
 8004450:	2903      	cmp	r1, #3
 8004452:	d904      	bls.n	800445e <stm32_timer_request+0x16>
 8004454:	2380      	movs	r3, #128	; 0x80
 8004456:	059b      	lsls	r3, r3, #22
 8004458:	681b      	ldr	r3, [r3, #0]
 800445a:	2207      	movs	r2, #7
 800445c:	e078      	b.n	8004550 <stm32_timer_request+0x108>
 800445e:	25c0      	movs	r5, #192	; 0xc0
 8004460:	6863      	ldr	r3, [r4, #4]
 8004462:	02ad      	lsls	r5, r5, #10
 8004464:	42ab      	cmp	r3, r5
 8004466:	d014      	beq.n	8004492 <stm32_timer_request+0x4a>
 8004468:	d808      	bhi.n	800447c <stm32_timer_request+0x34>
 800446a:	4a3b      	ldr	r2, [pc, #236]	; (8004558 <stm32_timer_request+0x110>)
 800446c:	4293      	cmp	r3, r2
 800446e:	d00c      	beq.n	800448a <stm32_timer_request+0x42>
 8004470:	4a3a      	ldr	r2, [pc, #232]	; (800455c <stm32_timer_request+0x114>)
 8004472:	4293      	cmp	r3, r2
 8004474:	d168      	bne.n	8004548 <stm32_timer_request+0x100>
 8004476:	f7ff ff41 	bl	80042fc <stm32_timer_close>
 800447a:	e06b      	b.n	8004554 <stm32_timer_request+0x10c>
 800447c:	4838      	ldr	r0, [pc, #224]	; (8004560 <stm32_timer_request+0x118>)
 800447e:	4283      	cmp	r3, r0
 8004480:	d00c      	beq.n	800449c <stm32_timer_request+0x54>
 8004482:	4938      	ldr	r1, [pc, #224]	; (8004564 <stm32_timer_request+0x11c>)
 8004484:	428b      	cmp	r3, r1
 8004486:	d00d      	beq.n	80044a4 <stm32_timer_request+0x5c>
 8004488:	e05e      	b.n	8004548 <stm32_timer_request+0x100>
 800448a:	68e2      	ldr	r2, [r4, #12]
 800448c:	f7ff fec2 	bl	8004214 <stm32_timer_open>
 8004490:	e060      	b.n	8004554 <stm32_timer_request+0x10c>
 8004492:	7b22      	ldrb	r2, [r4, #12]
 8004494:	6923      	ldr	r3, [r4, #16]
 8004496:	f7ff ff55 	bl	8004344 <stm32_timer_start>
 800449a:	e05b      	b.n	8004554 <stm32_timer_request+0x10c>
 800449c:	1c08      	adds	r0, r1, #0
 800449e:	f7ff ff85 	bl	80043ac <stm32_timer_stop>
 80044a2:	e057      	b.n	8004554 <stm32_timer_request+0x10c>
 80044a4:	68e1      	ldr	r1, [r4, #12]
 80044a6:	20ff      	movs	r0, #255	; 0xff
 80044a8:	1c0b      	adds	r3, r1, #0
 80044aa:	270f      	movs	r7, #15
 80044ac:	4003      	ands	r3, r0
 80044ae:	009d      	lsls	r5, r3, #2
 80044b0:	40af      	lsls	r7, r5
 80044b2:	6926      	ldr	r6, [r4, #16]
 80044b4:	4002      	ands	r2, r0
 80044b6:	4c2c      	ldr	r4, [pc, #176]	; (8004568 <stm32_timer_request+0x120>)
 80044b8:	0092      	lsls	r2, r2, #2
 80044ba:	5912      	ldr	r2, [r2, r4]
 80044bc:	0a09      	lsrs	r1, r1, #8
 80044be:	6a14      	ldr	r4, [r2, #32]
 80044c0:	b2c9      	uxtb	r1, r1
 80044c2:	43bc      	bics	r4, r7
 80044c4:	6214      	str	r4, [r2, #32]
 80044c6:	2b01      	cmp	r3, #1
 80044c8:	dc05      	bgt.n	80044d6 <stm32_timer_request+0x8e>
 80044ca:	00df      	lsls	r7, r3, #3
 80044cc:	40b8      	lsls	r0, r7
 80044ce:	6994      	ldr	r4, [r2, #24]
 80044d0:	4384      	bics	r4, r0
 80044d2:	6194      	str	r4, [r2, #24]
 80044d4:	e005      	b.n	80044e2 <stm32_timer_request+0x9a>
 80044d6:	1e9f      	subs	r7, r3, #2
 80044d8:	00ff      	lsls	r7, r7, #3
 80044da:	40b8      	lsls	r0, r7
 80044dc:	69d4      	ldr	r4, [r2, #28]
 80044de:	4384      	bics	r4, r0
 80044e0:	61d4      	str	r4, [r2, #28]
 80044e2:	2900      	cmp	r1, #0
 80044e4:	d036      	beq.n	8004554 <stm32_timer_request+0x10c>
 80044e6:	3901      	subs	r1, #1
 80044e8:	b2c9      	uxtb	r1, r1
 80044ea:	2904      	cmp	r1, #4
 80044ec:	d804      	bhi.n	80044f8 <stm32_timer_request+0xb0>
 80044ee:	481f      	ldr	r0, [pc, #124]	; (800456c <stm32_timer_request+0x124>)
 80044f0:	5c44      	ldrb	r4, [r0, r1]
 80044f2:	481f      	ldr	r0, [pc, #124]	; (8004570 <stm32_timer_request+0x128>)
 80044f4:	5c41      	ldrb	r1, [r0, r1]
 80044f6:	e001      	b.n	80044fc <stm32_timer_request+0xb4>
 80044f8:	2100      	movs	r1, #0
 80044fa:	1c0c      	adds	r4, r1, #0
 80044fc:	2b03      	cmp	r3, #3
 80044fe:	d80c      	bhi.n	800451a <stm32_timer_request+0xd2>
 8004500:	1c18      	adds	r0, r3, #0
 8004502:	f003 f9f9 	bl	80078f8 <__gnu_thumb1_case_uqi>
 8004506:	0402      	.short	0x0402
 8004508:	0806      	.short	0x0806
 800450a:	6356      	str	r6, [r2, #52]	; 0x34
 800450c:	e007      	b.n	800451e <stm32_timer_request+0xd6>
 800450e:	6396      	str	r6, [r2, #56]	; 0x38
 8004510:	e005      	b.n	800451e <stm32_timer_request+0xd6>
 8004512:	63d6      	str	r6, [r2, #60]	; 0x3c
 8004514:	e009      	b.n	800452a <stm32_timer_request+0xe2>
 8004516:	6416      	str	r6, [r2, #64]	; 0x40
 8004518:	e007      	b.n	800452a <stm32_timer_request+0xe2>
 800451a:	2b01      	cmp	r3, #1
 800451c:	dc05      	bgt.n	800452a <stm32_timer_request+0xe2>
 800451e:	00db      	lsls	r3, r3, #3
 8004520:	409c      	lsls	r4, r3
 8004522:	6990      	ldr	r0, [r2, #24]
 8004524:	4304      	orrs	r4, r0
 8004526:	6194      	str	r4, [r2, #24]
 8004528:	e006      	b.n	8004538 <stm32_timer_request+0xf0>
 800452a:	3b02      	subs	r3, #2
 800452c:	00db      	lsls	r3, r3, #3
 800452e:	409c      	lsls	r4, r3
 8004530:	1c23      	adds	r3, r4, #0
 8004532:	69d0      	ldr	r0, [r2, #28]
 8004534:	4303      	orrs	r3, r0
 8004536:	61d3      	str	r3, [r2, #28]
 8004538:	2001      	movs	r0, #1
 800453a:	4301      	orrs	r1, r0
 800453c:	40a9      	lsls	r1, r5
 800453e:	1c0d      	adds	r5, r1, #0
 8004540:	6a13      	ldr	r3, [r2, #32]
 8004542:	431d      	orrs	r5, r3
 8004544:	6215      	str	r5, [r2, #32]
 8004546:	e005      	b.n	8004554 <stm32_timer_request+0x10c>
 8004548:	2380      	movs	r3, #128	; 0x80
 800454a:	2202      	movs	r2, #2
 800454c:	059b      	lsls	r3, r3, #22
 800454e:	681b      	ldr	r3, [r3, #0]
 8004550:	4252      	negs	r2, r2
 8004552:	601a      	str	r2, [r3, #0]
 8004554:	2001      	movs	r0, #1
 8004556:	bdf8      	pop	{r3, r4, r5, r6, r7, pc}
 8004558:	00001005 	.word	0x00001005
 800455c:	00001006 	.word	0x00001006
 8004560:	00030001 	.word	0x00030001
 8004564:	00030002 	.word	0x00030002
 8004568:	080086b0 	.word	0x080086b0
 800456c:	080086e0 	.word	0x080086e0
 8004570:	080086e5 	.word	0x080086e5

08004574 <stm32_rtc_isr>:
 8004574:	2280      	movs	r2, #128	; 0x80
 8004576:	4b09      	ldr	r3, [pc, #36]	; (800459c <stm32_rtc_isr+0x28>)
 8004578:	0352      	lsls	r2, r2, #13
 800457a:	b510      	push	{r4, lr}
 800457c:	615a      	str	r2, [r3, #20]
 800457e:	4a08      	ldr	r2, [pc, #32]	; (80045a0 <stm32_rtc_isr+0x2c>)
 8004580:	4b08      	ldr	r3, [pc, #32]	; (80045a4 <stm32_rtc_isr+0x30>)
 8004582:	68d1      	ldr	r1, [r2, #12]
 8004584:	200d      	movs	r0, #13
 8004586:	400b      	ands	r3, r1
 8004588:	60d3      	str	r3, [r2, #12]
 800458a:	2380      	movs	r3, #128	; 0x80
 800458c:	2100      	movs	r1, #0
 800458e:	059b      	lsls	r3, r3, #22
 8004590:	685c      	ldr	r4, [r3, #4]
 8004592:	1c0a      	adds	r2, r1, #0
 8004594:	1c0b      	adds	r3, r1, #0
 8004596:	47a0      	blx	r4
 8004598:	bd10      	pop	{r4, pc}
 800459a:	46c0      	nop			; (mov r8, r8)
 800459c:	40010400 	.word	0x40010400
 80045a0:	40002800 	.word	0x40002800
 80045a4:	fffffbff 	.word	0xfffffbff

080045a8 <enter_configuration>:
 80045a8:	2180      	movs	r1, #128	; 0x80
 80045aa:	4b04      	ldr	r3, [pc, #16]	; (80045bc <enter_configuration+0x14>)
 80045ac:	68da      	ldr	r2, [r3, #12]
 80045ae:	430a      	orrs	r2, r1
 80045b0:	60da      	str	r2, [r3, #12]
 80045b2:	68da      	ldr	r2, [r3, #12]
 80045b4:	0652      	lsls	r2, r2, #25
 80045b6:	d5fc      	bpl.n	80045b2 <enter_configuration+0xa>
 80045b8:	4770      	bx	lr
 80045ba:	46c0      	nop			; (mov r8, r8)
 80045bc:	40002800 	.word	0x40002800

080045c0 <leave_configuration>:
 80045c0:	2180      	movs	r1, #128	; 0x80
 80045c2:	4a02      	ldr	r2, [pc, #8]	; (80045cc <leave_configuration+0xc>)
 80045c4:	68d3      	ldr	r3, [r2, #12]
 80045c6:	438b      	bics	r3, r1
 80045c8:	60d3      	str	r3, [r2, #12]
 80045ca:	4770      	bx	lr
 80045cc:	40002800 	.word	0x40002800

080045d0 <stm32_rtc_init>:
 80045d0:	2180      	movs	r1, #128	; 0x80
 80045d2:	2080      	movs	r0, #128	; 0x80
 80045d4:	4b36      	ldr	r3, [pc, #216]	; (80046b0 <stm32_rtc_init+0xe0>)
 80045d6:	0549      	lsls	r1, r1, #21
 80045d8:	6b9a      	ldr	r2, [r3, #56]	; 0x38
 80045da:	b570      	push	{r4, r5, r6, lr}
 80045dc:	430a      	orrs	r2, r1
 80045de:	4935      	ldr	r1, [pc, #212]	; (80046b4 <stm32_rtc_init+0xe4>)
 80045e0:	639a      	str	r2, [r3, #56]	; 0x38
 80045e2:	680a      	ldr	r2, [r1, #0]
 80045e4:	0040      	lsls	r0, r0, #1
 80045e6:	4302      	orrs	r2, r0
 80045e8:	600a      	str	r2, [r1, #0]
 80045ea:	2180      	movs	r1, #128	; 0x80
 80045ec:	6d1a      	ldr	r2, [r3, #80]	; 0x50
 80045ee:	0309      	lsls	r1, r1, #12
 80045f0:	430a      	orrs	r2, r1
 80045f2:	651a      	str	r2, [r3, #80]	; 0x50
 80045f4:	46c0      	nop			; (mov r8, r8)
 80045f6:	46c0      	nop			; (mov r8, r8)
 80045f8:	46c0      	nop			; (mov r8, r8)
 80045fa:	4a2f      	ldr	r2, [pc, #188]	; (80046b8 <stm32_rtc_init+0xe8>)
 80045fc:	6d19      	ldr	r1, [r3, #80]	; 0x50
 80045fe:	400a      	ands	r2, r1
 8004600:	651a      	str	r2, [r3, #80]	; 0x50
 8004602:	b672      	cpsid	i
 8004604:	22ca      	movs	r2, #202	; 0xca
 8004606:	4c2d      	ldr	r4, [pc, #180]	; (80046bc <stm32_rtc_init+0xec>)
 8004608:	6262      	str	r2, [r4, #36]	; 0x24
 800460a:	3a77      	subs	r2, #119	; 0x77
 800460c:	6262      	str	r2, [r4, #36]	; 0x24
 800460e:	b662      	cpsie	i
 8004610:	2080      	movs	r0, #128	; 0x80
 8004612:	6d1d      	ldr	r5, [r3, #80]	; 0x50
 8004614:	02c0      	lsls	r0, r0, #11
 8004616:	4005      	ands	r5, r0
 8004618:	4e29      	ldr	r6, [pc, #164]	; (80046c0 <stm32_rtc_init+0xf0>)
 800461a:	d121      	bne.n	8004660 <stm32_rtc_init+0x90>
 800461c:	6d19      	ldr	r1, [r3, #80]	; 0x50
 800461e:	4a29      	ldr	r2, [pc, #164]	; (80046c4 <stm32_rtc_init+0xf4>)
 8004620:	4011      	ands	r1, r2
 8004622:	22c0      	movs	r2, #192	; 0xc0
 8004624:	6519      	str	r1, [r3, #80]	; 0x50
 8004626:	6d19      	ldr	r1, [r3, #80]	; 0x50
 8004628:	0292      	lsls	r2, r2, #10
 800462a:	4311      	orrs	r1, r2
 800462c:	6519      	str	r1, [r3, #80]	; 0x50
 800462e:	6d1a      	ldr	r2, [r3, #80]	; 0x50
 8004630:	4302      	orrs	r2, r0
 8004632:	651a      	str	r2, [r3, #80]	; 0x50
 8004634:	f7ff ffb8 	bl	80045a8 <enter_configuration>
 8004638:	4b23      	ldr	r3, [pc, #140]	; (80046c8 <stm32_rtc_init+0xf8>)
 800463a:	6123      	str	r3, [r4, #16]
 800463c:	6025      	str	r5, [r4, #0]
 800463e:	6065      	str	r5, [r4, #4]
 8004640:	68a3      	ldr	r3, [r4, #8]
 8004642:	4033      	ands	r3, r6
 8004644:	60a3      	str	r3, [r4, #8]
 8004646:	2104      	movs	r1, #4
 8004648:	68e2      	ldr	r2, [r4, #12]
 800464a:	4b1c      	ldr	r3, [pc, #112]	; (80046bc <stm32_rtc_init+0xec>)
 800464c:	420a      	tst	r2, r1
 800464e:	d0fa      	beq.n	8004646 <stm32_rtc_init+0x76>
 8004650:	689a      	ldr	r2, [r3, #8]
 8004652:	430a      	orrs	r2, r1
 8004654:	609a      	str	r2, [r3, #8]
 8004656:	2200      	movs	r2, #0
 8004658:	615a      	str	r2, [r3, #20]
 800465a:	f7ff ffb1 	bl	80045c0 <leave_configuration>
 800465e:	e001      	b.n	8004664 <stm32_rtc_init+0x94>
 8004660:	f7ff ffa2 	bl	80045a8 <enter_configuration>
 8004664:	2288      	movs	r2, #136	; 0x88
 8004666:	68a3      	ldr	r3, [r4, #8]
 8004668:	01d2      	lsls	r2, r2, #7
 800466a:	4313      	orrs	r3, r2
 800466c:	60a3      	str	r3, [r4, #8]
 800466e:	f7ff ffa7 	bl	80045c0 <leave_configuration>
 8004672:	2080      	movs	r0, #128	; 0x80
 8004674:	68e3      	ldr	r3, [r4, #12]
 8004676:	0340      	lsls	r0, r0, #13
 8004678:	401e      	ands	r6, r3
 800467a:	4b14      	ldr	r3, [pc, #80]	; (80046cc <stm32_rtc_init+0xfc>)
 800467c:	60e6      	str	r6, [r4, #12]
 800467e:	6819      	ldr	r1, [r3, #0]
 8004680:	4301      	orrs	r1, r0
 8004682:	6019      	str	r1, [r3, #0]
 8004684:	689a      	ldr	r2, [r3, #8]
 8004686:	2102      	movs	r1, #2
 8004688:	4302      	orrs	r2, r0
 800468a:	609a      	str	r2, [r3, #8]
 800468c:	200a      	movs	r0, #10
 800468e:	4a10      	ldr	r2, [pc, #64]	; (80046d0 <stm32_rtc_init+0x100>)
 8004690:	2300      	movs	r3, #0
 8004692:	f7fb fda1 	bl	80001d8 <svc_call>
 8004696:	2304      	movs	r3, #4
 8004698:	21c0      	movs	r1, #192	; 0xc0
 800469a:	4a0e      	ldr	r2, [pc, #56]	; (80046d4 <stm32_rtc_init+0x104>)
 800469c:	0089      	lsls	r1, r1, #2
 800469e:	6013      	str	r3, [r2, #0]
 80046a0:	5850      	ldr	r0, [r2, r1]
 80046a2:	4b0d      	ldr	r3, [pc, #52]	; (80046d8 <stm32_rtc_init+0x108>)
 80046a4:	4003      	ands	r3, r0
 80046a6:	2080      	movs	r0, #128	; 0x80
 80046a8:	03c0      	lsls	r0, r0, #15
 80046aa:	4303      	orrs	r3, r0
 80046ac:	5053      	str	r3, [r2, r1]
 80046ae:	bd70      	pop	{r4, r5, r6, pc}
 80046b0:	40021000 	.word	0x40021000
 80046b4:	40007000 	.word	0x40007000
 80046b8:	fff7ffff 	.word	0xfff7ffff
 80046bc:	40002800 	.word	0x40002800
 80046c0:	fffffbff 	.word	0xfffffbff
 80046c4:	fffcffff 	.word	0xfffcffff
 80046c8:	003f3d08 	.word	0x003f3d08
 80046cc:	40010400 	.word	0x40010400
 80046d0:	08004575 	.word	0x08004575
 80046d4:	e000e100 	.word	0xe000e100
 80046d8:	ff00ffff 	.word	0xff00ffff

080046dc <stm32_rtc_get>:
 80046dc:	b537      	push	{r0, r1, r2, r4, r5, lr}
 80046de:	2507      	movs	r5, #7
 80046e0:	220a      	movs	r2, #10
 80046e2:	210f      	movs	r1, #15
 80046e4:	4b23      	ldr	r3, [pc, #140]	; (8004774 <stm32_rtc_get+0x98>)
 80046e6:	681c      	ldr	r4, [r3, #0]
 80046e8:	6818      	ldr	r0, [r3, #0]
 80046ea:	0924      	lsrs	r4, r4, #4
 80046ec:	402c      	ands	r4, r5
 80046ee:	4354      	muls	r4, r2
 80046f0:	4008      	ands	r0, r1
 80046f2:	1824      	adds	r4, r4, r0
 80046f4:	4668      	mov	r0, sp
 80046f6:	7004      	strb	r4, [r0, #0]
 80046f8:	6818      	ldr	r0, [r3, #0]
 80046fa:	681c      	ldr	r4, [r3, #0]
 80046fc:	0b00      	lsrs	r0, r0, #12
 80046fe:	4005      	ands	r5, r0
 8004700:	4355      	muls	r5, r2
 8004702:	0a20      	lsrs	r0, r4, #8
 8004704:	466c      	mov	r4, sp
 8004706:	4008      	ands	r0, r1
 8004708:	1828      	adds	r0, r5, r0
 800470a:	2503      	movs	r5, #3
 800470c:	7060      	strb	r0, [r4, #1]
 800470e:	681c      	ldr	r4, [r3, #0]
 8004710:	6818      	ldr	r0, [r3, #0]
 8004712:	0d24      	lsrs	r4, r4, #20
 8004714:	402c      	ands	r4, r5
 8004716:	4354      	muls	r4, r2
 8004718:	0c00      	lsrs	r0, r0, #16
 800471a:	4008      	ands	r0, r1
 800471c:	1820      	adds	r0, r4, r0
 800471e:	466c      	mov	r4, sp
 8004720:	70a0      	strb	r0, [r4, #2]
 8004722:	685c      	ldr	r4, [r3, #4]
 8004724:	6858      	ldr	r0, [r3, #4]
 8004726:	0924      	lsrs	r4, r4, #4
 8004728:	4025      	ands	r5, r4
 800472a:	4355      	muls	r5, r2
 800472c:	4008      	ands	r0, r1
 800472e:	182d      	adds	r5, r5, r0
 8004730:	4668      	mov	r0, sp
 8004732:	70c5      	strb	r5, [r0, #3]
 8004734:	685c      	ldr	r4, [r3, #4]
 8004736:	6858      	ldr	r0, [r3, #4]
 8004738:	04e4      	lsls	r4, r4, #19
 800473a:	0fe4      	lsrs	r4, r4, #31
 800473c:	4354      	muls	r4, r2
 800473e:	0a00      	lsrs	r0, r0, #8
 8004740:	4008      	ands	r0, r1
 8004742:	1820      	adds	r0, r4, r0
 8004744:	466c      	mov	r4, sp
 8004746:	7120      	strb	r0, [r4, #4]
 8004748:	24fa      	movs	r4, #250	; 0xfa
 800474a:	6858      	ldr	r0, [r3, #4]
 800474c:	685b      	ldr	r3, [r3, #4]
 800474e:	0d00      	lsrs	r0, r0, #20
 8004750:	0c1b      	lsrs	r3, r3, #16
 8004752:	400b      	ands	r3, r1
 8004754:	4001      	ands	r1, r0
 8004756:	434a      	muls	r2, r1
 8004758:	00e4      	lsls	r4, r4, #3
 800475a:	191b      	adds	r3, r3, r4
 800475c:	189a      	adds	r2, r3, r2
 800475e:	466b      	mov	r3, sp
 8004760:	80da      	strh	r2, [r3, #6]
 8004762:	2380      	movs	r3, #128	; 0x80
 8004764:	059b      	lsls	r3, r3, #22
 8004766:	689b      	ldr	r3, [r3, #8]
 8004768:	4668      	mov	r0, sp
 800476a:	689b      	ldr	r3, [r3, #8]
 800476c:	681b      	ldr	r3, [r3, #0]
 800476e:	4798      	blx	r3
 8004770:	bd3e      	pop	{r1, r2, r3, r4, r5, pc}
 8004772:	46c0      	nop			; (mov r8, r8)
 8004774:	40002800 	.word	0x40002800

08004778 <stm32_rtc_set>:
 8004778:	b5f0      	push	{r4, r5, r6, r7, lr}
 800477a:	b085      	sub	sp, #20
 800477c:	1c04      	adds	r4, r0, #0
 800477e:	f7ff ff13 	bl	80045a8 <enter_configuration>
 8004782:	2380      	movs	r3, #128	; 0x80
 8004784:	059b      	lsls	r3, r3, #22
 8004786:	689b      	ldr	r3, [r3, #8]
 8004788:	a902      	add	r1, sp, #8
 800478a:	689b      	ldr	r3, [r3, #8]
 800478c:	1c20      	adds	r0, r4, #0
 800478e:	685b      	ldr	r3, [r3, #4]
 8004790:	4798      	blx	r3
 8004792:	ab02      	add	r3, sp, #8
 8004794:	88dc      	ldrh	r4, [r3, #6]
 8004796:	4b35      	ldr	r3, [pc, #212]	; (800486c <stm32_rtc_set+0xf4>)
 8004798:	210a      	movs	r1, #10
 800479a:	18e4      	adds	r4, r4, r3
 800479c:	ab02      	add	r3, sp, #8
 800479e:	789f      	ldrb	r7, [r3, #2]
 80047a0:	b2a4      	uxth	r4, r4
 80047a2:	80dc      	strh	r4, [r3, #6]
 80047a4:	1c38      	adds	r0, r7, #0
 80047a6:	785e      	ldrb	r6, [r3, #1]
 80047a8:	781d      	ldrb	r5, [r3, #0]
 80047aa:	f003 f8b9 	bl	8007920 <__aeabi_uidiv>
 80047ae:	b2c0      	uxtb	r0, r0
 80047b0:	0503      	lsls	r3, r0, #20
 80047b2:	210a      	movs	r1, #10
 80047b4:	1c38      	adds	r0, r7, #0
 80047b6:	9301      	str	r3, [sp, #4]
 80047b8:	f003 f938 	bl	8007a2c <__aeabi_uidivmod>
 80047bc:	9b01      	ldr	r3, [sp, #4]
 80047be:	b2cf      	uxtb	r7, r1
 80047c0:	1c28      	adds	r0, r5, #0
 80047c2:	043f      	lsls	r7, r7, #16
 80047c4:	210a      	movs	r1, #10
 80047c6:	431f      	orrs	r7, r3
 80047c8:	f003 f930 	bl	8007a2c <__aeabi_uidivmod>
 80047cc:	b2c8      	uxtb	r0, r1
 80047ce:	4307      	orrs	r7, r0
 80047d0:	210a      	movs	r1, #10
 80047d2:	1c30      	adds	r0, r6, #0
 80047d4:	f003 f8a4 	bl	8007920 <__aeabi_uidiv>
 80047d8:	b2c0      	uxtb	r0, r0
 80047da:	0300      	lsls	r0, r0, #12
 80047dc:	4307      	orrs	r7, r0
 80047de:	210a      	movs	r1, #10
 80047e0:	1c30      	adds	r0, r6, #0
 80047e2:	f003 f923 	bl	8007a2c <__aeabi_uidivmod>
 80047e6:	1c3e      	adds	r6, r7, #0
 80047e8:	b2c8      	uxtb	r0, r1
 80047ea:	0200      	lsls	r0, r0, #8
 80047ec:	4306      	orrs	r6, r0
 80047ee:	210a      	movs	r1, #10
 80047f0:	1c28      	adds	r0, r5, #0
 80047f2:	f003 f895 	bl	8007920 <__aeabi_uidiv>
 80047f6:	b2c0      	uxtb	r0, r0
 80047f8:	4d1d      	ldr	r5, [pc, #116]	; (8004870 <stm32_rtc_set+0xf8>)
 80047fa:	0100      	lsls	r0, r0, #4
 80047fc:	4330      	orrs	r0, r6
 80047fe:	ab02      	add	r3, sp, #8
 8004800:	6028      	str	r0, [r5, #0]
 8004802:	78de      	ldrb	r6, [r3, #3]
 8004804:	210a      	movs	r1, #10
 8004806:	1c30      	adds	r0, r6, #0
 8004808:	791f      	ldrb	r7, [r3, #4]
 800480a:	f003 f90f 	bl	8007a2c <__aeabi_uidivmod>
 800480e:	2080      	movs	r0, #128	; 0x80
 8004810:	b2c9      	uxtb	r1, r1
 8004812:	0180      	lsls	r0, r0, #6
 8004814:	4308      	orrs	r0, r1
 8004816:	9001      	str	r0, [sp, #4]
 8004818:	210a      	movs	r1, #10
 800481a:	1c38      	adds	r0, r7, #0
 800481c:	f003 f880 	bl	8007920 <__aeabi_uidiv>
 8004820:	9b01      	ldr	r3, [sp, #4]
 8004822:	b2c0      	uxtb	r0, r0
 8004824:	0300      	lsls	r0, r0, #12
 8004826:	4303      	orrs	r3, r0
 8004828:	210a      	movs	r1, #10
 800482a:	1c38      	adds	r0, r7, #0
 800482c:	9301      	str	r3, [sp, #4]
 800482e:	f003 f8fd 	bl	8007a2c <__aeabi_uidivmod>
 8004832:	9b01      	ldr	r3, [sp, #4]
 8004834:	b2cf      	uxtb	r7, r1
 8004836:	1c30      	adds	r0, r6, #0
 8004838:	210a      	movs	r1, #10
 800483a:	023f      	lsls	r7, r7, #8
 800483c:	431f      	orrs	r7, r3
 800483e:	f003 f86f 	bl	8007920 <__aeabi_uidiv>
 8004842:	210a      	movs	r1, #10
 8004844:	b2c6      	uxtb	r6, r0
 8004846:	1c20      	adds	r0, r4, #0
 8004848:	f003 f86a 	bl	8007920 <__aeabi_uidiv>
 800484c:	0136      	lsls	r6, r6, #4
 800484e:	433e      	orrs	r6, r7
 8004850:	0500      	lsls	r0, r0, #20
 8004852:	4306      	orrs	r6, r0
 8004854:	210a      	movs	r1, #10
 8004856:	1c20      	adds	r0, r4, #0
 8004858:	f003 f8e8 	bl	8007a2c <__aeabi_uidivmod>
 800485c:	0409      	lsls	r1, r1, #16
 800485e:	430e      	orrs	r6, r1
 8004860:	606e      	str	r6, [r5, #4]
 8004862:	f7ff fead 	bl	80045c0 <leave_configuration>
 8004866:	b005      	add	sp, #20
 8004868:	bdf0      	pop	{r4, r5, r6, r7, pc}
 800486a:	46c0      	nop			; (mov r8, r8)
 800486c:	fffff830 	.word	0xfffff830
 8004870:	40002800 	.word	0x40002800

08004874 <stm32_rtc_request>:
 8004874:	2280      	movs	r2, #128	; 0x80
 8004876:	6843      	ldr	r3, [r0, #4]
 8004878:	b510      	push	{r4, lr}
 800487a:	02d2      	lsls	r2, r2, #11
 800487c:	1c04      	adds	r4, r0, #0
 800487e:	4293      	cmp	r3, r2
 8004880:	d006      	beq.n	8004890 <stm32_rtc_request+0x1c>
 8004882:	4a08      	ldr	r2, [pc, #32]	; (80048a4 <stm32_rtc_request+0x30>)
 8004884:	4293      	cmp	r3, r2
 8004886:	d107      	bne.n	8004898 <stm32_rtc_request+0x24>
 8004888:	6880      	ldr	r0, [r0, #8]
 800488a:	f7ff ff75 	bl	8004778 <stm32_rtc_set>
 800488e:	e006      	b.n	800489e <stm32_rtc_request+0x2a>
 8004890:	f7ff ff24 	bl	80046dc <stm32_rtc_get>
 8004894:	60e0      	str	r0, [r4, #12]
 8004896:	e002      	b.n	800489e <stm32_rtc_request+0x2a>
 8004898:	2302      	movs	r3, #2
 800489a:	425b      	negs	r3, r3
 800489c:	6103      	str	r3, [r0, #16]
 800489e:	2001      	movs	r0, #1
 80048a0:	bd10      	pop	{r4, pc}
 80048a2:	46c0      	nop			; (mov r8, r8)
 80048a4:	00040001 	.word	0x00040001

080048a8 <stm32_rtc_disable>:
 80048a8:	b508      	push	{r3, lr}
 80048aa:	f7ff fe7d 	bl	80045a8 <enter_configuration>
 80048ae:	4a04      	ldr	r2, [pc, #16]	; (80048c0 <stm32_rtc_disable+0x18>)
 80048b0:	4b04      	ldr	r3, [pc, #16]	; (80048c4 <stm32_rtc_disable+0x1c>)
 80048b2:	6891      	ldr	r1, [r2, #8]
 80048b4:	400b      	ands	r3, r1
 80048b6:	6093      	str	r3, [r2, #8]
 80048b8:	f7ff fe82 	bl	80045c0 <leave_configuration>
 80048bc:	bd08      	pop	{r3, pc}
 80048be:	46c0      	nop			; (mov r8, r8)
 80048c0:	40002800 	.word	0x40002800
 80048c4:	ffff00ff 	.word	0xffff00ff

080048c8 <stm32_core_loop>:
 80048c8:	b530      	push	{r4, r5, lr}
 80048ca:	1c04      	adds	r4, r0, #0
 80048cc:	b08b      	sub	sp, #44	; 0x2c
 80048ce:	2580      	movs	r5, #128	; 0x80
 80048d0:	2000      	movs	r0, #0
 80048d2:	05ad      	lsls	r5, r5, #22
 80048d4:	682b      	ldr	r3, [r5, #0]
 80048d6:	a903      	add	r1, sp, #12
 80048d8:	6018      	str	r0, [r3, #0]
 80048da:	68ab      	ldr	r3, [r5, #8]
 80048dc:	689b      	ldr	r3, [r3, #8]
 80048de:	699b      	ldr	r3, [r3, #24]
 80048e0:	4798      	blx	r3
 80048e2:	2302      	movs	r3, #2
 80048e4:	2015      	movs	r0, #21
 80048e6:	a905      	add	r1, sp, #20
 80048e8:	aa03      	add	r2, sp, #12
 80048ea:	425b      	negs	r3, r3
 80048ec:	f7fb fc74 	bl	80001d8 <svc_call>
 80048f0:	9806      	ldr	r0, [sp, #24]
 80048f2:	2800      	cmp	r0, #0
 80048f4:	d03a      	beq.n	800496c <stm32_core_loop+0xa4>
 80048f6:	4b24      	ldr	r3, [pc, #144]	; (8004988 <stm32_core_loop+0xc0>)
 80048f8:	4298      	cmp	r0, r3
 80048fa:	d803      	bhi.n	8004904 <stm32_core_loop+0x3c>
 80048fc:	9b07      	ldr	r3, [sp, #28]
 80048fe:	9301      	str	r3, [sp, #4]
 8004900:	0c18      	lsrs	r0, r3, #16
 8004902:	e002      	b.n	800490a <stm32_core_loop+0x42>
 8004904:	4b21      	ldr	r3, [pc, #132]	; (800498c <stm32_core_loop+0xc4>)
 8004906:	18c0      	adds	r0, r0, r3
 8004908:	0c00      	lsrs	r0, r0, #16
 800490a:	2807      	cmp	r0, #7
 800490c:	d827      	bhi.n	800495e <stm32_core_loop+0x96>
 800490e:	f002 fff3 	bl	80078f8 <__gnu_thumb1_case_uqi>
 8004912:	0409      	.short	0x0409
 8004914:	1726130e 	.word	0x1726130e
 8004918:	1c21      	.short	0x1c21
 800491a:	1c20      	adds	r0, r4, #0
 800491c:	a905      	add	r1, sp, #20
 800491e:	f7ff fb69 	bl	8003ff4 <stm32_power_request>
 8004922:	e021      	b.n	8004968 <stm32_core_loop+0xa0>
 8004924:	1c20      	adds	r0, r4, #0
 8004926:	a905      	add	r1, sp, #20
 8004928:	f7ff f990 	bl	8003c4c <stm32_gpio_request>
 800492c:	e01c      	b.n	8004968 <stm32_core_loop+0xa0>
 800492e:	1c20      	adds	r0, r4, #0
 8004930:	a905      	add	r1, sp, #20
 8004932:	f7ff fd89 	bl	8004448 <stm32_timer_request>
 8004936:	e017      	b.n	8004968 <stm32_core_loop+0xa0>
 8004938:	a805      	add	r0, sp, #20
 800493a:	f7ff ff9b 	bl	8004874 <stm32_rtc_request>
 800493e:	e013      	b.n	8004968 <stm32_core_loop+0xa0>
 8004940:	1c20      	adds	r0, r4, #0
 8004942:	a905      	add	r1, sp, #20
 8004944:	f000 fa74 	bl	8004e30 <stm32_uart_request>
 8004948:	e00e      	b.n	8004968 <stm32_core_loop+0xa0>
 800494a:	1c20      	adds	r0, r4, #0
 800494c:	a905      	add	r1, sp, #20
 800494e:	f001 f9ad 	bl	8005cac <stm32_adc_request>
 8004952:	e009      	b.n	8004968 <stm32_core_loop+0xa0>
 8004954:	1c20      	adds	r0, r4, #0
 8004956:	a905      	add	r1, sp, #20
 8004958:	f000 ff5a 	bl	8005810 <stm32_usb_request>
 800495c:	e004      	b.n	8004968 <stm32_core_loop+0xa0>
 800495e:	2202      	movs	r2, #2
 8004960:	682b      	ldr	r3, [r5, #0]
 8004962:	4252      	negs	r2, r2
 8004964:	601a      	str	r2, [r3, #0]
 8004966:	e001      	b.n	800496c <stm32_core_loop+0xa4>
 8004968:	2800      	cmp	r0, #0
 800496a:	d0b0      	beq.n	80048ce <stm32_core_loop+0x6>
 800496c:	2380      	movs	r3, #128	; 0x80
 800496e:	2200      	movs	r2, #0
 8004970:	059b      	lsls	r3, r3, #22
 8004972:	681b      	ldr	r3, [r3, #0]
 8004974:	2014      	movs	r0, #20
 8004976:	681b      	ldr	r3, [r3, #0]
 8004978:	a905      	add	r1, sp, #20
 800497a:	9301      	str	r3, [sp, #4]
 800497c:	9309      	str	r3, [sp, #36]	; 0x24
 800497e:	1c13      	adds	r3, r2, #0
 8004980:	f7fb fc2a 	bl	80001d8 <svc_call>
 8004984:	e7a3      	b.n	80048ce <stm32_core_loop+0x6>
 8004986:	46c0      	nop			; (mov r8, r8)
 8004988:	0000ffff 	.word	0x0000ffff
 800498c:	ffff0000 	.word	0xffff0000

08004990 <stm32_core>:
 8004990:	2200      	movs	r2, #0
 8004992:	b500      	push	{lr}
 8004994:	b099      	sub	sp, #100	; 0x64
 8004996:	1c13      	adds	r3, r2, #0
 8004998:	2001      	movs	r0, #1
 800499a:	4669      	mov	r1, sp
 800499c:	f7fb fc1c 	bl	80001d8 <svc_call>
 80049a0:	2101      	movs	r1, #1
 80049a2:	9a00      	ldr	r2, [sp, #0]
 80049a4:	2300      	movs	r3, #0
 80049a6:	202c      	movs	r0, #44	; 0x2c
 80049a8:	f7fb fc16 	bl	80001d8 <svc_call>
 80049ac:	4668      	mov	r0, sp
 80049ae:	f7ff fb03 	bl	8003fb8 <stm32_power_init>
 80049b2:	4668      	mov	r0, sp
 80049b4:	f7ff fd1a 	bl	80043ec <stm32_timer_init>
 80049b8:	4668      	mov	r0, sp
 80049ba:	f7ff f940 	bl	8003c3e <stm32_gpio_init>
 80049be:	f7ff fe07 	bl	80045d0 <stm32_rtc_init>
 80049c2:	4668      	mov	r0, sp
 80049c4:	f000 fc00 	bl	80051c8 <stm32_uart_init>
 80049c8:	4668      	mov	r0, sp
 80049ca:	f001 fa81 	bl	8005ed0 <stm32_adc_init>
 80049ce:	4668      	mov	r0, sp
 80049d0:	f000 ff0e 	bl	80057f0 <stm32_usb_init>
 80049d4:	4668      	mov	r0, sp
 80049d6:	f7ff ff77 	bl	80048c8 <stm32_core_loop>

080049da <process_iget_current>:
 80049da:	2380      	movs	r3, #128	; 0x80
 80049dc:	2200      	movs	r2, #0
 80049de:	b513      	push	{r0, r1, r4, lr}
 80049e0:	059b      	lsls	r3, r3, #22
 80049e2:	685c      	ldr	r4, [r3, #4]
 80049e4:	2001      	movs	r0, #1
 80049e6:	a901      	add	r1, sp, #4
 80049e8:	1c13      	adds	r3, r2, #0
 80049ea:	47a0      	blx	r4
 80049ec:	9801      	ldr	r0, [sp, #4]
 80049ee:	bd16      	pop	{r1, r2, r4, pc}

080049f0 <ipc_ipost>:
 80049f0:	2380      	movs	r3, #128	; 0x80
 80049f2:	2200      	movs	r2, #0
 80049f4:	b510      	push	{r4, lr}
 80049f6:	059b      	lsls	r3, r3, #22
 80049f8:	1c01      	adds	r1, r0, #0
 80049fa:	685c      	ldr	r4, [r3, #4]
 80049fc:	2014      	movs	r0, #20
 80049fe:	1c13      	adds	r3, r2, #0
 8004a00:	47a0      	blx	r4
 8004a02:	bd10      	pop	{r4, pc}

08004a04 <free>:
 8004a04:	b508      	push	{r3, lr}
 8004a06:	2380      	movs	r3, #128	; 0x80
 8004a08:	059b      	lsls	r3, r3, #22
 8004a0a:	689a      	ldr	r2, [r3, #8]
 8004a0c:	1c01      	adds	r1, r0, #0
 8004a0e:	6812      	ldr	r2, [r2, #0]
 8004a10:	6818      	ldr	r0, [r3, #0]
 8004a12:	6953      	ldr	r3, [r2, #20]
 8004a14:	3008      	adds	r0, #8
 8004a16:	4798      	blx	r3
 8004a18:	bd08      	pop	{r3, pc}
 8004a1a:	0000      	movs	r0, r0

08004a1c <stm32_uart_on_isr>:
 8004a1c:	b5f0      	push	{r4, r5, r6, r7, lr}
 8004a1e:	1c0f      	adds	r7, r1, #0
 8004a20:	b087      	sub	sp, #28
 8004a22:	2500      	movs	r5, #0
 8004a24:	281b      	cmp	r0, #27
 8004a26:	d004      	beq.n	8004a32 <stm32_uart_on_isr+0x16>
 8004a28:	381c      	subs	r0, #28
 8004a2a:	1c05      	adds	r5, r0, #0
 8004a2c:	1e68      	subs	r0, r5, #1
 8004a2e:	4185      	sbcs	r5, r0
 8004a30:	3501      	adds	r5, #1
 8004a32:	4b3a      	ldr	r3, [pc, #232]	; (8004b1c <stm32_uart_on_isr+0x100>)
 8004a34:	00aa      	lsls	r2, r5, #2
 8004a36:	58d4      	ldr	r4, [r2, r3]
 8004a38:	2280      	movs	r2, #128	; 0x80
 8004a3a:	69e6      	ldr	r6, [r4, #28]
 8004a3c:	6823      	ldr	r3, [r4, #0]
 8004a3e:	4213      	tst	r3, r2
 8004a40:	d02a      	beq.n	8004a98 <stm32_uart_on_isr+0x7c>
 8004a42:	4216      	tst	r6, r2
 8004a44:	d028      	beq.n	8004a98 <stm32_uart_on_isr+0x7c>
 8004a46:	1dab      	adds	r3, r5, #6
 8004a48:	009b      	lsls	r3, r3, #2
 8004a4a:	18fb      	adds	r3, r7, r3
 8004a4c:	685b      	ldr	r3, [r3, #4]
 8004a4e:	8a18      	ldrh	r0, [r3, #16]
 8004a50:	2800      	cmp	r0, #0
 8004a52:	d021      	beq.n	8004a98 <stm32_uart_on_isr+0x7c>
 8004a54:	89d9      	ldrh	r1, [r3, #14]
 8004a56:	1c4a      	adds	r2, r1, #1
 8004a58:	b292      	uxth	r2, r2
 8004a5a:	81da      	strh	r2, [r3, #14]
 8004a5c:	1859      	adds	r1, r3, r1
 8004a5e:	7c89      	ldrb	r1, [r1, #18]
 8004a60:	62a1      	str	r1, [r4, #40]	; 0x28
 8004a62:	4282      	cmp	r2, r0
 8004a64:	d322      	bcc.n	8004aac <stm32_uart_on_isr+0x90>
 8004a66:	2200      	movs	r2, #0
 8004a68:	821a      	strh	r2, [r3, #16]
 8004a6a:	81da      	strh	r2, [r3, #14]
 8004a6c:	f7ff ffb5 	bl	80049da <process_iget_current>
 8004a70:	4b2b      	ldr	r3, [pc, #172]	; (8004b20 <stm32_uart_on_isr+0x104>)
 8004a72:	9001      	str	r0, [sp, #4]
 8004a74:	9302      	str	r3, [sp, #8]
 8004a76:	23a0      	movs	r3, #160	; 0xa0
 8004a78:	02db      	lsls	r3, r3, #11
 8004a7a:	432b      	orrs	r3, r5
 8004a7c:	9303      	str	r3, [sp, #12]
 8004a7e:	2300      	movs	r3, #0
 8004a80:	a801      	add	r0, sp, #4
 8004a82:	9305      	str	r3, [sp, #20]
 8004a84:	f7ff ffb4 	bl	80049f0 <ipc_ipost>
 8004a88:	2280      	movs	r2, #128	; 0x80
 8004a8a:	6823      	ldr	r3, [r4, #0]
 8004a8c:	4393      	bics	r3, r2
 8004a8e:	6023      	str	r3, [r4, #0]
 8004a90:	6823      	ldr	r3, [r4, #0]
 8004a92:	3a40      	subs	r2, #64	; 0x40
 8004a94:	4313      	orrs	r3, r2
 8004a96:	e008      	b.n	8004aaa <stm32_uart_on_isr+0x8e>
 8004a98:	2340      	movs	r3, #64	; 0x40
 8004a9a:	6822      	ldr	r2, [r4, #0]
 8004a9c:	421a      	tst	r2, r3
 8004a9e:	d005      	beq.n	8004aac <stm32_uart_on_isr+0x90>
 8004aa0:	421e      	tst	r6, r3
 8004aa2:	d003      	beq.n	8004aac <stm32_uart_on_isr+0x90>
 8004aa4:	2248      	movs	r2, #72	; 0x48
 8004aa6:	6823      	ldr	r3, [r4, #0]
 8004aa8:	4393      	bics	r3, r2
 8004aaa:	6023      	str	r3, [r4, #0]
 8004aac:	0733      	lsls	r3, r6, #28
 8004aae:	d022      	beq.n	8004af6 <stm32_uart_on_isr+0xda>
 8004ab0:	0733      	lsls	r3, r6, #28
 8004ab2:	d505      	bpl.n	8004ac0 <stm32_uart_on_isr+0xa4>
 8004ab4:	1dab      	adds	r3, r5, #6
 8004ab6:	009b      	lsls	r3, r3, #2
 8004ab8:	18ff      	adds	r7, r7, r3
 8004aba:	687b      	ldr	r3, [r7, #4]
 8004abc:	220f      	movs	r2, #15
 8004abe:	e018      	b.n	8004af2 <stm32_uart_on_isr+0xd6>
 8004ac0:	6a63      	ldr	r3, [r4, #36]	; 0x24
 8004ac2:	9300      	str	r3, [sp, #0]
 8004ac4:	07b3      	lsls	r3, r6, #30
 8004ac6:	d505      	bpl.n	8004ad4 <stm32_uart_on_isr+0xb8>
 8004ac8:	1dab      	adds	r3, r5, #6
 8004aca:	009b      	lsls	r3, r3, #2
 8004acc:	18ff      	adds	r7, r7, r3
 8004ace:	687b      	ldr	r3, [r7, #4]
 8004ad0:	2223      	movs	r2, #35	; 0x23
 8004ad2:	e00e      	b.n	8004af2 <stm32_uart_on_isr+0xd6>
 8004ad4:	07f3      	lsls	r3, r6, #31
 8004ad6:	d505      	bpl.n	8004ae4 <stm32_uart_on_isr+0xc8>
 8004ad8:	1dab      	adds	r3, r5, #6
 8004ada:	009b      	lsls	r3, r3, #2
 8004adc:	18ff      	adds	r7, r7, r3
 8004ade:	687b      	ldr	r3, [r7, #4]
 8004ae0:	2224      	movs	r2, #36	; 0x24
 8004ae2:	e006      	b.n	8004af2 <stm32_uart_on_isr+0xd6>
 8004ae4:	0773      	lsls	r3, r6, #29
 8004ae6:	d506      	bpl.n	8004af6 <stm32_uart_on_isr+0xda>
 8004ae8:	2222      	movs	r2, #34	; 0x22
 8004aea:	1dab      	adds	r3, r5, #6
 8004aec:	009b      	lsls	r3, r3, #2
 8004aee:	18ff      	adds	r7, r7, r3
 8004af0:	687b      	ldr	r3, [r7, #4]
 8004af2:	4252      	negs	r2, r2
 8004af4:	801a      	strh	r2, [r3, #0]
 8004af6:	06b3      	lsls	r3, r6, #26
 8004af8:	d50d      	bpl.n	8004b16 <stm32_uart_on_isr+0xfa>
 8004afa:	6a63      	ldr	r3, [r4, #36]	; 0x24
 8004afc:	9305      	str	r3, [sp, #20]
 8004afe:	f7ff ff6c 	bl	80049da <process_iget_current>
 8004b02:	9001      	str	r0, [sp, #4]
 8004b04:	20a0      	movs	r0, #160	; 0xa0
 8004b06:	4b07      	ldr	r3, [pc, #28]	; (8004b24 <stm32_uart_on_isr+0x108>)
 8004b08:	02c0      	lsls	r0, r0, #11
 8004b0a:	4305      	orrs	r5, r0
 8004b0c:	a801      	add	r0, sp, #4
 8004b0e:	9302      	str	r3, [sp, #8]
 8004b10:	9503      	str	r5, [sp, #12]
 8004b12:	f7ff ff6d 	bl	80049f0 <ipc_ipost>
 8004b16:	b007      	add	sp, #28
 8004b18:	bdf0      	pop	{r4, r5, r6, r7, pc}
 8004b1a:	46c0      	nop			; (mov r8, r8)
 8004b1c:	08008738 	.word	0x08008738
 8004b20:	00060005 	.word	0x00060005
 8004b24:	00060006 	.word	0x00060006

08004b28 <stream_listen>:
 8004b28:	b538      	push	{r3, r4, r5, lr}
 8004b2a:	2480      	movs	r4, #128	; 0x80
 8004b2c:	1c05      	adds	r5, r0, #0
 8004b2e:	2300      	movs	r3, #0
 8004b30:	05a4      	lsls	r4, r4, #22
 8004b32:	1c0a      	adds	r2, r1, #0
 8004b34:	6821      	ldr	r1, [r4, #0]
 8004b36:	201c      	movs	r0, #28
 8004b38:	600b      	str	r3, [r1, #0]
 8004b3a:	1c29      	adds	r1, r5, #0
 8004b3c:	f7fb fb4c 	bl	80001d8 <svc_call>
 8004b40:	6823      	ldr	r3, [r4, #0]
 8004b42:	6818      	ldr	r0, [r3, #0]
 8004b44:	4243      	negs	r3, r0
 8004b46:	4158      	adcs	r0, r3
 8004b48:	b2c0      	uxtb	r0, r0
 8004b4a:	bd38      	pop	{r3, r4, r5, pc}

08004b4c <stream_close>:
 8004b4c:	2200      	movs	r2, #0
 8004b4e:	b508      	push	{r3, lr}
 8004b50:	1c01      	adds	r1, r0, #0
 8004b52:	1c13      	adds	r3, r2, #0
 8004b54:	2019      	movs	r0, #25
 8004b56:	f7fb fb3f 	bl	80001d8 <svc_call>
 8004b5a:	bd08      	pop	{r3, pc}

08004b5c <stream_destroy>:
 8004b5c:	2200      	movs	r2, #0
 8004b5e:	b508      	push	{r3, lr}
 8004b60:	1c01      	adds	r1, r0, #0
 8004b62:	1c13      	adds	r3, r2, #0
 8004b64:	2021      	movs	r0, #33	; 0x21
 8004b66:	f7fb fb37 	bl	80001d8 <svc_call>
 8004b6a:	bd08      	pop	{r3, pc}

08004b6c <uart_write_kernel>:
 8004b6c:	4b11      	ldr	r3, [pc, #68]	; (8004bb4 <uart_write_kernel+0x48>)
 8004b6e:	b2d2      	uxtb	r2, r2
 8004b70:	0092      	lsls	r2, r2, #2
 8004b72:	b530      	push	{r4, r5, lr}
 8004b74:	58d4      	ldr	r4, [r2, r3]
 8004b76:	231f      	movs	r3, #31
 8004b78:	401c      	ands	r4, r3
 8004b7a:	3b1e      	subs	r3, #30
 8004b7c:	40a3      	lsls	r3, r4
 8004b7e:	1c1c      	adds	r4, r3, #0
 8004b80:	2508      	movs	r5, #8
 8004b82:	4b0d      	ldr	r3, [pc, #52]	; (8004bb8 <uart_write_kernel+0x4c>)
 8004b84:	1841      	adds	r1, r0, r1
 8004b86:	67dc      	str	r4, [r3, #124]	; 0x7c
 8004b88:	4b0c      	ldr	r3, [pc, #48]	; (8004bbc <uart_write_kernel+0x50>)
 8004b8a:	58d3      	ldr	r3, [r2, r3]
 8004b8c:	681a      	ldr	r2, [r3, #0]
 8004b8e:	432a      	orrs	r2, r5
 8004b90:	601a      	str	r2, [r3, #0]
 8004b92:	4288      	cmp	r0, r1
 8004b94:	d006      	beq.n	8004ba4 <uart_write_kernel+0x38>
 8004b96:	69da      	ldr	r2, [r3, #28]
 8004b98:	0612      	lsls	r2, r2, #24
 8004b9a:	d5fc      	bpl.n	8004b96 <uart_write_kernel+0x2a>
 8004b9c:	7802      	ldrb	r2, [r0, #0]
 8004b9e:	3001      	adds	r0, #1
 8004ba0:	629a      	str	r2, [r3, #40]	; 0x28
 8004ba2:	e7f6      	b.n	8004b92 <uart_write_kernel+0x26>
 8004ba4:	2140      	movs	r1, #64	; 0x40
 8004ba6:	681a      	ldr	r2, [r3, #0]
 8004ba8:	430a      	orrs	r2, r1
 8004baa:	601a      	str	r2, [r3, #0]
 8004bac:	4b04      	ldr	r3, [pc, #16]	; (8004bc0 <uart_write_kernel+0x54>)
 8004bae:	601c      	str	r4, [r3, #0]
 8004bb0:	bd30      	pop	{r4, r5, pc}
 8004bb2:	46c0      	nop			; (mov r8, r8)
 8004bb4:	08008728 	.word	0x08008728
 8004bb8:	e000e104 	.word	0xe000e104
 8004bbc:	08008738 	.word	0x08008738
 8004bc0:	e000e100 	.word	0xe000e100

08004bc4 <stm32_uart_open>:
 8004bc4:	b5f0      	push	{r4, r5, r6, r7, lr}
 8004bc6:	2780      	movs	r7, #128	; 0x80
 8004bc8:	008c      	lsls	r4, r1, #2
 8004bca:	1904      	adds	r4, r0, r4
 8004bcc:	69e5      	ldr	r5, [r4, #28]
 8004bce:	b087      	sub	sp, #28
 8004bd0:	05bf      	lsls	r7, r7, #22
 8004bd2:	2d00      	cmp	r5, #0
 8004bd4:	d002      	beq.n	8004bdc <stm32_uart_open+0x18>
 8004bd6:	683b      	ldr	r3, [r7, #0]
 8004bd8:	2206      	movs	r2, #6
 8004bda:	e00e      	b.n	8004bfa <stm32_uart_open+0x36>
 8004bdc:	68bb      	ldr	r3, [r7, #8]
 8004bde:	9003      	str	r0, [sp, #12]
 8004be0:	681b      	ldr	r3, [r3, #0]
 8004be2:	6838      	ldr	r0, [r7, #0]
 8004be4:	9101      	str	r1, [sp, #4]
 8004be6:	3008      	adds	r0, #8
 8004be8:	68db      	ldr	r3, [r3, #12]
 8004bea:	2138      	movs	r1, #56	; 0x38
 8004bec:	9202      	str	r2, [sp, #8]
 8004bee:	4798      	blx	r3
 8004bf0:	1e06      	subs	r6, r0, #0
 8004bf2:	61e0      	str	r0, [r4, #28]
 8004bf4:	d104      	bne.n	8004c00 <stm32_uart_open+0x3c>
 8004bf6:	221d      	movs	r2, #29
 8004bf8:	683b      	ldr	r3, [r7, #0]
 8004bfa:	4252      	negs	r2, r2
 8004bfc:	601a      	str	r2, [r3, #0]
 8004bfe:	e0c2      	b.n	8004d86 <stm32_uart_open+0x1c2>
 8004c00:	2301      	movs	r3, #1
 8004c02:	425b      	negs	r3, r3
 8004c04:	6043      	str	r3, [r0, #4]
 8004c06:	6083      	str	r3, [r0, #8]
 8004c08:	6243      	str	r3, [r0, #36]	; 0x24
 8004c0a:	6283      	str	r3, [r0, #40]	; 0x28
 8004c0c:	9b02      	ldr	r3, [sp, #8]
 8004c0e:	8005      	strh	r5, [r0, #0]
 8004c10:	8185      	strh	r5, [r0, #12]
 8004c12:	8205      	strh	r5, [r0, #16]
 8004c14:	81c5      	strh	r5, [r0, #14]
 8004c16:	079b      	lsls	r3, r3, #30
 8004c18:	d520      	bpl.n	8004c5c <stm32_uart_open+0x98>
 8004c1a:	2017      	movs	r0, #23
 8004c1c:	a905      	add	r1, sp, #20
 8004c1e:	1c2b      	adds	r3, r5, #0
 8004c20:	2220      	movs	r2, #32
 8004c22:	9505      	str	r5, [sp, #20]
 8004c24:	f7fb fad8 	bl	80001d8 <svc_call>
 8004c28:	9b05      	ldr	r3, [sp, #20]
 8004c2a:	6073      	str	r3, [r6, #4]
 8004c2c:	69e6      	ldr	r6, [r4, #28]
 8004c2e:	6871      	ldr	r1, [r6, #4]
 8004c30:	1c30      	adds	r0, r6, #0
 8004c32:	1c4b      	adds	r3, r1, #1
 8004c34:	d040      	beq.n	8004cb8 <stm32_uart_open+0xf4>
 8004c36:	aa05      	add	r2, sp, #20
 8004c38:	1c2b      	adds	r3, r5, #0
 8004c3a:	2018      	movs	r0, #24
 8004c3c:	9505      	str	r5, [sp, #20]
 8004c3e:	f7fb facb 	bl	80001d8 <svc_call>
 8004c42:	9b05      	ldr	r3, [sp, #20]
 8004c44:	60b3      	str	r3, [r6, #8]
 8004c46:	69e3      	ldr	r3, [r4, #28]
 8004c48:	689a      	ldr	r2, [r3, #8]
 8004c4a:	3201      	adds	r2, #1
 8004c4c:	d030      	beq.n	8004cb0 <stm32_uart_open+0xec>
 8004c4e:	21a0      	movs	r1, #160	; 0xa0
 8004c50:	9a01      	ldr	r2, [sp, #4]
 8004c52:	02c9      	lsls	r1, r1, #11
 8004c54:	4311      	orrs	r1, r2
 8004c56:	6858      	ldr	r0, [r3, #4]
 8004c58:	f7ff ff66 	bl	8004b28 <stream_listen>
 8004c5c:	2601      	movs	r6, #1
 8004c5e:	9b02      	ldr	r3, [sp, #8]
 8004c60:	4033      	ands	r3, r6
 8004c62:	1e1e      	subs	r6, r3, #0
 8004c64:	d034      	beq.n	8004cd0 <stm32_uart_open+0x10c>
 8004c66:	2500      	movs	r5, #0
 8004c68:	a905      	add	r1, sp, #20
 8004c6a:	1c2b      	adds	r3, r5, #0
 8004c6c:	2017      	movs	r0, #23
 8004c6e:	2220      	movs	r2, #32
 8004c70:	69e7      	ldr	r7, [r4, #28]
 8004c72:	9505      	str	r5, [sp, #20]
 8004c74:	f7fb fab0 	bl	80001d8 <svc_call>
 8004c78:	9b05      	ldr	r3, [sp, #20]
 8004c7a:	627b      	str	r3, [r7, #36]	; 0x24
 8004c7c:	69e7      	ldr	r7, [r4, #28]
 8004c7e:	6a79      	ldr	r1, [r7, #36]	; 0x24
 8004c80:	1c4b      	adds	r3, r1, #1
 8004c82:	d101      	bne.n	8004c88 <stm32_uart_open+0xc4>
 8004c84:	68b8      	ldr	r0, [r7, #8]
 8004c86:	e010      	b.n	8004caa <stm32_uart_open+0xe6>
 8004c88:	1c2b      	adds	r3, r5, #0
 8004c8a:	2018      	movs	r0, #24
 8004c8c:	aa05      	add	r2, sp, #20
 8004c8e:	9505      	str	r5, [sp, #20]
 8004c90:	f7fb faa2 	bl	80001d8 <svc_call>
 8004c94:	9b05      	ldr	r3, [sp, #20]
 8004c96:	62bb      	str	r3, [r7, #40]	; 0x28
 8004c98:	69e7      	ldr	r7, [r4, #28]
 8004c9a:	6abb      	ldr	r3, [r7, #40]	; 0x28
 8004c9c:	3301      	adds	r3, #1
 8004c9e:	d10f      	bne.n	8004cc0 <stm32_uart_open+0xfc>
 8004ca0:	6a78      	ldr	r0, [r7, #36]	; 0x24
 8004ca2:	f7ff ff5b 	bl	8004b5c <stream_destroy>
 8004ca6:	69e3      	ldr	r3, [r4, #28]
 8004ca8:	6898      	ldr	r0, [r3, #8]
 8004caa:	f7ff ff4f 	bl	8004b4c <stream_close>
 8004cae:	69e3      	ldr	r3, [r4, #28]
 8004cb0:	6858      	ldr	r0, [r3, #4]
 8004cb2:	f7ff ff53 	bl	8004b5c <stream_destroy>
 8004cb6:	69e0      	ldr	r0, [r4, #28]
 8004cb8:	f7ff fea4 	bl	8004a04 <free>
 8004cbc:	61e5      	str	r5, [r4, #28]
 8004cbe:	e062      	b.n	8004d86 <stm32_uart_open+0x1c2>
 8004cc0:	1c2b      	adds	r3, r5, #0
 8004cc2:	201b      	movs	r0, #27
 8004cc4:	6a79      	ldr	r1, [r7, #36]	; 0x24
 8004cc6:	aa05      	add	r2, sp, #20
 8004cc8:	f7fb fa86 	bl	80001d8 <svc_call>
 8004ccc:	9b05      	ldr	r3, [sp, #20]
 8004cce:	85bb      	strh	r3, [r7, #44]	; 0x2c
 8004cd0:	9b01      	ldr	r3, [sp, #4]
 8004cd2:	9801      	ldr	r0, [sp, #4]
 8004cd4:	009b      	lsls	r3, r3, #2
 8004cd6:	4a2d      	ldr	r2, [pc, #180]	; (8004d8c <stm32_uart_open+0x1c8>)
 8004cd8:	492d      	ldr	r1, [pc, #180]	; (8004d90 <stm32_uart_open+0x1cc>)
 8004cda:	2800      	cmp	r0, #0
 8004cdc:	d001      	beq.n	8004ce2 <stm32_uart_open+0x11e>
 8004cde:	2805      	cmp	r0, #5
 8004ce0:	d106      	bne.n	8004cf0 <stm32_uart_open+0x12c>
 8004ce2:	58cc      	ldr	r4, [r1, r3]
 8004ce4:	2101      	movs	r1, #1
 8004ce6:	40a1      	lsls	r1, r4
 8004ce8:	6b50      	ldr	r0, [r2, #52]	; 0x34
 8004cea:	4301      	orrs	r1, r0
 8004cec:	6351      	str	r1, [r2, #52]	; 0x34
 8004cee:	e005      	b.n	8004cfc <stm32_uart_open+0x138>
 8004cf0:	58cc      	ldr	r4, [r1, r3]
 8004cf2:	2101      	movs	r1, #1
 8004cf4:	40a1      	lsls	r1, r4
 8004cf6:	6b90      	ldr	r0, [r2, #56]	; 0x38
 8004cf8:	4301      	orrs	r1, r0
 8004cfa:	6391      	str	r1, [r2, #56]	; 0x38
 8004cfc:	2001      	movs	r0, #1
 8004cfe:	4a25      	ldr	r2, [pc, #148]	; (8004d94 <stm32_uart_open+0x1d0>)
 8004d00:	58d2      	ldr	r2, [r2, r3]
 8004d02:	6811      	ldr	r1, [r2, #0]
 8004d04:	4301      	orrs	r1, r0
 8004d06:	6011      	str	r1, [r2, #0]
 8004d08:	2e00      	cmp	r6, #0
 8004d0a:	d003      	beq.n	8004d14 <stm32_uart_open+0x150>
 8004d0c:	6811      	ldr	r1, [r2, #0]
 8004d0e:	3023      	adds	r0, #35	; 0x23
 8004d10:	4301      	orrs	r1, r0
 8004d12:	6011      	str	r1, [r2, #0]
 8004d14:	4a20      	ldr	r2, [pc, #128]	; (8004d98 <stm32_uart_open+0x1d4>)
 8004d16:	200a      	movs	r0, #10
 8004d18:	58d4      	ldr	r4, [r2, r3]
 8004d1a:	4a20      	ldr	r2, [pc, #128]	; (8004d9c <stm32_uart_open+0x1d8>)
 8004d1c:	1c21      	adds	r1, r4, #0
 8004d1e:	9b03      	ldr	r3, [sp, #12]
 8004d20:	f7fb fa5a 	bl	80001d8 <svc_call>
 8004d24:	231f      	movs	r3, #31
 8004d26:	2201      	movs	r2, #1
 8004d28:	b2e1      	uxtb	r1, r4
 8004d2a:	400b      	ands	r3, r1
 8004d2c:	409a      	lsls	r2, r3
 8004d2e:	1c13      	adds	r3, r2, #0
 8004d30:	4a1b      	ldr	r2, [pc, #108]	; (8004da0 <stm32_uart_open+0x1dc>)
 8004d32:	6013      	str	r3, [r2, #0]
 8004d34:	b24b      	sxtb	r3, r1
 8004d36:	2b00      	cmp	r3, #0
 8004d38:	da13      	bge.n	8004d62 <stm32_uart_open+0x19e>
 8004d3a:	230f      	movs	r3, #15
 8004d3c:	400b      	ands	r3, r1
 8004d3e:	3b08      	subs	r3, #8
 8004d40:	4a18      	ldr	r2, [pc, #96]	; (8004da4 <stm32_uart_open+0x1e0>)
 8004d42:	089b      	lsrs	r3, r3, #2
 8004d44:	009b      	lsls	r3, r3, #2
 8004d46:	189b      	adds	r3, r3, r2
 8004d48:	2203      	movs	r2, #3
 8004d4a:	4011      	ands	r1, r2
 8004d4c:	4091      	lsls	r1, r2
 8004d4e:	32fc      	adds	r2, #252	; 0xfc
 8004d50:	408a      	lsls	r2, r1
 8004d52:	69d8      	ldr	r0, [r3, #28]
 8004d54:	4390      	bics	r0, r2
 8004d56:	2240      	movs	r2, #64	; 0x40
 8004d58:	408a      	lsls	r2, r1
 8004d5a:	1c11      	adds	r1, r2, #0
 8004d5c:	4301      	orrs	r1, r0
 8004d5e:	61d9      	str	r1, [r3, #28]
 8004d60:	e011      	b.n	8004d86 <stm32_uart_open+0x1c2>
 8004d62:	4a0f      	ldr	r2, [pc, #60]	; (8004da0 <stm32_uart_open+0x1dc>)
 8004d64:	089b      	lsrs	r3, r3, #2
 8004d66:	009b      	lsls	r3, r3, #2
 8004d68:	189b      	adds	r3, r3, r2
 8004d6a:	2203      	movs	r2, #3
 8004d6c:	4011      	ands	r1, r2
 8004d6e:	4091      	lsls	r1, r2
 8004d70:	20c0      	movs	r0, #192	; 0xc0
 8004d72:	32fc      	adds	r2, #252	; 0xfc
 8004d74:	408a      	lsls	r2, r1
 8004d76:	0080      	lsls	r0, r0, #2
 8004d78:	581c      	ldr	r4, [r3, r0]
 8004d7a:	4394      	bics	r4, r2
 8004d7c:	2240      	movs	r2, #64	; 0x40
 8004d7e:	408a      	lsls	r2, r1
 8004d80:	1c11      	adds	r1, r2, #0
 8004d82:	4321      	orrs	r1, r4
 8004d84:	5019      	str	r1, [r3, r0]
 8004d86:	b007      	add	sp, #28
 8004d88:	bdf0      	pop	{r4, r5, r6, r7, pc}
 8004d8a:	46c0      	nop			; (mov r8, r8)
 8004d8c:	40021000 	.word	0x40021000
 8004d90:	08008730 	.word	0x08008730
 8004d94:	08008738 	.word	0x08008738
 8004d98:	08008728 	.word	0x08008728
 8004d9c:	08004a1d 	.word	0x08004a1d
 8004da0:	e000e100 	.word	0xe000e100
 8004da4:	e000ed00 	.word	0xe000ed00

08004da8 <stm32_uart_write>:
 8004da8:	b5f7      	push	{r0, r1, r2, r4, r5, r6, r7, lr}
 8004daa:	1c0c      	adds	r4, r1, #0
 8004dac:	2a00      	cmp	r2, #0
 8004dae:	d004      	beq.n	8004dba <stm32_uart_write+0x12>
 8004db0:	1d8b      	adds	r3, r1, #6
 8004db2:	009b      	lsls	r3, r3, #2
 8004db4:	18c3      	adds	r3, r0, r3
 8004db6:	685b      	ldr	r3, [r3, #4]
 8004db8:	819a      	strh	r2, [r3, #12]
 8004dba:	00a6      	lsls	r6, r4, #2
 8004dbc:	1985      	adds	r5, r0, r6
 8004dbe:	69ef      	ldr	r7, [r5, #28]
 8004dc0:	89bb      	ldrh	r3, [r7, #12]
 8004dc2:	2b00      	cmp	r3, #0
 8004dc4:	d106      	bne.n	8004dd4 <stm32_uart_write+0x2c>
 8004dc6:	201a      	movs	r0, #26
 8004dc8:	6879      	ldr	r1, [r7, #4]
 8004dca:	aa01      	add	r2, sp, #4
 8004dcc:	f7fb fa04 	bl	80001d8 <svc_call>
 8004dd0:	9b01      	ldr	r3, [sp, #4]
 8004dd2:	81bb      	strh	r3, [r7, #12]
 8004dd4:	69ea      	ldr	r2, [r5, #28]
 8004dd6:	8993      	ldrh	r3, [r2, #12]
 8004dd8:	2b00      	cmp	r3, #0
 8004dda:	d020      	beq.n	8004e1e <stm32_uart_write+0x76>
 8004ddc:	2410      	movs	r4, #16
 8004dde:	42a3      	cmp	r3, r4
 8004de0:	d800      	bhi.n	8004de4 <stm32_uart_write+0x3c>
 8004de2:	1c1c      	adds	r4, r3, #0
 8004de4:	2780      	movs	r7, #128	; 0x80
 8004de6:	2000      	movs	r0, #0
 8004de8:	05bf      	lsls	r7, r7, #22
 8004dea:	683b      	ldr	r3, [r7, #0]
 8004dec:	6891      	ldr	r1, [r2, #8]
 8004dee:	6018      	str	r0, [r3, #0]
 8004df0:	3212      	adds	r2, #18
 8004df2:	1c23      	adds	r3, r4, #0
 8004df4:	301f      	adds	r0, #31
 8004df6:	f7fb f9ef 	bl	80001d8 <svc_call>
 8004dfa:	683b      	ldr	r3, [r7, #0]
 8004dfc:	681a      	ldr	r2, [r3, #0]
 8004dfe:	2a00      	cmp	r2, #0
 8004e00:	d113      	bne.n	8004e2a <stm32_uart_write+0x82>
 8004e02:	2188      	movs	r1, #136	; 0x88
 8004e04:	69eb      	ldr	r3, [r5, #28]
 8004e06:	b2a4      	uxth	r4, r4
 8004e08:	81da      	strh	r2, [r3, #14]
 8004e0a:	899a      	ldrh	r2, [r3, #12]
 8004e0c:	821c      	strh	r4, [r3, #16]
 8004e0e:	1b14      	subs	r4, r2, r4
 8004e10:	819c      	strh	r4, [r3, #12]
 8004e12:	4b06      	ldr	r3, [pc, #24]	; (8004e2c <stm32_uart_write+0x84>)
 8004e14:	599a      	ldr	r2, [r3, r6]
 8004e16:	6813      	ldr	r3, [r2, #0]
 8004e18:	430b      	orrs	r3, r1
 8004e1a:	6013      	str	r3, [r2, #0]
 8004e1c:	e005      	b.n	8004e2a <stm32_uart_write+0x82>
 8004e1e:	21a0      	movs	r1, #160	; 0xa0
 8004e20:	02c9      	lsls	r1, r1, #11
 8004e22:	4321      	orrs	r1, r4
 8004e24:	6850      	ldr	r0, [r2, #4]
 8004e26:	f7ff fe7f 	bl	8004b28 <stream_listen>
 8004e2a:	bdf7      	pop	{r0, r1, r2, r4, r5, r6, r7, pc}
 8004e2c:	08008738 	.word	0x08008738

08004e30 <stm32_uart_request>:
 8004e30:	b5f0      	push	{r4, r5, r6, r7, lr}
 8004e32:	688a      	ldr	r2, [r1, #8]
 8004e34:	b089      	sub	sp, #36	; 0x24
 8004e36:	b2d5      	uxtb	r5, r2
 8004e38:	2d01      	cmp	r5, #1
 8004e3a:	d904      	bls.n	8004e46 <stm32_uart_request+0x16>
 8004e3c:	2380      	movs	r3, #128	; 0x80
 8004e3e:	059b      	lsls	r3, r3, #22
 8004e40:	681b      	ldr	r3, [r3, #0]
 8004e42:	2207      	movs	r2, #7
 8004e44:	e1ba      	b.n	80051bc <stm32_uart_request+0x38c>
 8004e46:	684e      	ldr	r6, [r1, #4]
 8004e48:	4cc8      	ldr	r4, [pc, #800]	; (800516c <stm32_uart_request+0x33c>)
 8004e4a:	42a6      	cmp	r6, r4
 8004e4c:	d100      	bne.n	8004e50 <stm32_uart_request+0x20>
 8004e4e:	e115      	b.n	800507c <stm32_uart_request+0x24c>
 8004e50:	1c0b      	adds	r3, r1, #0
 8004e52:	42a6      	cmp	r6, r4
 8004e54:	d813      	bhi.n	8004e7e <stm32_uart_request+0x4e>
 8004e56:	49c6      	ldr	r1, [pc, #792]	; (8005170 <stm32_uart_request+0x340>)
 8004e58:	428e      	cmp	r6, r1
 8004e5a:	d028      	beq.n	8004eae <stm32_uart_request+0x7e>
 8004e5c:	d807      	bhi.n	8004e6e <stm32_uart_request+0x3e>
 8004e5e:	2e01      	cmp	r6, #1
 8004e60:	d100      	bne.n	8004e64 <stm32_uart_request+0x34>
 8004e62:	e157      	b.n	8005114 <stm32_uart_request+0x2e4>
 8004e64:	4bc3      	ldr	r3, [pc, #780]	; (8005174 <stm32_uart_request+0x344>)
 8004e66:	429e      	cmp	r6, r3
 8004e68:	d100      	bne.n	8004e6c <stm32_uart_request+0x3c>
 8004e6a:	e0df      	b.n	800502c <stm32_uart_request+0x1fc>
 8004e6c:	e1a2      	b.n	80051b4 <stm32_uart_request+0x384>
 8004e6e:	49c2      	ldr	r1, [pc, #776]	; (8005178 <stm32_uart_request+0x348>)
 8004e70:	428e      	cmp	r6, r1
 8004e72:	d021      	beq.n	8004eb8 <stm32_uart_request+0x88>
 8004e74:	49c1      	ldr	r1, [pc, #772]	; (800517c <stm32_uart_request+0x34c>)
 8004e76:	428e      	cmp	r6, r1
 8004e78:	d100      	bne.n	8004e7c <stm32_uart_request+0x4c>
 8004e7a:	e112      	b.n	80050a2 <stm32_uart_request+0x272>
 8004e7c:	e19a      	b.n	80051b4 <stm32_uart_request+0x384>
 8004e7e:	49c0      	ldr	r1, [pc, #768]	; (8005180 <stm32_uart_request+0x350>)
 8004e80:	428e      	cmp	r6, r1
 8004e82:	d100      	bne.n	8004e86 <stm32_uart_request+0x56>
 8004e84:	e130      	b.n	80050e8 <stm32_uart_request+0x2b8>
 8004e86:	d807      	bhi.n	8004e98 <stm32_uart_request+0x68>
 8004e88:	3903      	subs	r1, #3
 8004e8a:	428e      	cmp	r6, r1
 8004e8c:	d05f      	beq.n	8004f4e <stm32_uart_request+0x11e>
 8004e8e:	49bd      	ldr	r1, [pc, #756]	; (8005184 <stm32_uart_request+0x354>)
 8004e90:	428e      	cmp	r6, r1
 8004e92:	d100      	bne.n	8004e96 <stm32_uart_request+0x66>
 8004e94:	e117      	b.n	80050c6 <stm32_uart_request+0x296>
 8004e96:	e18d      	b.n	80051b4 <stm32_uart_request+0x384>
 8004e98:	49bb      	ldr	r1, [pc, #748]	; (8005188 <stm32_uart_request+0x358>)
 8004e9a:	428e      	cmp	r6, r1
 8004e9c:	d100      	bne.n	8004ea0 <stm32_uart_request+0x70>
 8004e9e:	e139      	b.n	8005114 <stm32_uart_request+0x2e4>
 8004ea0:	d200      	bcs.n	8004ea4 <stm32_uart_request+0x74>
 8004ea2:	e130      	b.n	8005106 <stm32_uart_request+0x2d6>
 8004ea4:	49b9      	ldr	r1, [pc, #740]	; (800518c <stm32_uart_request+0x35c>)
 8004ea6:	428e      	cmp	r6, r1
 8004ea8:	d100      	bne.n	8004eac <stm32_uart_request+0x7c>
 8004eaa:	e139      	b.n	8005120 <stm32_uart_request+0x2f0>
 8004eac:	e182      	b.n	80051b4 <stm32_uart_request+0x384>
 8004eae:	1c29      	adds	r1, r5, #0
 8004eb0:	68da      	ldr	r2, [r3, #12]
 8004eb2:	f7ff fe87 	bl	8004bc4 <stm32_uart_open>
 8004eb6:	e183      	b.n	80051c0 <stm32_uart_request+0x390>
 8004eb8:	b2d4      	uxtb	r4, r2
 8004eba:	00a4      	lsls	r4, r4, #2
 8004ebc:	1906      	adds	r6, r0, r4
 8004ebe:	69f3      	ldr	r3, [r6, #28]
 8004ec0:	2b00      	cmp	r3, #0
 8004ec2:	d100      	bne.n	8004ec6 <stm32_uart_request+0x96>
 8004ec4:	e117      	b.n	80050f6 <stm32_uart_request+0x2c6>
 8004ec6:	4bb2      	ldr	r3, [pc, #712]	; (8005190 <stm32_uart_request+0x360>)
 8004ec8:	2201      	movs	r2, #1
 8004eca:	58e1      	ldr	r1, [r4, r3]
 8004ecc:	231f      	movs	r3, #31
 8004ece:	400b      	ands	r3, r1
 8004ed0:	409a      	lsls	r2, r3
 8004ed2:	1c13      	adds	r3, r2, #0
 8004ed4:	4aaf      	ldr	r2, [pc, #700]	; (8005194 <stm32_uart_request+0x364>)
 8004ed6:	200b      	movs	r0, #11
 8004ed8:	67d3      	str	r3, [r2, #124]	; 0x7c
 8004eda:	2200      	movs	r2, #0
 8004edc:	1c13      	adds	r3, r2, #0
 8004ede:	f7fb f97b 	bl	80001d8 <svc_call>
 8004ee2:	69f2      	ldr	r2, [r6, #28]
 8004ee4:	4fac      	ldr	r7, [pc, #688]	; (8005198 <stm32_uart_request+0x368>)
 8004ee6:	6a53      	ldr	r3, [r2, #36]	; 0x24
 8004ee8:	3301      	adds	r3, #1
 8004eea:	d00b      	beq.n	8004f04 <stm32_uart_request+0xd4>
 8004eec:	2024      	movs	r0, #36	; 0x24
 8004eee:	5939      	ldr	r1, [r7, r4]
 8004ef0:	680b      	ldr	r3, [r1, #0]
 8004ef2:	4383      	bics	r3, r0
 8004ef4:	600b      	str	r3, [r1, #0]
 8004ef6:	6a90      	ldr	r0, [r2, #40]	; 0x28
 8004ef8:	f7ff fe28 	bl	8004b4c <stream_close>
 8004efc:	69f3      	ldr	r3, [r6, #28]
 8004efe:	6a58      	ldr	r0, [r3, #36]	; 0x24
 8004f00:	f7ff fe2c 	bl	8004b5c <stream_destroy>
 8004f04:	69f3      	ldr	r3, [r6, #28]
 8004f06:	685a      	ldr	r2, [r3, #4]
 8004f08:	3201      	adds	r2, #1
 8004f0a:	d006      	beq.n	8004f1a <stm32_uart_request+0xea>
 8004f0c:	6898      	ldr	r0, [r3, #8]
 8004f0e:	f7ff fe1d 	bl	8004b4c <stream_close>
 8004f12:	69f3      	ldr	r3, [r6, #28]
 8004f14:	6858      	ldr	r0, [r3, #4]
 8004f16:	f7ff fe21 	bl	8004b5c <stream_destroy>
 8004f1a:	2201      	movs	r2, #1
 8004f1c:	5939      	ldr	r1, [r7, r4]
 8004f1e:	4f9f      	ldr	r7, [pc, #636]	; (800519c <stm32_uart_request+0x36c>)
 8004f20:	680b      	ldr	r3, [r1, #0]
 8004f22:	4393      	bics	r3, r2
 8004f24:	600b      	str	r3, [r1, #0]
 8004f26:	499e      	ldr	r1, [pc, #632]	; (80051a0 <stm32_uart_request+0x370>)
 8004f28:	2d00      	cmp	r5, #0
 8004f2a:	d105      	bne.n	8004f38 <stm32_uart_request+0x108>
 8004f2c:	5938      	ldr	r0, [r7, r4]
 8004f2e:	6b4b      	ldr	r3, [r1, #52]	; 0x34
 8004f30:	4082      	lsls	r2, r0
 8004f32:	4393      	bics	r3, r2
 8004f34:	634b      	str	r3, [r1, #52]	; 0x34
 8004f36:	e004      	b.n	8004f42 <stm32_uart_request+0x112>
 8004f38:	593b      	ldr	r3, [r7, r4]
 8004f3a:	6b88      	ldr	r0, [r1, #56]	; 0x38
 8004f3c:	409a      	lsls	r2, r3
 8004f3e:	4390      	bics	r0, r2
 8004f40:	6388      	str	r0, [r1, #56]	; 0x38
 8004f42:	69f0      	ldr	r0, [r6, #28]
 8004f44:	f7ff fd5e 	bl	8004a04 <free>
 8004f48:	2300      	movs	r3, #0
 8004f4a:	61f3      	str	r3, [r6, #28]
 8004f4c:	e138      	b.n	80051c0 <stm32_uart_request+0x390>
 8004f4e:	b2d2      	uxtb	r2, r2
 8004f50:	1d91      	adds	r1, r2, #6
 8004f52:	0089      	lsls	r1, r1, #2
 8004f54:	1841      	adds	r1, r0, r1
 8004f56:	6849      	ldr	r1, [r1, #4]
 8004f58:	2900      	cmp	r1, #0
 8004f5a:	d100      	bne.n	8004f5e <stm32_uart_request+0x12e>
 8004f5c:	e0cb      	b.n	80050f6 <stm32_uart_request+0x2c6>
 8004f5e:	6919      	ldr	r1, [r3, #16]
 8004f60:	68dc      	ldr	r4, [r3, #12]
 8004f62:	b2cb      	uxtb	r3, r1
 8004f64:	9301      	str	r3, [sp, #4]
 8004f66:	2301      	movs	r3, #1
 8004f68:	4e8b      	ldr	r6, [pc, #556]	; (8005198 <stm32_uart_request+0x368>)
 8004f6a:	0092      	lsls	r2, r2, #2
 8004f6c:	5996      	ldr	r6, [r2, r6]
 8004f6e:	0a0f      	lsrs	r7, r1, #8
 8004f70:	6832      	ldr	r2, [r6, #0]
 8004f72:	b2ff      	uxtb	r7, r7
 8004f74:	439a      	bics	r2, r3
 8004f76:	6032      	str	r2, [r6, #0]
 8004f78:	0c0a      	lsrs	r2, r1, #16
 8004f7a:	b2d2      	uxtb	r2, r2
 8004f7c:	2a08      	cmp	r2, #8
 8004f7e:	d107      	bne.n	8004f90 <stm32_uart_request+0x160>
 8004f80:	2f4e      	cmp	r7, #78	; 0x4e
 8004f82:	d005      	beq.n	8004f90 <stm32_uart_request+0x160>
 8004f84:	2180      	movs	r1, #128	; 0x80
 8004f86:	6832      	ldr	r2, [r6, #0]
 8004f88:	0149      	lsls	r1, r1, #5
 8004f8a:	430a      	orrs	r2, r1
 8004f8c:	6032      	str	r2, [r6, #0]
 8004f8e:	e005      	b.n	8004f9c <stm32_uart_request+0x16c>
 8004f90:	6831      	ldr	r1, [r6, #0]
 8004f92:	4a84      	ldr	r2, [pc, #528]	; (80051a4 <stm32_uart_request+0x374>)
 8004f94:	400a      	ands	r2, r1
 8004f96:	6032      	str	r2, [r6, #0]
 8004f98:	2f4e      	cmp	r7, #78	; 0x4e
 8004f9a:	d00e      	beq.n	8004fba <stm32_uart_request+0x18a>
 8004f9c:	2180      	movs	r1, #128	; 0x80
 8004f9e:	6832      	ldr	r2, [r6, #0]
 8004fa0:	00c9      	lsls	r1, r1, #3
 8004fa2:	430a      	orrs	r2, r1
 8004fa4:	6032      	str	r2, [r6, #0]
 8004fa6:	2f4f      	cmp	r7, #79	; 0x4f
 8004fa8:	d104      	bne.n	8004fb4 <stm32_uart_request+0x184>
 8004faa:	2180      	movs	r1, #128	; 0x80
 8004fac:	6832      	ldr	r2, [r6, #0]
 8004fae:	0089      	lsls	r1, r1, #2
 8004fb0:	430a      	orrs	r2, r1
 8004fb2:	e005      	b.n	8004fc0 <stm32_uart_request+0x190>
 8004fb4:	6831      	ldr	r1, [r6, #0]
 8004fb6:	4a7c      	ldr	r2, [pc, #496]	; (80051a8 <stm32_uart_request+0x378>)
 8004fb8:	e001      	b.n	8004fbe <stm32_uart_request+0x18e>
 8004fba:	6831      	ldr	r1, [r6, #0]
 8004fbc:	4a7b      	ldr	r2, [pc, #492]	; (80051ac <stm32_uart_request+0x37c>)
 8004fbe:	400a      	ands	r2, r1
 8004fc0:	9b01      	ldr	r3, [sp, #4]
 8004fc2:	6032      	str	r2, [r6, #0]
 8004fc4:	3b01      	subs	r3, #1
 8004fc6:	1e5a      	subs	r2, r3, #1
 8004fc8:	4193      	sbcs	r3, r2
 8004fca:	035b      	lsls	r3, r3, #13
 8004fcc:	6073      	str	r3, [r6, #4]
 8004fce:	2300      	movs	r3, #0
 8004fd0:	60b3      	str	r3, [r6, #8]
 8004fd2:	2380      	movs	r3, #128	; 0x80
 8004fd4:	029b      	lsls	r3, r3, #10
 8004fd6:	9304      	str	r3, [sp, #16]
 8004fd8:	2303      	movs	r3, #3
 8004fda:	2d00      	cmp	r5, #0
 8004fdc:	d000      	beq.n	8004fe0 <stm32_uart_request+0x1b0>
 8004fde:	2302      	movs	r3, #2
 8004fe0:	a903      	add	r1, sp, #12
 8004fe2:	9305      	str	r3, [sp, #20]
 8004fe4:	f7ff f806 	bl	8003ff4 <stm32_power_request>
 8004fe8:	2319      	movs	r3, #25
 8004fea:	9806      	ldr	r0, [sp, #24]
 8004fec:	00a1      	lsls	r1, r4, #2
 8004fee:	4358      	muls	r0, r3
 8004ff0:	f002 fc96 	bl	8007920 <__aeabi_uidiv>
 8004ff4:	2164      	movs	r1, #100	; 0x64
 8004ff6:	1c05      	adds	r5, r0, #0
 8004ff8:	f002 fd18 	bl	8007a2c <__aeabi_uidivmod>
 8004ffc:	00c8      	lsls	r0, r1, #3
 8004ffe:	3019      	adds	r0, #25
 8005000:	2132      	movs	r1, #50	; 0x32
 8005002:	f002 fc8d 	bl	8007920 <__aeabi_uidiv>
 8005006:	2164      	movs	r1, #100	; 0x64
 8005008:	1c04      	adds	r4, r0, #0
 800500a:	1c28      	adds	r0, r5, #0
 800500c:	f002 fc88 	bl	8007920 <__aeabi_uidiv>
 8005010:	2202      	movs	r2, #2
 8005012:	0100      	lsls	r0, r0, #4
 8005014:	4320      	orrs	r0, r4
 8005016:	60f0      	str	r0, [r6, #12]
 8005018:	6833      	ldr	r3, [r6, #0]
 800501a:	32ff      	adds	r2, #255	; 0xff
 800501c:	4313      	orrs	r3, r2
 800501e:	6033      	str	r3, [r6, #0]
 8005020:	68b3      	ldr	r3, [r6, #8]
 8005022:	3a01      	subs	r2, #1
 8005024:	3aff      	subs	r2, #255	; 0xff
 8005026:	4313      	orrs	r3, r2
 8005028:	60b3      	str	r3, [r6, #8]
 800502a:	e0c9      	b.n	80051c0 <stm32_uart_request+0x390>
 800502c:	b2d5      	uxtb	r5, r2
 800502e:	00ac      	lsls	r4, r5, #2
 8005030:	1904      	adds	r4, r0, r4
 8005032:	69e3      	ldr	r3, [r4, #28]
 8005034:	2b00      	cmp	r3, #0
 8005036:	d05e      	beq.n	80050f6 <stm32_uart_request+0x2c6>
 8005038:	6859      	ldr	r1, [r3, #4]
 800503a:	1c4b      	adds	r3, r1, #1
 800503c:	d013      	beq.n	8005066 <stm32_uart_request+0x236>
 800503e:	2200      	movs	r2, #0
 8005040:	2020      	movs	r0, #32
 8005042:	1c13      	adds	r3, r2, #0
 8005044:	f7fb f8c8 	bl	80001d8 <svc_call>
 8005048:	21a0      	movs	r1, #160	; 0xa0
 800504a:	69e3      	ldr	r3, [r4, #28]
 800504c:	02c9      	lsls	r1, r1, #11
 800504e:	4329      	orrs	r1, r5
 8005050:	6858      	ldr	r0, [r3, #4]
 8005052:	f7ff fd69 	bl	8004b28 <stream_listen>
 8005056:	2300      	movs	r3, #0
 8005058:	69e2      	ldr	r2, [r4, #28]
 800505a:	8193      	strh	r3, [r2, #12]
 800505c:	b672      	cpsid	i
 800505e:	69e2      	ldr	r2, [r4, #28]
 8005060:	8213      	strh	r3, [r2, #16]
 8005062:	81d3      	strh	r3, [r2, #14]
 8005064:	b662      	cpsie	i
 8005066:	69e3      	ldr	r3, [r4, #28]
 8005068:	6a59      	ldr	r1, [r3, #36]	; 0x24
 800506a:	1c4b      	adds	r3, r1, #1
 800506c:	d004      	beq.n	8005078 <stm32_uart_request+0x248>
 800506e:	2200      	movs	r2, #0
 8005070:	2020      	movs	r0, #32
 8005072:	1c13      	adds	r3, r2, #0
 8005074:	f7fb f8b0 	bl	80001d8 <svc_call>
 8005078:	69e3      	ldr	r3, [r4, #28]
 800507a:	e041      	b.n	8005100 <stm32_uart_request+0x2d0>
 800507c:	b2d2      	uxtb	r2, r2
 800507e:	3206      	adds	r2, #6
 8005080:	0092      	lsls	r2, r2, #2
 8005082:	1880      	adds	r0, r0, r2
 8005084:	6843      	ldr	r3, [r0, #4]
 8005086:	2b00      	cmp	r3, #0
 8005088:	d108      	bne.n	800509c <stm32_uart_request+0x26c>
 800508a:	2380      	movs	r3, #128	; 0x80
 800508c:	2204      	movs	r2, #4
 800508e:	059b      	lsls	r3, r3, #22
 8005090:	681b      	ldr	r3, [r3, #0]
 8005092:	4252      	negs	r2, r2
 8005094:	601a      	str	r2, [r3, #0]
 8005096:	2301      	movs	r3, #1
 8005098:	425b      	negs	r3, r3
 800509a:	e000      	b.n	800509e <stm32_uart_request+0x26e>
 800509c:	685b      	ldr	r3, [r3, #4]
 800509e:	60cb      	str	r3, [r1, #12]
 80050a0:	e08e      	b.n	80051c0 <stm32_uart_request+0x390>
 80050a2:	b2d2      	uxtb	r2, r2
 80050a4:	3206      	adds	r2, #6
 80050a6:	0092      	lsls	r2, r2, #2
 80050a8:	1880      	adds	r0, r0, r2
 80050aa:	6842      	ldr	r2, [r0, #4]
 80050ac:	2a00      	cmp	r2, #0
 80050ae:	d108      	bne.n	80050c2 <stm32_uart_request+0x292>
 80050b0:	2280      	movs	r2, #128	; 0x80
 80050b2:	2104      	movs	r1, #4
 80050b4:	0592      	lsls	r2, r2, #22
 80050b6:	6812      	ldr	r2, [r2, #0]
 80050b8:	4249      	negs	r1, r1
 80050ba:	6011      	str	r1, [r2, #0]
 80050bc:	2201      	movs	r2, #1
 80050be:	4252      	negs	r2, r2
 80050c0:	e010      	b.n	80050e4 <stm32_uart_request+0x2b4>
 80050c2:	6a52      	ldr	r2, [r2, #36]	; 0x24
 80050c4:	e00e      	b.n	80050e4 <stm32_uart_request+0x2b4>
 80050c6:	b2d2      	uxtb	r2, r2
 80050c8:	3206      	adds	r2, #6
 80050ca:	0092      	lsls	r2, r2, #2
 80050cc:	1880      	adds	r0, r0, r2
 80050ce:	6842      	ldr	r2, [r0, #4]
 80050d0:	2a00      	cmp	r2, #0
 80050d2:	d106      	bne.n	80050e2 <stm32_uart_request+0x2b2>
 80050d4:	2180      	movs	r1, #128	; 0x80
 80050d6:	2004      	movs	r0, #4
 80050d8:	0589      	lsls	r1, r1, #22
 80050da:	6809      	ldr	r1, [r1, #0]
 80050dc:	4240      	negs	r0, r0
 80050de:	6008      	str	r0, [r1, #0]
 80050e0:	e000      	b.n	80050e4 <stm32_uart_request+0x2b4>
 80050e2:	8812      	ldrh	r2, [r2, #0]
 80050e4:	60da      	str	r2, [r3, #12]
 80050e6:	e06b      	b.n	80051c0 <stm32_uart_request+0x390>
 80050e8:	b2d2      	uxtb	r2, r2
 80050ea:	3206      	adds	r2, #6
 80050ec:	0092      	lsls	r2, r2, #2
 80050ee:	1880      	adds	r0, r0, r2
 80050f0:	6843      	ldr	r3, [r0, #4]
 80050f2:	2b00      	cmp	r3, #0
 80050f4:	d104      	bne.n	8005100 <stm32_uart_request+0x2d0>
 80050f6:	2380      	movs	r3, #128	; 0x80
 80050f8:	059b      	lsls	r3, r3, #22
 80050fa:	681b      	ldr	r3, [r3, #0]
 80050fc:	2204      	movs	r2, #4
 80050fe:	e05d      	b.n	80051bc <stm32_uart_request+0x38c>
 8005100:	2200      	movs	r2, #0
 8005102:	801a      	strh	r2, [r3, #0]
 8005104:	e05c      	b.n	80051c0 <stm32_uart_request+0x390>
 8005106:	b2d2      	uxtb	r2, r2
 8005108:	202e      	movs	r0, #46	; 0x2e
 800510a:	4929      	ldr	r1, [pc, #164]	; (80051b0 <stm32_uart_request+0x380>)
 800510c:	2300      	movs	r3, #0
 800510e:	f7fb f863 	bl	80001d8 <svc_call>
 8005112:	e055      	b.n	80051c0 <stm32_uart_request+0x390>
 8005114:	1c29      	adds	r1, r5, #0
 8005116:	691a      	ldr	r2, [r3, #16]
 8005118:	f7ff fe46 	bl	8004da8 <stm32_uart_write>
 800511c:	2600      	movs	r6, #0
 800511e:	e050      	b.n	80051c2 <stm32_uart_request+0x392>
 8005120:	b2d2      	uxtb	r2, r2
 8005122:	0092      	lsls	r2, r2, #2
 8005124:	a902      	add	r1, sp, #8
 8005126:	691b      	ldr	r3, [r3, #16]
 8005128:	1884      	adds	r4, r0, r2
 800512a:	1ccd      	adds	r5, r1, #3
 800512c:	69e6      	ldr	r6, [r4, #28]
 800512e:	702b      	strb	r3, [r5, #0]
 8005130:	8db3      	ldrh	r3, [r6, #44]	; 0x2c
 8005132:	2b00      	cmp	r3, #0
 8005134:	d106      	bne.n	8005144 <stm32_uart_request+0x314>
 8005136:	201b      	movs	r0, #27
 8005138:	6a71      	ldr	r1, [r6, #36]	; 0x24
 800513a:	aa03      	add	r2, sp, #12
 800513c:	f7fb f84c 	bl	80001d8 <svc_call>
 8005140:	9b03      	ldr	r3, [sp, #12]
 8005142:	85b3      	strh	r3, [r6, #44]	; 0x2c
 8005144:	2600      	movs	r6, #0
 8005146:	69e3      	ldr	r3, [r4, #28]
 8005148:	8d9a      	ldrh	r2, [r3, #44]	; 0x2c
 800514a:	42b2      	cmp	r2, r6
 800514c:	d039      	beq.n	80051c2 <stm32_uart_request+0x392>
 800514e:	6a99      	ldr	r1, [r3, #40]	; 0x28
 8005150:	2380      	movs	r3, #128	; 0x80
 8005152:	059b      	lsls	r3, r3, #22
 8005154:	681b      	ldr	r3, [r3, #0]
 8005156:	1c2a      	adds	r2, r5, #0
 8005158:	601e      	str	r6, [r3, #0]
 800515a:	201e      	movs	r0, #30
 800515c:	2301      	movs	r3, #1
 800515e:	f7fb f83b 	bl	80001d8 <svc_call>
 8005162:	69e2      	ldr	r2, [r4, #28]
 8005164:	8d93      	ldrh	r3, [r2, #44]	; 0x2c
 8005166:	3b01      	subs	r3, #1
 8005168:	8593      	strh	r3, [r2, #44]	; 0x2c
 800516a:	e02a      	b.n	80051c2 <stm32_uart_request+0x392>
 800516c:	00001008 	.word	0x00001008
 8005170:	00001005 	.word	0x00001005
 8005174:	00001003 	.word	0x00001003
 8005178:	00001006 	.word	0x00001006
 800517c:	00001007 	.word	0x00001007
 8005180:	00060003 	.word	0x00060003
 8005184:	00060002 	.word	0x00060002
 8005188:	00060005 	.word	0x00060005
 800518c:	00060006 	.word	0x00060006
 8005190:	08008728 	.word	0x08008728
 8005194:	e000e104 	.word	0xe000e104
 8005198:	08008738 	.word	0x08008738
 800519c:	08008730 	.word	0x08008730
 80051a0:	40021000 	.word	0x40021000
 80051a4:	ffffefff 	.word	0xffffefff
 80051a8:	fffffdff 	.word	0xfffffdff
 80051ac:	fffffbff 	.word	0xfffffbff
 80051b0:	08004b6d 	.word	0x08004b6d
 80051b4:	2380      	movs	r3, #128	; 0x80
 80051b6:	2202      	movs	r2, #2
 80051b8:	059b      	lsls	r3, r3, #22
 80051ba:	681b      	ldr	r3, [r3, #0]
 80051bc:	4252      	negs	r2, r2
 80051be:	601a      	str	r2, [r3, #0]
 80051c0:	2601      	movs	r6, #1
 80051c2:	1c30      	adds	r0, r6, #0
 80051c4:	b009      	add	sp, #36	; 0x24
 80051c6:	bdf0      	pop	{r4, r5, r6, r7, pc}

080051c8 <stm32_uart_init>:
 80051c8:	2300      	movs	r3, #0
 80051ca:	61c3      	str	r3, [r0, #28]
 80051cc:	6203      	str	r3, [r0, #32]
 80051ce:	4770      	bx	lr

080051d0 <process_iget_current>:
 80051d0:	2380      	movs	r3, #128	; 0x80
 80051d2:	2200      	movs	r2, #0
 80051d4:	b513      	push	{r0, r1, r4, lr}
 80051d6:	059b      	lsls	r3, r3, #22
 80051d8:	685c      	ldr	r4, [r3, #4]
 80051da:	2001      	movs	r0, #1
 80051dc:	a901      	add	r1, sp, #4
 80051de:	1c13      	adds	r3, r2, #0
 80051e0:	47a0      	blx	r4
 80051e2:	9801      	ldr	r0, [sp, #4]
 80051e4:	bd16      	pop	{r1, r2, r4, pc}

080051e6 <ipc_ipost>:
 80051e6:	2380      	movs	r3, #128	; 0x80
 80051e8:	2200      	movs	r2, #0
 80051ea:	b510      	push	{r4, lr}
 80051ec:	059b      	lsls	r3, r3, #22
 80051ee:	1c01      	adds	r1, r0, #0
 80051f0:	685c      	ldr	r4, [r3, #4]
 80051f2:	2014      	movs	r0, #20
 80051f4:	1c13      	adds	r3, r2, #0
 80051f6:	47a0      	blx	r4
 80051f8:	bd10      	pop	{r4, pc}
 80051fa:	0000      	movs	r0, r0

080051fc <ep_toggle_bits>:
 80051fc:	b510      	push	{r4, lr}
 80051fe:	b672      	cpsid	i
 8005200:	237f      	movs	r3, #127	; 0x7f
 8005202:	4018      	ands	r0, r3
 8005204:	4b05      	ldr	r3, [pc, #20]	; (800521c <ep_toggle_bits+0x20>)
 8005206:	0080      	lsls	r0, r0, #2
 8005208:	18c0      	adds	r0, r0, r3
 800520a:	8804      	ldrh	r4, [r0, #0]
 800520c:	4b04      	ldr	r3, [pc, #16]	; (8005220 <ep_toggle_bits+0x24>)
 800520e:	4021      	ands	r1, r4
 8005210:	404a      	eors	r2, r1
 8005212:	4023      	ands	r3, r4
 8005214:	431a      	orrs	r2, r3
 8005216:	8002      	strh	r2, [r0, #0]
 8005218:	b662      	cpsie	i
 800521a:	bd10      	pop	{r4, pc}
 800521c:	40005c00 	.word	0x40005c00
 8005220:	ffff8f8f 	.word	0xffff8f8f

08005224 <memcpy16>:
 8005224:	2300      	movs	r3, #0
 8005226:	b510      	push	{r4, lr}
 8005228:	3201      	adds	r2, #1
 800522a:	0852      	lsrs	r2, r2, #1
 800522c:	0052      	lsls	r2, r2, #1
 800522e:	4293      	cmp	r3, r2
 8005230:	d003      	beq.n	800523a <memcpy16+0x16>
 8005232:	5acc      	ldrh	r4, [r1, r3]
 8005234:	52c4      	strh	r4, [r0, r3]
 8005236:	3302      	adds	r3, #2
 8005238:	e7f9      	b.n	800522e <memcpy16+0xa>
 800523a:	bd10      	pop	{r4, pc}

0800523c <stm32_usb_tx>:
 800523c:	b538      	push	{r3, r4, r5, lr}
 800523e:	237f      	movs	r3, #127	; 0x7f
 8005240:	400b      	ands	r3, r1
 8005242:	3312      	adds	r3, #18
 8005244:	009b      	lsls	r3, r3, #2
 8005246:	18c0      	adds	r0, r0, r3
 8005248:	6845      	ldr	r5, [r0, #4]
 800524a:	68ea      	ldr	r2, [r5, #12]
 800524c:	68a8      	ldr	r0, [r5, #8]
 800524e:	8a2b      	ldrh	r3, [r5, #16]
 8005250:	1a84      	subs	r4, r0, r2
 8005252:	429c      	cmp	r4, r3
 8005254:	dd00      	ble.n	8005258 <stm32_usb_tx+0x1c>
 8005256:	1c1c      	adds	r4, r3, #0
 8005258:	4b07      	ldr	r3, [pc, #28]	; (8005278 <stm32_usb_tx+0x3c>)
 800525a:	00c9      	lsls	r1, r1, #3
 800525c:	18cb      	adds	r3, r1, r3
 800525e:	805c      	strh	r4, [r3, #2]
 8005260:	8818      	ldrh	r0, [r3, #0]
 8005262:	4b05      	ldr	r3, [pc, #20]	; (8005278 <stm32_usb_tx+0x3c>)
 8005264:	18c0      	adds	r0, r0, r3
 8005266:	686b      	ldr	r3, [r5, #4]
 8005268:	1899      	adds	r1, r3, r2
 800526a:	1c22      	adds	r2, r4, #0
 800526c:	f7ff ffda 	bl	8005224 <memcpy16>
 8005270:	68eb      	ldr	r3, [r5, #12]
 8005272:	191c      	adds	r4, r3, r4
 8005274:	60ec      	str	r4, [r5, #12]
 8005276:	bd38      	pop	{r3, r4, r5, pc}
 8005278:	40006000 	.word	0x40006000

0800527c <fwrite_async>:
 800527c:	b510      	push	{r4, lr}
 800527e:	1c04      	adds	r4, r0, #0
 8005280:	480a      	ldr	r0, [pc, #40]	; (80052ac <fwrite_async+0x30>)
 8005282:	b086      	sub	sp, #24
 8005284:	9002      	str	r0, [sp, #8]
 8005286:	9401      	str	r4, [sp, #4]
 8005288:	9103      	str	r1, [sp, #12]
 800528a:	9204      	str	r2, [sp, #16]
 800528c:	9305      	str	r3, [sp, #20]
 800528e:	1c53      	adds	r3, r2, #1
 8005290:	d004      	beq.n	800529c <fwrite_async+0x20>
 8005292:	1c11      	adds	r1, r2, #0
 8005294:	2029      	movs	r0, #41	; 0x29
 8005296:	1c22      	adds	r2, r4, #0
 8005298:	ab01      	add	r3, sp, #4
 800529a:	e003      	b.n	80052a4 <fwrite_async+0x28>
 800529c:	2200      	movs	r2, #0
 800529e:	2014      	movs	r0, #20
 80052a0:	1c13      	adds	r3, r2, #0
 80052a2:	a901      	add	r1, sp, #4
 80052a4:	f7fa ff98 	bl	80001d8 <svc_call>
 80052a8:	b006      	add	sp, #24
 80052aa:	bd10      	pop	{r4, pc}
 80052ac:	00001001 	.word	0x00001001

080052b0 <fread_async>:
 80052b0:	b510      	push	{r4, lr}
 80052b2:	1c04      	adds	r4, r0, #0
 80052b4:	2080      	movs	r0, #128	; 0x80
 80052b6:	b086      	sub	sp, #24
 80052b8:	0140      	lsls	r0, r0, #5
 80052ba:	9002      	str	r0, [sp, #8]
 80052bc:	9401      	str	r4, [sp, #4]
 80052be:	9103      	str	r1, [sp, #12]
 80052c0:	9204      	str	r2, [sp, #16]
 80052c2:	9305      	str	r3, [sp, #20]
 80052c4:	1c53      	adds	r3, r2, #1
 80052c6:	d004      	beq.n	80052d2 <fread_async+0x22>
 80052c8:	1c11      	adds	r1, r2, #0
 80052ca:	2029      	movs	r0, #41	; 0x29
 80052cc:	1c22      	adds	r2, r4, #0
 80052ce:	ab01      	add	r3, sp, #4
 80052d0:	e003      	b.n	80052da <fread_async+0x2a>
 80052d2:	2200      	movs	r2, #0
 80052d4:	2014      	movs	r0, #20
 80052d6:	1c13      	adds	r3, r2, #0
 80052d8:	a901      	add	r1, sp, #4
 80052da:	f7fa ff7d 	bl	80001d8 <svc_call>
 80052de:	b006      	add	sp, #24
 80052e0:	bd10      	pop	{r4, pc}
 80052e2:	0000      	movs	r0, r0

080052e4 <stm32_usb_on_isr>:
 80052e4:	2280      	movs	r2, #128	; 0x80
 80052e6:	b5f0      	push	{r4, r5, r6, r7, lr}
 80052e8:	4f92      	ldr	r7, [pc, #584]	; (8005534 <stm32_usb_on_isr+0x250>)
 80052ea:	b08d      	sub	sp, #52	; 0x34
 80052ec:	8ffc      	ldrh	r4, [r7, #62]	; 0x3e
 80052ee:	1c0d      	adds	r5, r1, #0
 80052f0:	b2a4      	uxth	r4, r4
 80052f2:	1c3e      	adds	r6, r7, #0
 80052f4:	0112      	lsls	r2, r2, #4
 80052f6:	0563      	lsls	r3, r4, #21
 80052f8:	d514      	bpl.n	8005324 <stm32_usb_on_isr+0x40>
 80052fa:	6b88      	ldr	r0, [r1, #56]	; 0x38
 80052fc:	498e      	ldr	r1, [pc, #568]	; (8005538 <stm32_usb_on_isr+0x254>)
 80052fe:	8fcb      	ldrh	r3, [r1, #62]	; 0x3e
 8005300:	431a      	orrs	r2, r3
 8005302:	87ca      	strh	r2, [r1, #62]	; 0x3e
 8005304:	2280      	movs	r2, #128	; 0x80
 8005306:	4b8d      	ldr	r3, [pc, #564]	; (800553c <stm32_usb_on_isr+0x258>)
 8005308:	801a      	strh	r2, [r3, #0]
 800530a:	2301      	movs	r3, #1
 800530c:	930a      	str	r3, [sp, #40]	; 0x28
 800530e:	4b8c      	ldr	r3, [pc, #560]	; (8005540 <stm32_usb_on_isr+0x25c>)
 8005310:	9007      	str	r0, [sp, #28]
 8005312:	a807      	add	r0, sp, #28
 8005314:	9308      	str	r3, [sp, #32]
 8005316:	f7ff ff66 	bl	80051e6 <ipc_ipost>
 800531a:	8ffa      	ldrh	r2, [r7, #62]	; 0x3e
 800531c:	4b89      	ldr	r3, [pc, #548]	; (8005544 <stm32_usb_on_isr+0x260>)
 800531e:	4013      	ands	r3, r2
 8005320:	87fb      	strh	r3, [r7, #62]	; 0x3e
 8005322:	e104      	b.n	800552e <stm32_usb_on_isr+0x24a>
 8005324:	4214      	tst	r4, r2
 8005326:	d012      	beq.n	800534e <stm32_usb_on_isr+0x6a>
 8005328:	4b83      	ldr	r3, [pc, #524]	; (8005538 <stm32_usb_on_isr+0x254>)
 800532a:	8fd9      	ldrh	r1, [r3, #62]	; 0x3e
 800532c:	4211      	tst	r1, r2
 800532e:	d00e      	beq.n	800534e <stm32_usb_on_isr+0x6a>
 8005330:	8fda      	ldrh	r2, [r3, #62]	; 0x3e
 8005332:	4c85      	ldr	r4, [pc, #532]	; (8005548 <stm32_usb_on_isr+0x264>)
 8005334:	6ba9      	ldr	r1, [r5, #56]	; 0x38
 8005336:	4022      	ands	r2, r4
 8005338:	87da      	strh	r2, [r3, #62]	; 0x3e
 800533a:	4b84      	ldr	r3, [pc, #528]	; (800554c <stm32_usb_on_isr+0x268>)
 800533c:	a807      	add	r0, sp, #28
 800533e:	9308      	str	r3, [sp, #32]
 8005340:	9107      	str	r1, [sp, #28]
 8005342:	f7ff ff50 	bl	80051e6 <ipc_ipost>
 8005346:	8ffb      	ldrh	r3, [r7, #62]	; 0x3e
 8005348:	401c      	ands	r4, r3
 800534a:	87fc      	strh	r4, [r7, #62]	; 0x3e
 800534c:	e0ef      	b.n	800552e <stm32_usb_on_isr+0x24a>
 800534e:	04e3      	lsls	r3, r4, #19
 8005350:	d50f      	bpl.n	8005372 <stm32_usb_on_isr+0x8e>
 8005352:	2080      	movs	r0, #128	; 0x80
 8005354:	4a78      	ldr	r2, [pc, #480]	; (8005538 <stm32_usb_on_isr+0x254>)
 8005356:	0100      	lsls	r0, r0, #4
 8005358:	8fd3      	ldrh	r3, [r2, #62]	; 0x3e
 800535a:	6ba9      	ldr	r1, [r5, #56]	; 0x38
 800535c:	4303      	orrs	r3, r0
 800535e:	87d3      	strh	r3, [r2, #62]	; 0x3e
 8005360:	4b7b      	ldr	r3, [pc, #492]	; (8005550 <stm32_usb_on_isr+0x26c>)
 8005362:	a807      	add	r0, sp, #28
 8005364:	9308      	str	r3, [sp, #32]
 8005366:	9107      	str	r1, [sp, #28]
 8005368:	f7ff ff3d 	bl	80051e6 <ipc_ipost>
 800536c:	8ff2      	ldrh	r2, [r6, #62]	; 0x3e
 800536e:	4b79      	ldr	r3, [pc, #484]	; (8005554 <stm32_usb_on_isr+0x270>)
 8005370:	e0db      	b.n	800552a <stm32_usb_on_isr+0x246>
 8005372:	b223      	sxth	r3, r4
 8005374:	2b00      	cmp	r3, #0
 8005376:	db00      	blt.n	800537a <stm32_usb_on_isr+0x96>
 8005378:	e0bd      	b.n	80054f6 <stm32_usb_on_isr+0x212>
 800537a:	230f      	movs	r3, #15
 800537c:	8ff4      	ldrh	r4, [r6, #62]	; 0x3e
 800537e:	4f76      	ldr	r7, [pc, #472]	; (8005558 <stm32_usb_on_isr+0x274>)
 8005380:	401c      	ands	r4, r3
 8005382:	d11b      	bne.n	80053bc <stm32_usb_on_isr+0xd8>
 8005384:	883b      	ldrh	r3, [r7, #0]
 8005386:	051b      	lsls	r3, r3, #20
 8005388:	d518      	bpl.n	80053bc <stm32_usb_on_isr+0xd8>
 800538a:	4b74      	ldr	r3, [pc, #464]	; (800555c <stm32_usb_on_isr+0x278>)
 800538c:	4e74      	ldr	r6, [pc, #464]	; (8005560 <stm32_usb_on_isr+0x27c>)
 800538e:	9303      	str	r3, [sp, #12]
 8005390:	6bab      	ldr	r3, [r5, #56]	; 0x38
 8005392:	a804      	add	r0, sp, #16
 8005394:	9302      	str	r3, [sp, #8]
 8005396:	88b1      	ldrh	r1, [r6, #4]
 8005398:	2204      	movs	r2, #4
 800539a:	1989      	adds	r1, r1, r6
 800539c:	f7ff ff42 	bl	8005224 <memcpy16>
 80053a0:	4b70      	ldr	r3, [pc, #448]	; (8005564 <stm32_usb_on_isr+0x280>)
 80053a2:	88b1      	ldrh	r1, [r6, #4]
 80053a4:	2204      	movs	r2, #4
 80053a6:	18c9      	adds	r1, r1, r3
 80053a8:	a805      	add	r0, sp, #20
 80053aa:	f7ff ff3b 	bl	8005224 <memcpy16>
 80053ae:	a802      	add	r0, sp, #8
 80053b0:	f7ff ff19 	bl	80051e6 <ipc_ipost>
 80053b4:	883a      	ldrh	r2, [r7, #0]
 80053b6:	4b6c      	ldr	r3, [pc, #432]	; (8005568 <stm32_usb_on_isr+0x284>)
 80053b8:	4013      	ands	r3, r2
 80053ba:	803b      	strh	r3, [r7, #0]
 80053bc:	4a66      	ldr	r2, [pc, #408]	; (8005558 <stm32_usb_on_isr+0x274>)
 80053be:	00a3      	lsls	r3, r4, #2
 80053c0:	189e      	adds	r6, r3, r2
 80053c2:	9301      	str	r3, [sp, #4]
 80053c4:	8833      	ldrh	r3, [r6, #0]
 80053c6:	061b      	lsls	r3, r3, #24
 80053c8:	d546      	bpl.n	8005458 <stm32_usb_on_isr+0x174>
 80053ca:	1c29      	adds	r1, r5, #0
 80053cc:	315c      	adds	r1, #92	; 0x5c
 80053ce:	7808      	ldrb	r0, [r1, #0]
 80053d0:	2800      	cmp	r0, #0
 80053d2:	d00a      	beq.n	80053ea <stm32_usb_on_isr+0x106>
 80053d4:	4b62      	ldr	r3, [pc, #392]	; (8005560 <stm32_usb_on_isr+0x27c>)
 80053d6:	00e2      	lsls	r2, r4, #3
 80053d8:	18d2      	adds	r2, r2, r3
 80053da:	8852      	ldrh	r2, [r2, #2]
 80053dc:	2a00      	cmp	r2, #0
 80053de:	d104      	bne.n	80053ea <stm32_usb_on_isr+0x106>
 80053e0:	2380      	movs	r3, #128	; 0x80
 80053e2:	4303      	orrs	r3, r0
 80053e4:	4855      	ldr	r0, [pc, #340]	; (800553c <stm32_usb_on_isr+0x258>)
 80053e6:	8003      	strh	r3, [r0, #0]
 80053e8:	700a      	strb	r2, [r1, #0]
 80053ea:	9b01      	ldr	r3, [sp, #4]
 80053ec:	18ef      	adds	r7, r5, r3
 80053ee:	6cfb      	ldr	r3, [r7, #76]	; 0x4c
 80053f0:	7c9b      	ldrb	r3, [r3, #18]
 80053f2:	2b00      	cmp	r3, #0
 80053f4:	d02c      	beq.n	8005450 <stm32_usb_on_isr+0x16c>
 80053f6:	2380      	movs	r3, #128	; 0x80
 80053f8:	4323      	orrs	r3, r4
 80053fa:	1c19      	adds	r1, r3, #0
 80053fc:	1c28      	adds	r0, r5, #0
 80053fe:	9300      	str	r3, [sp, #0]
 8005400:	f7ff ff1c 	bl	800523c <stm32_usb_tx>
 8005404:	6cfb      	ldr	r3, [r7, #76]	; 0x4c
 8005406:	68da      	ldr	r2, [r3, #12]
 8005408:	6899      	ldr	r1, [r3, #8]
 800540a:	428a      	cmp	r2, r1
 800540c:	d31b      	bcc.n	8005446 <stm32_usb_on_isr+0x162>
 800540e:	2200      	movs	r2, #0
 8005410:	749a      	strb	r2, [r3, #18]
 8005412:	6cfb      	ldr	r3, [r7, #76]	; 0x4c
 8005414:	9f00      	ldr	r7, [sp, #0]
 8005416:	6819      	ldr	r1, [r3, #0]
 8005418:	68d8      	ldr	r0, [r3, #12]
 800541a:	4b54      	ldr	r3, [pc, #336]	; (800556c <stm32_usb_on_isr+0x288>)
 800541c:	6baa      	ldr	r2, [r5, #56]	; 0x38
 800541e:	9308      	str	r3, [sp, #32]
 8005420:	23c0      	movs	r3, #192	; 0xc0
 8005422:	02db      	lsls	r3, r3, #11
 8005424:	433b      	orrs	r3, r7
 8005426:	9207      	str	r2, [sp, #28]
 8005428:	9309      	str	r3, [sp, #36]	; 0x24
 800542a:	910a      	str	r1, [sp, #40]	; 0x28
 800542c:	900b      	str	r0, [sp, #44]	; 0x2c
 800542e:	1c4b      	adds	r3, r1, #1
 8005430:	d006      	beq.n	8005440 <stm32_usb_on_isr+0x15c>
 8005432:	2380      	movs	r3, #128	; 0x80
 8005434:	059b      	lsls	r3, r3, #22
 8005436:	685f      	ldr	r7, [r3, #4]
 8005438:	2029      	movs	r0, #41	; 0x29
 800543a:	ab07      	add	r3, sp, #28
 800543c:	47b8      	blx	r7
 800543e:	e002      	b.n	8005446 <stm32_usb_on_isr+0x162>
 8005440:	a807      	add	r0, sp, #28
 8005442:	f7ff fed0 	bl	80051e6 <ipc_ipost>
 8005446:	2130      	movs	r1, #48	; 0x30
 8005448:	1c20      	adds	r0, r4, #0
 800544a:	1c0a      	adds	r2, r1, #0
 800544c:	f7ff fed6 	bl	80051fc <ep_toggle_bits>
 8005450:	8832      	ldrh	r2, [r6, #0]
 8005452:	4b47      	ldr	r3, [pc, #284]	; (8005570 <stm32_usb_on_isr+0x28c>)
 8005454:	4013      	ands	r3, r2
 8005456:	8033      	strh	r3, [r6, #0]
 8005458:	2200      	movs	r2, #0
 800545a:	5eb3      	ldrsh	r3, [r6, r2]
 800545c:	2b00      	cmp	r3, #0
 800545e:	da66      	bge.n	800552e <stm32_usb_on_isr+0x24a>
 8005460:	4a3f      	ldr	r2, [pc, #252]	; (8005560 <stm32_usb_on_isr+0x27c>)
 8005462:	00e3      	lsls	r3, r4, #3
 8005464:	189b      	adds	r3, r3, r2
 8005466:	88da      	ldrh	r2, [r3, #6]
 8005468:	0592      	lsls	r2, r2, #22
 800546a:	0d92      	lsrs	r2, r2, #22
 800546c:	9200      	str	r2, [sp, #0]
 800546e:	9a01      	ldr	r2, [sp, #4]
 8005470:	8899      	ldrh	r1, [r3, #4]
 8005472:	18af      	adds	r7, r5, r2
 8005474:	6bfa      	ldr	r2, [r7, #60]	; 0x3c
 8005476:	4b3a      	ldr	r3, [pc, #232]	; (8005560 <stm32_usb_on_isr+0x27c>)
 8005478:	6850      	ldr	r0, [r2, #4]
 800547a:	68d2      	ldr	r2, [r2, #12]
 800547c:	18c9      	adds	r1, r1, r3
 800547e:	1880      	adds	r0, r0, r2
 8005480:	9a00      	ldr	r2, [sp, #0]
 8005482:	f7ff fecf 	bl	8005224 <memcpy16>
 8005486:	8832      	ldrh	r2, [r6, #0]
 8005488:	4b37      	ldr	r3, [pc, #220]	; (8005568 <stm32_usb_on_isr+0x284>)
 800548a:	4013      	ands	r3, r2
 800548c:	8033      	strh	r3, [r6, #0]
 800548e:	6bfb      	ldr	r3, [r7, #60]	; 0x3c
 8005490:	9a00      	ldr	r2, [sp, #0]
 8005492:	68d9      	ldr	r1, [r3, #12]
 8005494:	1852      	adds	r2, r2, r1
 8005496:	6899      	ldr	r1, [r3, #8]
 8005498:	60da      	str	r2, [r3, #12]
 800549a:	428a      	cmp	r2, r1
 800549c:	d203      	bcs.n	80054a6 <stm32_usb_on_isr+0x1c2>
 800549e:	8a1a      	ldrh	r2, [r3, #16]
 80054a0:	9900      	ldr	r1, [sp, #0]
 80054a2:	428a      	cmp	r2, r1
 80054a4:	d920      	bls.n	80054e8 <stm32_usb_on_isr+0x204>
 80054a6:	2200      	movs	r2, #0
 80054a8:	749a      	strb	r2, [r3, #18]
 80054aa:	6bfb      	ldr	r3, [r7, #60]	; 0x3c
 80054ac:	6baa      	ldr	r2, [r5, #56]	; 0x38
 80054ae:	6819      	ldr	r1, [r3, #0]
 80054b0:	68d8      	ldr	r0, [r3, #12]
 80054b2:	2380      	movs	r3, #128	; 0x80
 80054b4:	015b      	lsls	r3, r3, #5
 80054b6:	9308      	str	r3, [sp, #32]
 80054b8:	23c0      	movs	r3, #192	; 0xc0
 80054ba:	02db      	lsls	r3, r3, #11
 80054bc:	431c      	orrs	r4, r3
 80054be:	9207      	str	r2, [sp, #28]
 80054c0:	9409      	str	r4, [sp, #36]	; 0x24
 80054c2:	910a      	str	r1, [sp, #40]	; 0x28
 80054c4:	900b      	str	r0, [sp, #44]	; 0x2c
 80054c6:	1c4b      	adds	r3, r1, #1
 80054c8:	d006      	beq.n	80054d8 <stm32_usb_on_isr+0x1f4>
 80054ca:	2380      	movs	r3, #128	; 0x80
 80054cc:	059b      	lsls	r3, r3, #22
 80054ce:	685c      	ldr	r4, [r3, #4]
 80054d0:	2029      	movs	r0, #41	; 0x29
 80054d2:	ab07      	add	r3, sp, #28
 80054d4:	47a0      	blx	r4
 80054d6:	e002      	b.n	80054de <stm32_usb_on_isr+0x1fa>
 80054d8:	a807      	add	r0, sp, #28
 80054da:	f7ff fe84 	bl	80051e6 <ipc_ipost>
 80054de:	2201      	movs	r2, #1
 80054e0:	6bfb      	ldr	r3, [r7, #60]	; 0x3c
 80054e2:	4252      	negs	r2, r2
 80054e4:	601a      	str	r2, [r3, #0]
 80054e6:	e022      	b.n	800552e <stm32_usb_on_isr+0x24a>
 80054e8:	21c0      	movs	r1, #192	; 0xc0
 80054ea:	0189      	lsls	r1, r1, #6
 80054ec:	1c20      	adds	r0, r4, #0
 80054ee:	1c0a      	adds	r2, r1, #0
 80054f0:	f7ff fe84 	bl	80051fc <ep_toggle_bits>
 80054f4:	e01b      	b.n	800552e <stm32_usb_on_isr+0x24a>
 80054f6:	04a3      	lsls	r3, r4, #18
 80054f8:	d50b      	bpl.n	8005512 <stm32_usb_on_isr+0x22e>
 80054fa:	f7ff fe69 	bl	80051d0 <process_iget_current>
 80054fe:	4b1d      	ldr	r3, [pc, #116]	; (8005574 <stm32_usb_on_isr+0x290>)
 8005500:	9007      	str	r0, [sp, #28]
 8005502:	a807      	add	r0, sp, #28
 8005504:	9308      	str	r3, [sp, #32]
 8005506:	f7ff fe6e 	bl	80051e6 <ipc_ipost>
 800550a:	8ff2      	ldrh	r2, [r6, #62]	; 0x3e
 800550c:	4b1a      	ldr	r3, [pc, #104]	; (8005578 <stm32_usb_on_isr+0x294>)
 800550e:	4013      	ands	r3, r2
 8005510:	87f3      	strh	r3, [r6, #62]	; 0x3e
 8005512:	0463      	lsls	r3, r4, #17
 8005514:	d50b      	bpl.n	800552e <stm32_usb_on_isr+0x24a>
 8005516:	f7ff fe5b 	bl	80051d0 <process_iget_current>
 800551a:	4b18      	ldr	r3, [pc, #96]	; (800557c <stm32_usb_on_isr+0x298>)
 800551c:	9007      	str	r0, [sp, #28]
 800551e:	a807      	add	r0, sp, #28
 8005520:	9308      	str	r3, [sp, #32]
 8005522:	f7ff fe60 	bl	80051e6 <ipc_ipost>
 8005526:	8ff2      	ldrh	r2, [r6, #62]	; 0x3e
 8005528:	4b15      	ldr	r3, [pc, #84]	; (8005580 <stm32_usb_on_isr+0x29c>)
 800552a:	4013      	ands	r3, r2
 800552c:	87f3      	strh	r3, [r6, #62]	; 0x3e
 800552e:	b00d      	add	sp, #52	; 0x34
 8005530:	bdf0      	pop	{r4, r5, r6, r7, pc}
 8005532:	46c0      	nop			; (mov r8, r8)
 8005534:	40005c06 	.word	0x40005c06
 8005538:	40005c02 	.word	0x40005c02
 800553c:	40005c4c 	.word	0x40005c4c
 8005540:	00070005 	.word	0x00070005
 8005544:	fffffbff 	.word	0xfffffbff
 8005548:	fffff7ff 	.word	0xfffff7ff
 800554c:	00070006 	.word	0x00070006
 8005550:	00070007 	.word	0x00070007
 8005554:	ffffefff 	.word	0xffffefff
 8005558:	40005c00 	.word	0x40005c00
 800555c:	00070008 	.word	0x00070008
 8005560:	40006000 	.word	0x40006000
 8005564:	40006004 	.word	0x40006004
 8005568:	00000f8f 	.word	0x00000f8f
 800556c:	00001001 	.word	0x00001001
 8005570:	ffff8f0f 	.word	0xffff8f0f
 8005574:	0007000a 	.word	0x0007000a
 8005578:	ffffdfff 	.word	0xffffdfff
 800557c:	0007000b 	.word	0x0007000b
 8005580:	ffffbfff 	.word	0xffffbfff

08005584 <stm32_usb_ep_flush>:
 8005584:	b538      	push	{r3, r4, r5, lr}
 8005586:	237f      	movs	r3, #127	; 0x7f
 8005588:	1c04      	adds	r4, r0, #0
 800558a:	400b      	ands	r3, r1
 800558c:	2b03      	cmp	r3, #3
 800558e:	dd04      	ble.n	800559a <stm32_usb_ep_flush+0x16>
 8005590:	2380      	movs	r3, #128	; 0x80
 8005592:	059b      	lsls	r3, r3, #22
 8005594:	681b      	ldr	r3, [r3, #0]
 8005596:	2207      	movs	r2, #7
 8005598:	e013      	b.n	80055c2 <stm32_usb_ep_flush+0x3e>
 800559a:	1c08      	adds	r0, r1, #0
 800559c:	060a      	lsls	r2, r1, #24
 800559e:	d506      	bpl.n	80055ae <stm32_usb_ep_flush+0x2a>
 80055a0:	3312      	adds	r3, #18
 80055a2:	009b      	lsls	r3, r3, #2
 80055a4:	18e3      	adds	r3, r4, r3
 80055a6:	685d      	ldr	r5, [r3, #4]
 80055a8:	2d00      	cmp	r5, #0
 80055aa:	d10e      	bne.n	80055ca <stm32_usb_ep_flush+0x46>
 80055ac:	e005      	b.n	80055ba <stm32_usb_ep_flush+0x36>
 80055ae:	330e      	adds	r3, #14
 80055b0:	009b      	lsls	r3, r3, #2
 80055b2:	18e3      	adds	r3, r4, r3
 80055b4:	685d      	ldr	r5, [r3, #4]
 80055b6:	2d00      	cmp	r5, #0
 80055b8:	d10a      	bne.n	80055d0 <stm32_usb_ep_flush+0x4c>
 80055ba:	2380      	movs	r3, #128	; 0x80
 80055bc:	2205      	movs	r2, #5
 80055be:	059b      	lsls	r3, r3, #22
 80055c0:	681b      	ldr	r3, [r3, #0]
 80055c2:	4252      	negs	r2, r2
 80055c4:	601a      	str	r2, [r3, #0]
 80055c6:	2000      	movs	r0, #0
 80055c8:	e016      	b.n	80055f8 <stm32_usb_ep_flush+0x74>
 80055ca:	2130      	movs	r1, #48	; 0x30
 80055cc:	2220      	movs	r2, #32
 80055ce:	e003      	b.n	80055d8 <stm32_usb_ep_flush+0x54>
 80055d0:	21c0      	movs	r1, #192	; 0xc0
 80055d2:	2280      	movs	r2, #128	; 0x80
 80055d4:	0189      	lsls	r1, r1, #6
 80055d6:	0192      	lsls	r2, r2, #6
 80055d8:	f7ff fe10 	bl	80051fc <ep_toggle_bits>
 80055dc:	6829      	ldr	r1, [r5, #0]
 80055de:	1c4b      	adds	r3, r1, #1
 80055e0:	d007      	beq.n	80055f2 <stm32_usb_ep_flush+0x6e>
 80055e2:	2300      	movs	r3, #0
 80055e4:	2028      	movs	r0, #40	; 0x28
 80055e6:	6ba2      	ldr	r2, [r4, #56]	; 0x38
 80055e8:	f7fa fdf6 	bl	80001d8 <svc_call>
 80055ec:	2301      	movs	r3, #1
 80055ee:	425b      	negs	r3, r3
 80055f0:	602b      	str	r3, [r5, #0]
 80055f2:	2300      	movs	r3, #0
 80055f4:	2001      	movs	r0, #1
 80055f6:	74ab      	strb	r3, [r5, #18]
 80055f8:	bd38      	pop	{r3, r4, r5, pc}

080055fa <stm32_usb_close_ep>:
 80055fa:	b570      	push	{r4, r5, r6, lr}
 80055fc:	1c05      	adds	r5, r0, #0
 80055fe:	1c0e      	adds	r6, r1, #0
 8005600:	f7ff ffc0 	bl	8005584 <stm32_usb_ep_flush>
 8005604:	2800      	cmp	r0, #0
 8005606:	d02c      	beq.n	8005662 <stm32_usb_close_ep+0x68>
 8005608:	2480      	movs	r4, #128	; 0x80
 800560a:	1c30      	adds	r0, r6, #0
 800560c:	4034      	ands	r4, r6
 800560e:	d007      	beq.n	8005620 <stm32_usb_close_ep+0x26>
 8005610:	2130      	movs	r1, #48	; 0x30
 8005612:	2200      	movs	r2, #0
 8005614:	f7ff fdf2 	bl	80051fc <ep_toggle_bits>
 8005618:	237f      	movs	r3, #127	; 0x7f
 800561a:	4033      	ands	r3, r6
 800561c:	3312      	adds	r3, #18
 800561e:	e007      	b.n	8005630 <stm32_usb_close_ep+0x36>
 8005620:	21c0      	movs	r1, #192	; 0xc0
 8005622:	1c22      	adds	r2, r4, #0
 8005624:	0189      	lsls	r1, r1, #6
 8005626:	f7ff fde9 	bl	80051fc <ep_toggle_bits>
 800562a:	237f      	movs	r3, #127	; 0x7f
 800562c:	4033      	ands	r3, r6
 800562e:	330e      	adds	r3, #14
 8005630:	009b      	lsls	r3, r3, #2
 8005632:	18eb      	adds	r3, r5, r3
 8005634:	6859      	ldr	r1, [r3, #4]
 8005636:	2380      	movs	r3, #128	; 0x80
 8005638:	059b      	lsls	r3, r3, #22
 800563a:	689a      	ldr	r2, [r3, #8]
 800563c:	6818      	ldr	r0, [r3, #0]
 800563e:	6812      	ldr	r2, [r2, #0]
 8005640:	3008      	adds	r0, #8
 8005642:	6953      	ldr	r3, [r2, #20]
 8005644:	4798      	blx	r3
 8005646:	217f      	movs	r1, #127	; 0x7f
 8005648:	4031      	ands	r1, r6
 800564a:	2c00      	cmp	r4, #0
 800564c:	d005      	beq.n	800565a <stm32_usb_close_ep+0x60>
 800564e:	2300      	movs	r3, #0
 8005650:	3112      	adds	r1, #18
 8005652:	0089      	lsls	r1, r1, #2
 8005654:	1869      	adds	r1, r5, r1
 8005656:	604b      	str	r3, [r1, #4]
 8005658:	e003      	b.n	8005662 <stm32_usb_close_ep+0x68>
 800565a:	310e      	adds	r1, #14
 800565c:	0089      	lsls	r1, r1, #2
 800565e:	1869      	adds	r1, r5, r1
 8005660:	604c      	str	r4, [r1, #4]
 8005662:	bd70      	pop	{r4, r5, r6, pc}

08005664 <stm32_usb_ep_set_stall>:
 8005664:	b510      	push	{r4, lr}
 8005666:	1c0c      	adds	r4, r1, #0
 8005668:	f7ff ff8c 	bl	8005584 <stm32_usb_ep_flush>
 800566c:	2800      	cmp	r0, #0
 800566e:	d00b      	beq.n	8005688 <stm32_usb_ep_set_stall+0x24>
 8005670:	1c20      	adds	r0, r4, #0
 8005672:	0623      	lsls	r3, r4, #24
 8005674:	d502      	bpl.n	800567c <stm32_usb_ep_set_stall+0x18>
 8005676:	2130      	movs	r1, #48	; 0x30
 8005678:	2210      	movs	r2, #16
 800567a:	e003      	b.n	8005684 <stm32_usb_ep_set_stall+0x20>
 800567c:	21c0      	movs	r1, #192	; 0xc0
 800567e:	2280      	movs	r2, #128	; 0x80
 8005680:	0189      	lsls	r1, r1, #6
 8005682:	0152      	lsls	r2, r2, #5
 8005684:	f7ff fdba 	bl	80051fc <ep_toggle_bits>
 8005688:	bd10      	pop	{r4, pc}

0800568a <stm32_usb_ep_clear_stall>:
 800568a:	b510      	push	{r4, lr}
 800568c:	1c0c      	adds	r4, r1, #0
 800568e:	f7ff ff79 	bl	8005584 <stm32_usb_ep_flush>
 8005692:	2800      	cmp	r0, #0
 8005694:	d00b      	beq.n	80056ae <stm32_usb_ep_clear_stall+0x24>
 8005696:	1c20      	adds	r0, r4, #0
 8005698:	0623      	lsls	r3, r4, #24
 800569a:	d502      	bpl.n	80056a2 <stm32_usb_ep_clear_stall+0x18>
 800569c:	2130      	movs	r1, #48	; 0x30
 800569e:	2220      	movs	r2, #32
 80056a0:	e003      	b.n	80056aa <stm32_usb_ep_clear_stall+0x20>
 80056a2:	21c0      	movs	r1, #192	; 0xc0
 80056a4:	2280      	movs	r2, #128	; 0x80
 80056a6:	0189      	lsls	r1, r1, #6
 80056a8:	0192      	lsls	r2, r2, #6
 80056aa:	f7ff fda7 	bl	80051fc <ep_toggle_bits>
 80056ae:	bd10      	pop	{r4, pc}

080056b0 <stm32_usb_ep_is_stall>:
 80056b0:	237f      	movs	r3, #127	; 0x7f
 80056b2:	4003      	ands	r3, r0
 80056b4:	2b03      	cmp	r3, #3
 80056b6:	dd07      	ble.n	80056c8 <stm32_usb_ep_is_stall+0x18>
 80056b8:	2380      	movs	r3, #128	; 0x80
 80056ba:	2207      	movs	r2, #7
 80056bc:	059b      	lsls	r3, r3, #22
 80056be:	681b      	ldr	r3, [r3, #0]
 80056c0:	4252      	negs	r2, r2
 80056c2:	601a      	str	r2, [r3, #0]
 80056c4:	2000      	movs	r0, #0
 80056c6:	e012      	b.n	80056ee <stm32_usb_ep_is_stall+0x3e>
 80056c8:	4a09      	ldr	r2, [pc, #36]	; (80056f0 <stm32_usb_ep_is_stall+0x40>)
 80056ca:	009b      	lsls	r3, r3, #2
 80056cc:	189b      	adds	r3, r3, r2
 80056ce:	0602      	lsls	r2, r0, #24
 80056d0:	d504      	bpl.n	80056dc <stm32_usb_ep_is_stall+0x2c>
 80056d2:	8818      	ldrh	r0, [r3, #0]
 80056d4:	2330      	movs	r3, #48	; 0x30
 80056d6:	4018      	ands	r0, r3
 80056d8:	3810      	subs	r0, #16
 80056da:	e005      	b.n	80056e8 <stm32_usb_ep_is_stall+0x38>
 80056dc:	8818      	ldrh	r0, [r3, #0]
 80056de:	23c0      	movs	r3, #192	; 0xc0
 80056e0:	019b      	lsls	r3, r3, #6
 80056e2:	4018      	ands	r0, r3
 80056e4:	4b03      	ldr	r3, [pc, #12]	; (80056f4 <stm32_usb_ep_is_stall+0x44>)
 80056e6:	18c0      	adds	r0, r0, r3
 80056e8:	4243      	negs	r3, r0
 80056ea:	4158      	adcs	r0, r3
 80056ec:	b2c0      	uxtb	r0, r0
 80056ee:	4770      	bx	lr
 80056f0:	40005c00 	.word	0x40005c00
 80056f4:	fffff000 	.word	0xfffff000

080056f8 <stm32_usb_open_device>:
 80056f8:	b5f0      	push	{r4, r5, r6, r7, lr}
 80056fa:	2780      	movs	r7, #128	; 0x80
 80056fc:	2500      	movs	r5, #0
 80056fe:	230b      	movs	r3, #11
 8005700:	241a      	movs	r4, #26
 8005702:	b087      	sub	sp, #28
 8005704:	1c06      	adds	r6, r0, #0
 8005706:	6381      	str	r1, [r0, #56]	; 0x38
 8005708:	027f      	lsls	r7, r7, #9
 800570a:	a901      	add	r1, sp, #4
 800570c:	9303      	str	r3, [sp, #12]
 800570e:	9404      	str	r4, [sp, #16]
 8005710:	9702      	str	r7, [sp, #8]
 8005712:	9505      	str	r5, [sp, #20]
 8005714:	f7fe fa9a 	bl	8003c4c <stm32_gpio_request>
 8005718:	230c      	movs	r3, #12
 800571a:	a901      	add	r1, sp, #4
 800571c:	1c30      	adds	r0, r6, #0
 800571e:	9303      	str	r3, [sp, #12]
 8005720:	9404      	str	r4, [sp, #16]
 8005722:	9702      	str	r7, [sp, #8]
 8005724:	9505      	str	r5, [sp, #20]
 8005726:	f7fe fa91 	bl	8003c4c <stm32_gpio_request>
 800572a:	2180      	movs	r1, #128	; 0x80
 800572c:	4a27      	ldr	r2, [pc, #156]	; (80057cc <stm32_usb_open_device+0xd4>)
 800572e:	0409      	lsls	r1, r1, #16
 8005730:	6b93      	ldr	r3, [r2, #56]	; 0x38
 8005732:	4c27      	ldr	r4, [pc, #156]	; (80057d0 <stm32_usb_open_device+0xd8>)
 8005734:	430b      	orrs	r3, r1
 8005736:	6393      	str	r3, [r2, #56]	; 0x38
 8005738:	2202      	movs	r2, #2
 800573a:	8fe3      	ldrh	r3, [r4, #62]	; 0x3e
 800573c:	2001      	movs	r0, #1
 800573e:	4393      	bics	r3, r2
 8005740:	87e3      	strh	r3, [r4, #62]	; 0x3e
 8005742:	2380      	movs	r3, #128	; 0x80
 8005744:	059b      	lsls	r3, r3, #22
 8005746:	689b      	ldr	r3, [r3, #8]
 8005748:	a901      	add	r1, sp, #4
 800574a:	689b      	ldr	r3, [r3, #8]
 800574c:	695b      	ldr	r3, [r3, #20]
 800574e:	4798      	blx	r3
 8005750:	1c2a      	adds	r2, r5, #0
 8005752:	1c2b      	adds	r3, r5, #0
 8005754:	2007      	movs	r0, #7
 8005756:	a901      	add	r1, sp, #4
 8005758:	f7fa fd3e 	bl	80001d8 <svc_call>
 800575c:	2201      	movs	r2, #1
 800575e:	8fe3      	ldrh	r3, [r4, #62]	; 0x3e
 8005760:	4393      	bics	r3, r2
 8005762:	87e3      	strh	r3, [r4, #62]	; 0x3e
 8005764:	4b1b      	ldr	r3, [pc, #108]	; (80057d4 <stm32_usb_open_device+0xdc>)
 8005766:	87dd      	strh	r5, [r3, #62]	; 0x3e
 8005768:	4b1b      	ldr	r3, [pc, #108]	; (80057d8 <stm32_usb_open_device+0xe0>)
 800576a:	801d      	strh	r5, [r3, #0]
 800576c:	4b1b      	ldr	r3, [pc, #108]	; (80057dc <stm32_usb_open_device+0xe4>)
 800576e:	2200      	movs	r2, #0
 8005770:	801a      	strh	r2, [r3, #0]
 8005772:	805a      	strh	r2, [r3, #2]
 8005774:	809a      	strh	r2, [r3, #4]
 8005776:	80da      	strh	r2, [r3, #6]
 8005778:	4a19      	ldr	r2, [pc, #100]	; (80057e0 <stm32_usb_open_device+0xe8>)
 800577a:	3308      	adds	r3, #8
 800577c:	4293      	cmp	r3, r2
 800577e:	d1f6      	bne.n	800576e <stm32_usb_open_device+0x76>
 8005780:	1c33      	adds	r3, r6, #0
 8005782:	200a      	movs	r0, #10
 8005784:	211f      	movs	r1, #31
 8005786:	4a17      	ldr	r2, [pc, #92]	; (80057e4 <stm32_usb_open_device+0xec>)
 8005788:	f7fa fd26 	bl	80001d8 <svc_call>
 800578c:	2380      	movs	r3, #128	; 0x80
 800578e:	21c7      	movs	r1, #199	; 0xc7
 8005790:	2080      	movs	r0, #128	; 0x80
 8005792:	4a15      	ldr	r2, [pc, #84]	; (80057e8 <stm32_usb_open_device+0xf0>)
 8005794:	061b      	lsls	r3, r3, #24
 8005796:	6013      	str	r3, [r2, #0]
 8005798:	0089      	lsls	r1, r1, #2
 800579a:	5853      	ldr	r3, [r2, r1]
 800579c:	05c0      	lsls	r0, r0, #23
 800579e:	021b      	lsls	r3, r3, #8
 80057a0:	0a1b      	lsrs	r3, r3, #8
 80057a2:	4303      	orrs	r3, r0
 80057a4:	5053      	str	r3, [r2, r1]
 80057a6:	238c      	movs	r3, #140	; 0x8c
 80057a8:	8fe2      	ldrh	r2, [r4, #62]	; 0x3e
 80057aa:	021b      	lsls	r3, r3, #8
 80057ac:	4313      	orrs	r3, r2
 80057ae:	22c0      	movs	r2, #192	; 0xc0
 80057b0:	87e3      	strh	r3, [r4, #62]	; 0x3e
 80057b2:	8fe3      	ldrh	r3, [r4, #62]	; 0x3e
 80057b4:	01d2      	lsls	r2, r2, #7
 80057b6:	4313      	orrs	r3, r2
 80057b8:	87e3      	strh	r3, [r4, #62]	; 0x3e
 80057ba:	2380      	movs	r3, #128	; 0x80
 80057bc:	4a0b      	ldr	r2, [pc, #44]	; (80057ec <stm32_usb_open_device+0xf4>)
 80057be:	021b      	lsls	r3, r3, #8
 80057c0:	8811      	ldrh	r1, [r2, #0]
 80057c2:	430b      	orrs	r3, r1
 80057c4:	8013      	strh	r3, [r2, #0]
 80057c6:	b007      	add	sp, #28
 80057c8:	bdf0      	pop	{r4, r5, r6, r7, pc}
 80057ca:	46c0      	nop			; (mov r8, r8)
 80057cc:	40021000 	.word	0x40021000
 80057d0:	40005c02 	.word	0x40005c02
 80057d4:	40005c06 	.word	0x40005c06
 80057d8:	40005c50 	.word	0x40005c50
 80057dc:	40006000 	.word	0x40006000
 80057e0:	40006020 	.word	0x40006020
 80057e4:	080052e5 	.word	0x080052e5
 80057e8:	e000e100 	.word	0xe000e100
 80057ec:	40005c58 	.word	0x40005c58

080057f0 <stm32_usb_init>:
 80057f0:	2301      	movs	r3, #1
 80057f2:	1c02      	adds	r2, r0, #0
 80057f4:	425b      	negs	r3, r3
 80057f6:	6383      	str	r3, [r0, #56]	; 0x38
 80057f8:	2300      	movs	r3, #0
 80057fa:	325c      	adds	r2, #92	; 0x5c
 80057fc:	7013      	strb	r3, [r2, #0]
 80057fe:	63c3      	str	r3, [r0, #60]	; 0x3c
 8005800:	64c3      	str	r3, [r0, #76]	; 0x4c
 8005802:	6403      	str	r3, [r0, #64]	; 0x40
 8005804:	6503      	str	r3, [r0, #80]	; 0x50
 8005806:	6443      	str	r3, [r0, #68]	; 0x44
 8005808:	6543      	str	r3, [r0, #84]	; 0x54
 800580a:	6483      	str	r3, [r0, #72]	; 0x48
 800580c:	6583      	str	r3, [r0, #88]	; 0x58
 800580e:	4770      	bx	lr

08005810 <stm32_usb_request>:
 8005810:	22e0      	movs	r2, #224	; 0xe0
 8005812:	b5f0      	push	{r4, r5, r6, r7, lr}
 8005814:	684b      	ldr	r3, [r1, #4]
 8005816:	b08b      	sub	sp, #44	; 0x2c
 8005818:	02d2      	lsls	r2, r2, #11
 800581a:	4293      	cmp	r3, r2
 800581c:	d100      	bne.n	8005820 <stm32_usb_request+0x10>
 800581e:	e12d      	b.n	8005a7c <stm32_usb_request+0x26c>
 8005820:	1c0d      	adds	r5, r1, #0
 8005822:	1c07      	adds	r7, r0, #0
 8005824:	4293      	cmp	r3, r2
 8005826:	d815      	bhi.n	8005854 <stm32_usb_request+0x44>
 8005828:	4ac4      	ldr	r2, [pc, #784]	; (8005b3c <stm32_usb_request+0x32c>)
 800582a:	4293      	cmp	r3, r2
 800582c:	d100      	bne.n	8005830 <stm32_usb_request+0x20>
 800582e:	e12f      	b.n	8005a90 <stm32_usb_request+0x280>
 8005830:	d808      	bhi.n	8005844 <stm32_usb_request+0x34>
 8005832:	3a03      	subs	r2, #3
 8005834:	4293      	cmp	r3, r2
 8005836:	d100      	bne.n	800583a <stm32_usb_request+0x2a>
 8005838:	e134      	b.n	8005aa4 <stm32_usb_request+0x294>
 800583a:	4ac1      	ldr	r2, [pc, #772]	; (8005b40 <stm32_usb_request+0x330>)
 800583c:	4293      	cmp	r3, r2
 800583e:	d100      	bne.n	8005842 <stm32_usb_request+0x32>
 8005840:	e1b2      	b.n	8005ba8 <stm32_usb_request+0x398>
 8005842:	e225      	b.n	8005c90 <stm32_usb_request+0x480>
 8005844:	4abf      	ldr	r2, [pc, #764]	; (8005b44 <stm32_usb_request+0x334>)
 8005846:	4293      	cmp	r3, r2
 8005848:	d029      	beq.n	800589e <stm32_usb_request+0x8e>
 800584a:	4abf      	ldr	r2, [pc, #764]	; (8005b48 <stm32_usb_request+0x338>)
 800584c:	4293      	cmp	r3, r2
 800584e:	d100      	bne.n	8005852 <stm32_usb_request+0x42>
 8005850:	e0c6      	b.n	80059e0 <stm32_usb_request+0x1d0>
 8005852:	e21d      	b.n	8005c90 <stm32_usb_request+0x480>
 8005854:	4abd      	ldr	r2, [pc, #756]	; (8005b4c <stm32_usb_request+0x33c>)
 8005856:	4293      	cmp	r3, r2
 8005858:	d100      	bne.n	800585c <stm32_usb_request+0x4c>
 800585a:	e11e      	b.n	8005a9a <stm32_usb_request+0x28a>
 800585c:	d80b      	bhi.n	8005876 <stm32_usb_request+0x66>
 800585e:	4abc      	ldr	r2, [pc, #752]	; (8005b50 <stm32_usb_request+0x340>)
 8005860:	4293      	cmp	r3, r2
 8005862:	d019      	beq.n	8005898 <stm32_usb_request+0x88>
 8005864:	4abb      	ldr	r2, [pc, #748]	; (8005b54 <stm32_usb_request+0x344>)
 8005866:	4293      	cmp	r3, r2
 8005868:	d000      	beq.n	800586c <stm32_usb_request+0x5c>
 800586a:	e211      	b.n	8005c90 <stm32_usb_request+0x480>
 800586c:	6889      	ldr	r1, [r1, #8]
 800586e:	b289      	uxth	r1, r1
 8005870:	f7ff fef8 	bl	8005664 <stm32_usb_ep_set_stall>
 8005874:	e212      	b.n	8005c9c <stm32_usb_request+0x48c>
 8005876:	4ab8      	ldr	r2, [pc, #736]	; (8005b58 <stm32_usb_request+0x348>)
 8005878:	4293      	cmp	r3, r2
 800587a:	d100      	bne.n	800587e <stm32_usb_request+0x6e>
 800587c:	e201      	b.n	8005c82 <stm32_usb_request+0x472>
 800587e:	4ab7      	ldr	r2, [pc, #732]	; (8005b5c <stm32_usb_request+0x34c>)
 8005880:	4293      	cmp	r3, r2
 8005882:	d100      	bne.n	8005886 <stm32_usb_request+0x76>
 8005884:	e1ff      	b.n	8005c86 <stm32_usb_request+0x476>
 8005886:	4ab6      	ldr	r2, [pc, #728]	; (8005b60 <stm32_usb_request+0x350>)
 8005888:	4293      	cmp	r3, r2
 800588a:	d000      	beq.n	800588e <stm32_usb_request+0x7e>
 800588c:	e200      	b.n	8005c90 <stm32_usb_request+0x480>
 800588e:	8908      	ldrh	r0, [r1, #8]
 8005890:	f7ff ff0e 	bl	80056b0 <stm32_usb_ep_is_stall>
 8005894:	60e8      	str	r0, [r5, #12]
 8005896:	e201      	b.n	8005c9c <stm32_usb_request+0x48c>
 8005898:	2401      	movs	r4, #1
 800589a:	60cc      	str	r4, [r1, #12]
 800589c:	e1ff      	b.n	8005c9e <stm32_usb_request+0x48e>
 800589e:	688b      	ldr	r3, [r1, #8]
 80058a0:	9300      	str	r3, [sp, #0]
 80058a2:	466b      	mov	r3, sp
 80058a4:	881b      	ldrh	r3, [r3, #0]
 80058a6:	2bff      	cmp	r3, #255	; 0xff
 80058a8:	d103      	bne.n	80058b2 <stm32_usb_request+0xa2>
 80058aa:	6809      	ldr	r1, [r1, #0]
 80058ac:	f7ff ff24 	bl	80056f8 <stm32_usb_open_device>
 80058b0:	e1f4      	b.n	8005c9c <stm32_usb_request+0x48c>
 80058b2:	257f      	movs	r5, #127	; 0x7f
 80058b4:	68cb      	ldr	r3, [r1, #12]
 80058b6:	9303      	str	r3, [sp, #12]
 80058b8:	690b      	ldr	r3, [r1, #16]
 80058ba:	9301      	str	r3, [sp, #4]
 80058bc:	9b00      	ldr	r3, [sp, #0]
 80058be:	401d      	ands	r5, r3
 80058c0:	2380      	movs	r3, #128	; 0x80
 80058c2:	2d03      	cmp	r5, #3
 80058c4:	dd03      	ble.n	80058ce <stm32_usb_request+0xbe>
 80058c6:	059b      	lsls	r3, r3, #22
 80058c8:	681b      	ldr	r3, [r3, #0]
 80058ca:	2207      	movs	r2, #7
 80058cc:	e1e4      	b.n	8005c98 <stm32_usb_request+0x488>
 80058ce:	9a00      	ldr	r2, [sp, #0]
 80058d0:	401a      	ands	r2, r3
 80058d2:	9202      	str	r2, [sp, #8]
 80058d4:	d002      	beq.n	80058dc <stm32_usb_request+0xcc>
 80058d6:	1c2b      	adds	r3, r5, #0
 80058d8:	3312      	adds	r3, #18
 80058da:	e001      	b.n	80058e0 <stm32_usb_request+0xd0>
 80058dc:	1c2b      	adds	r3, r5, #0
 80058de:	330e      	adds	r3, #14
 80058e0:	009b      	lsls	r3, r3, #2
 80058e2:	18fb      	adds	r3, r7, r3
 80058e4:	685e      	ldr	r6, [r3, #4]
 80058e6:	2e00      	cmp	r6, #0
 80058e8:	d004      	beq.n	80058f4 <stm32_usb_request+0xe4>
 80058ea:	2380      	movs	r3, #128	; 0x80
 80058ec:	059b      	lsls	r3, r3, #22
 80058ee:	681b      	ldr	r3, [r3, #0]
 80058f0:	2206      	movs	r2, #6
 80058f2:	e1d1      	b.n	8005c98 <stm32_usb_request+0x488>
 80058f4:	1c3b      	adds	r3, r7, #0
 80058f6:	1c39      	adds	r1, r7, #0
 80058f8:	333c      	adds	r3, #60	; 0x3c
 80058fa:	314c      	adds	r1, #76	; 0x4c
 80058fc:	691a      	ldr	r2, [r3, #16]
 80058fe:	2a00      	cmp	r2, #0
 8005900:	d001      	beq.n	8005906 <stm32_usb_request+0xf6>
 8005902:	8a12      	ldrh	r2, [r2, #16]
 8005904:	18b6      	adds	r6, r6, r2
 8005906:	681a      	ldr	r2, [r3, #0]
 8005908:	2a00      	cmp	r2, #0
 800590a:	d001      	beq.n	8005910 <stm32_usb_request+0x100>
 800590c:	8a12      	ldrh	r2, [r2, #16]
 800590e:	18b6      	adds	r6, r6, r2
 8005910:	3304      	adds	r3, #4
 8005912:	428b      	cmp	r3, r1
 8005914:	d1f2      	bne.n	80058fc <stm32_usb_request+0xec>
 8005916:	2380      	movs	r3, #128	; 0x80
 8005918:	059b      	lsls	r3, r3, #22
 800591a:	689a      	ldr	r2, [r3, #8]
 800591c:	6818      	ldr	r0, [r3, #0]
 800591e:	6812      	ldr	r2, [r2, #0]
 8005920:	2114      	movs	r1, #20
 8005922:	3008      	adds	r0, #8
 8005924:	68d3      	ldr	r3, [r2, #12]
 8005926:	4798      	blx	r3
 8005928:	3620      	adds	r6, #32
 800592a:	1c01      	adds	r1, r0, #0
 800592c:	2401      	movs	r4, #1
 800592e:	2800      	cmp	r0, #0
 8005930:	d100      	bne.n	8005934 <stm32_usb_request+0x124>
 8005932:	e1b4      	b.n	8005c9e <stm32_usb_request+0x48e>
 8005934:	9b02      	ldr	r3, [sp, #8]
 8005936:	1c28      	adds	r0, r5, #0
 8005938:	2b00      	cmp	r3, #0
 800593a:	d001      	beq.n	8005940 <stm32_usb_request+0x130>
 800593c:	3012      	adds	r0, #18
 800593e:	e000      	b.n	8005942 <stm32_usb_request+0x132>
 8005940:	300e      	adds	r0, #14
 8005942:	466b      	mov	r3, sp
 8005944:	0080      	lsls	r0, r0, #2
 8005946:	1838      	adds	r0, r7, r0
 8005948:	6041      	str	r1, [r0, #4]
 800594a:	8818      	ldrh	r0, [r3, #0]
 800594c:	2301      	movs	r3, #1
 800594e:	425b      	negs	r3, r3
 8005950:	600b      	str	r3, [r1, #0]
 8005952:	2300      	movs	r3, #0
 8005954:	820b      	strh	r3, [r1, #16]
 8005956:	748b      	strb	r3, [r1, #18]
 8005958:	466b      	mov	r3, sp
 800595a:	227f      	movs	r2, #127	; 0x7f
 800595c:	7b1b      	ldrb	r3, [r3, #12]
 800595e:	4002      	ands	r2, r0
 8005960:	2b01      	cmp	r3, #1
 8005962:	d008      	beq.n	8005976 <stm32_usb_request+0x166>
 8005964:	2b00      	cmp	r3, #0
 8005966:	d003      	beq.n	8005970 <stm32_usb_request+0x160>
 8005968:	2b03      	cmp	r3, #3
 800596a:	d107      	bne.n	800597c <stm32_usb_request+0x16c>
 800596c:	23c0      	movs	r3, #192	; 0xc0
 800596e:	e003      	b.n	8005978 <stm32_usb_request+0x168>
 8005970:	2380      	movs	r3, #128	; 0x80
 8005972:	009b      	lsls	r3, r3, #2
 8005974:	e001      	b.n	800597a <stm32_usb_request+0x16a>
 8005976:	2380      	movs	r3, #128	; 0x80
 8005978:	00db      	lsls	r3, r3, #3
 800597a:	431a      	orrs	r2, r3
 800597c:	237f      	movs	r3, #127	; 0x7f
 800597e:	9c02      	ldr	r4, [sp, #8]
 8005980:	4003      	ands	r3, r0
 8005982:	00db      	lsls	r3, r3, #3
 8005984:	2c00      	cmp	r4, #0
 8005986:	d005      	beq.n	8005994 <stm32_usb_request+0x184>
 8005988:	4c76      	ldr	r4, [pc, #472]	; (8005b64 <stm32_usb_request+0x354>)
 800598a:	191b      	adds	r3, r3, r4
 800598c:	2400      	movs	r4, #0
 800598e:	801e      	strh	r6, [r3, #0]
 8005990:	805c      	strh	r4, [r3, #2]
 8005992:	e011      	b.n	80059b8 <stm32_usb_request+0x1a8>
 8005994:	4c73      	ldr	r4, [pc, #460]	; (8005b64 <stm32_usb_request+0x354>)
 8005996:	191b      	adds	r3, r3, r4
 8005998:	9c01      	ldr	r4, [sp, #4]
 800599a:	809e      	strh	r6, [r3, #4]
 800599c:	2c3e      	cmp	r4, #62	; 0x3e
 800599e:	d803      	bhi.n	80059a8 <stm32_usb_request+0x198>
 80059a0:	3401      	adds	r4, #1
 80059a2:	0864      	lsrs	r4, r4, #1
 80059a4:	02a4      	lsls	r4, r4, #10
 80059a6:	e006      	b.n	80059b6 <stm32_usb_request+0x1a6>
 80059a8:	9c01      	ldr	r4, [sp, #4]
 80059aa:	4e6f      	ldr	r6, [pc, #444]	; (8005b68 <stm32_usb_request+0x358>)
 80059ac:	3403      	adds	r4, #3
 80059ae:	08a4      	lsrs	r4, r4, #2
 80059b0:	3c01      	subs	r4, #1
 80059b2:	02a4      	lsls	r4, r4, #10
 80059b4:	4334      	orrs	r4, r6
 80059b6:	80dc      	strh	r4, [r3, #6]
 80059b8:	466b      	mov	r3, sp
 80059ba:	889b      	ldrh	r3, [r3, #4]
 80059bc:	00ad      	lsls	r5, r5, #2
 80059be:	820b      	strh	r3, [r1, #16]
 80059c0:	4b6a      	ldr	r3, [pc, #424]	; (8005b6c <stm32_usb_request+0x35c>)
 80059c2:	18ed      	adds	r5, r5, r3
 80059c4:	9b02      	ldr	r3, [sp, #8]
 80059c6:	802a      	strh	r2, [r5, #0]
 80059c8:	2b00      	cmp	r3, #0
 80059ca:	d002      	beq.n	80059d2 <stm32_usb_request+0x1c2>
 80059cc:	2170      	movs	r1, #112	; 0x70
 80059ce:	2220      	movs	r2, #32
 80059d0:	e003      	b.n	80059da <stm32_usb_request+0x1ca>
 80059d2:	21e0      	movs	r1, #224	; 0xe0
 80059d4:	2280      	movs	r2, #128	; 0x80
 80059d6:	01c9      	lsls	r1, r1, #7
 80059d8:	0192      	lsls	r2, r2, #6
 80059da:	f7ff fc0f 	bl	80051fc <ep_toggle_bits>
 80059de:	e15d      	b.n	8005c9c <stm32_usb_request+0x48c>
 80059e0:	6889      	ldr	r1, [r1, #8]
 80059e2:	b289      	uxth	r1, r1
 80059e4:	29ff      	cmp	r1, #255	; 0xff
 80059e6:	d146      	bne.n	8005a76 <stm32_usb_request+0x266>
 80059e8:	4a61      	ldr	r2, [pc, #388]	; (8005b70 <stm32_usb_request+0x360>)
 80059ea:	200b      	movs	r0, #11
 80059ec:	8813      	ldrh	r3, [r2, #0]
 80059ee:	39e0      	subs	r1, #224	; 0xe0
 80059f0:	045b      	lsls	r3, r3, #17
 80059f2:	0c5b      	lsrs	r3, r3, #17
 80059f4:	8013      	strh	r3, [r2, #0]
 80059f6:	2280      	movs	r2, #128	; 0x80
 80059f8:	4b5e      	ldr	r3, [pc, #376]	; (8005b74 <stm32_usb_request+0x364>)
 80059fa:	0612      	lsls	r2, r2, #24
 80059fc:	67da      	str	r2, [r3, #124]	; 0x7c
 80059fe:	2200      	movs	r2, #0
 8005a00:	1c3d      	adds	r5, r7, #0
 8005a02:	1c13      	adds	r3, r2, #0
 8005a04:	f7fa fbe8 	bl	80001d8 <svc_call>
 8005a08:	2400      	movs	r4, #0
 8005a0a:	353c      	adds	r5, #60	; 0x3c
 8005a0c:	682b      	ldr	r3, [r5, #0]
 8005a0e:	2b00      	cmp	r3, #0
 8005a10:	d003      	beq.n	8005a1a <stm32_usb_request+0x20a>
 8005a12:	1c38      	adds	r0, r7, #0
 8005a14:	1c21      	adds	r1, r4, #0
 8005a16:	f7ff fdf0 	bl	80055fa <stm32_usb_close_ep>
 8005a1a:	692b      	ldr	r3, [r5, #16]
 8005a1c:	2b00      	cmp	r3, #0
 8005a1e:	d004      	beq.n	8005a2a <stm32_usb_request+0x21a>
 8005a20:	2180      	movs	r1, #128	; 0x80
 8005a22:	1c38      	adds	r0, r7, #0
 8005a24:	4321      	orrs	r1, r4
 8005a26:	f7ff fde8 	bl	80055fa <stm32_usb_close_ep>
 8005a2a:	3401      	adds	r4, #1
 8005a2c:	3504      	adds	r5, #4
 8005a2e:	2c04      	cmp	r4, #4
 8005a30:	d1ec      	bne.n	8005a0c <stm32_usb_request+0x1fc>
 8005a32:	2301      	movs	r3, #1
 8005a34:	2400      	movs	r4, #0
 8005a36:	2203      	movs	r2, #3
 8005a38:	425b      	negs	r3, r3
 8005a3a:	63bb      	str	r3, [r7, #56]	; 0x38
 8005a3c:	4b4e      	ldr	r3, [pc, #312]	; (8005b78 <stm32_usb_request+0x368>)
 8005a3e:	4d4f      	ldr	r5, [pc, #316]	; (8005b7c <stm32_usb_request+0x36c>)
 8005a40:	801c      	strh	r4, [r3, #0]
 8005a42:	4b4f      	ldr	r3, [pc, #316]	; (8005b80 <stm32_usb_request+0x370>)
 8005a44:	1c38      	adds	r0, r7, #0
 8005a46:	87da      	strh	r2, [r3, #62]	; 0x3e
 8005a48:	4a4e      	ldr	r2, [pc, #312]	; (8005b84 <stm32_usb_request+0x374>)
 8005a4a:	4b4f      	ldr	r3, [pc, #316]	; (8005b88 <stm32_usb_request+0x378>)
 8005a4c:	6b91      	ldr	r1, [r2, #56]	; 0x38
 8005a4e:	400b      	ands	r3, r1
 8005a50:	6393      	str	r3, [r2, #56]	; 0x38
 8005a52:	230b      	movs	r3, #11
 8005a54:	a905      	add	r1, sp, #20
 8005a56:	9307      	str	r3, [sp, #28]
 8005a58:	9506      	str	r5, [sp, #24]
 8005a5a:	9408      	str	r4, [sp, #32]
 8005a5c:	9409      	str	r4, [sp, #36]	; 0x24
 8005a5e:	f7fe f8f5 	bl	8003c4c <stm32_gpio_request>
 8005a62:	230c      	movs	r3, #12
 8005a64:	1c38      	adds	r0, r7, #0
 8005a66:	a905      	add	r1, sp, #20
 8005a68:	9506      	str	r5, [sp, #24]
 8005a6a:	9307      	str	r3, [sp, #28]
 8005a6c:	9408      	str	r4, [sp, #32]
 8005a6e:	9409      	str	r4, [sp, #36]	; 0x24
 8005a70:	f7fe f8ec 	bl	8003c4c <stm32_gpio_request>
 8005a74:	e112      	b.n	8005c9c <stm32_usb_request+0x48c>
 8005a76:	f7ff fdc0 	bl	80055fa <stm32_usb_close_ep>
 8005a7a:	e10f      	b.n	8005c9c <stm32_usb_request+0x48c>
 8005a7c:	688b      	ldr	r3, [r1, #8]
 8005a7e:	2b00      	cmp	r3, #0
 8005a80:	d002      	beq.n	8005a88 <stm32_usb_request+0x278>
 8005a82:	305c      	adds	r0, #92	; 0x5c
 8005a84:	7003      	strb	r3, [r0, #0]
 8005a86:	e109      	b.n	8005c9c <stm32_usb_request+0x48c>
 8005a88:	2280      	movs	r2, #128	; 0x80
 8005a8a:	4b3b      	ldr	r3, [pc, #236]	; (8005b78 <stm32_usb_request+0x368>)
 8005a8c:	801a      	strh	r2, [r3, #0]
 8005a8e:	e105      	b.n	8005c9c <stm32_usb_request+0x48c>
 8005a90:	6889      	ldr	r1, [r1, #8]
 8005a92:	b289      	uxth	r1, r1
 8005a94:	f7ff fd76 	bl	8005584 <stm32_usb_ep_flush>
 8005a98:	e100      	b.n	8005c9c <stm32_usb_request+0x48c>
 8005a9a:	6889      	ldr	r1, [r1, #8]
 8005a9c:	b289      	uxth	r1, r1
 8005a9e:	f7ff fdf4 	bl	800568a <stm32_usb_ep_clear_stall>
 8005aa2:	e0fb      	b.n	8005c9c <stm32_usb_request+0x48c>
 8005aa4:	2400      	movs	r4, #0
 8005aa6:	690b      	ldr	r3, [r1, #16]
 8005aa8:	9302      	str	r3, [sp, #8]
 8005aaa:	42a3      	cmp	r3, r4
 8005aac:	da00      	bge.n	8005ab0 <stm32_usb_request+0x2a0>
 8005aae:	e0f6      	b.n	8005c9e <stm32_usb_request+0x48e>
 8005ab0:	6888      	ldr	r0, [r1, #8]
 8005ab2:	68ce      	ldr	r6, [r1, #12]
 8005ab4:	b283      	uxth	r3, r0
 8005ab6:	9300      	str	r3, [sp, #0]
 8005ab8:	680b      	ldr	r3, [r1, #0]
 8005aba:	9301      	str	r3, [sp, #4]
 8005abc:	237f      	movs	r3, #127	; 0x7f
 8005abe:	4018      	ands	r0, r3
 8005ac0:	2803      	cmp	r0, #3
 8005ac2:	d907      	bls.n	8005ad4 <stm32_usb_request+0x2c4>
 8005ac4:	21c0      	movs	r1, #192	; 0xc0
 8005ac6:	9b00      	ldr	r3, [sp, #0]
 8005ac8:	02c9      	lsls	r1, r1, #11
 8005aca:	4319      	orrs	r1, r3
 8005acc:	9801      	ldr	r0, [sp, #4]
 8005ace:	1c32      	adds	r2, r6, #0
 8005ad0:	2307      	movs	r3, #7
 8005ad2:	e017      	b.n	8005b04 <stm32_usb_request+0x2f4>
 8005ad4:	300e      	adds	r0, #14
 8005ad6:	0080      	lsls	r0, r0, #2
 8005ad8:	1838      	adds	r0, r7, r0
 8005ada:	6845      	ldr	r5, [r0, #4]
 8005adc:	2d00      	cmp	r5, #0
 8005ade:	d107      	bne.n	8005af0 <stm32_usb_request+0x2e0>
 8005ae0:	21c0      	movs	r1, #192	; 0xc0
 8005ae2:	9b00      	ldr	r3, [sp, #0]
 8005ae4:	02c9      	lsls	r1, r1, #11
 8005ae6:	4319      	orrs	r1, r3
 8005ae8:	9801      	ldr	r0, [sp, #4]
 8005aea:	1c32      	adds	r2, r6, #0
 8005aec:	2305      	movs	r3, #5
 8005aee:	e009      	b.n	8005b04 <stm32_usb_request+0x2f4>
 8005af0:	7cab      	ldrb	r3, [r5, #18]
 8005af2:	2b00      	cmp	r3, #0
 8005af4:	d008      	beq.n	8005b08 <stm32_usb_request+0x2f8>
 8005af6:	21c0      	movs	r1, #192	; 0xc0
 8005af8:	9b00      	ldr	r3, [sp, #0]
 8005afa:	02c9      	lsls	r1, r1, #11
 8005afc:	4319      	orrs	r1, r3
 8005afe:	1c32      	adds	r2, r6, #0
 8005b00:	2301      	movs	r3, #1
 8005b02:	9801      	ldr	r0, [sp, #4]
 8005b04:	425b      	negs	r3, r3
 8005b06:	e016      	b.n	8005b36 <stm32_usb_request+0x326>
 8005b08:	9b02      	ldr	r3, [sp, #8]
 8005b0a:	2b00      	cmp	r3, #0
 8005b0c:	d03e      	beq.n	8005b8c <stm32_usb_request+0x37c>
 8005b0e:	2025      	movs	r0, #37	; 0x25
 8005b10:	1c31      	adds	r1, r6, #0
 8005b12:	aa05      	add	r2, sp, #20
 8005b14:	2300      	movs	r3, #0
 8005b16:	f7fa fb5f 	bl	80001d8 <svc_call>
 8005b1a:	9c05      	ldr	r4, [sp, #20]
 8005b1c:	606c      	str	r4, [r5, #4]
 8005b1e:	2c00      	cmp	r4, #0
 8005b20:	d134      	bne.n	8005b8c <stm32_usb_request+0x37c>
 8005b22:	21c0      	movs	r1, #192	; 0xc0
 8005b24:	9b00      	ldr	r3, [sp, #0]
 8005b26:	02c9      	lsls	r1, r1, #11
 8005b28:	4319      	orrs	r1, r3
 8005b2a:	2380      	movs	r3, #128	; 0x80
 8005b2c:	1c32      	adds	r2, r6, #0
 8005b2e:	059b      	lsls	r3, r3, #22
 8005b30:	681b      	ldr	r3, [r3, #0]
 8005b32:	9801      	ldr	r0, [sp, #4]
 8005b34:	681b      	ldr	r3, [r3, #0]
 8005b36:	f7ff fbbb 	bl	80052b0 <fread_async>
 8005b3a:	e0b0      	b.n	8005c9e <stm32_usb_request+0x48e>
 8005b3c:	00001003 	.word	0x00001003
 8005b40:	00001001 	.word	0x00001001
 8005b44:	00001005 	.word	0x00001005
 8005b48:	00001006 	.word	0x00001006
 8005b4c:	00070003 	.word	0x00070003
 8005b50:	00070001 	.word	0x00070001
 8005b54:	00070002 	.word	0x00070002
 8005b58:	0007000a 	.word	0x0007000a
 8005b5c:	0007000b 	.word	0x0007000b
 8005b60:	00070004 	.word	0x00070004
 8005b64:	40006000 	.word	0x40006000
 8005b68:	ffff8000 	.word	0xffff8000
 8005b6c:	40005c00 	.word	0x40005c00
 8005b70:	40005c58 	.word	0x40005c58
 8005b74:	e000e104 	.word	0xe000e104
 8005b78:	40005c4c 	.word	0x40005c4c
 8005b7c:	00010001 	.word	0x00010001
 8005b80:	40005c02 	.word	0x40005c02
 8005b84:	40021000 	.word	0x40021000
 8005b88:	ff7fffff 	.word	0xff7fffff
 8005b8c:	9b02      	ldr	r3, [sp, #8]
 8005b8e:	21c0      	movs	r1, #192	; 0xc0
 8005b90:	60ab      	str	r3, [r5, #8]
 8005b92:	2400      	movs	r4, #0
 8005b94:	2301      	movs	r3, #1
 8005b96:	0189      	lsls	r1, r1, #6
 8005b98:	602e      	str	r6, [r5, #0]
 8005b9a:	60ec      	str	r4, [r5, #12]
 8005b9c:	74ab      	strb	r3, [r5, #18]
 8005b9e:	9800      	ldr	r0, [sp, #0]
 8005ba0:	1c0a      	adds	r2, r1, #0
 8005ba2:	f7ff fb2b 	bl	80051fc <ep_toggle_bits>
 8005ba6:	e07a      	b.n	8005c9e <stm32_usb_request+0x48e>
 8005ba8:	2400      	movs	r4, #0
 8005baa:	690b      	ldr	r3, [r1, #16]
 8005bac:	9302      	str	r3, [sp, #8]
 8005bae:	42a3      	cmp	r3, r4
 8005bb0:	db75      	blt.n	8005c9e <stm32_usb_request+0x48e>
 8005bb2:	688a      	ldr	r2, [r1, #8]
 8005bb4:	68ce      	ldr	r6, [r1, #12]
 8005bb6:	b293      	uxth	r3, r2
 8005bb8:	9300      	str	r3, [sp, #0]
 8005bba:	680b      	ldr	r3, [r1, #0]
 8005bbc:	9301      	str	r3, [sp, #4]
 8005bbe:	237f      	movs	r3, #127	; 0x7f
 8005bc0:	4013      	ands	r3, r2
 8005bc2:	2b03      	cmp	r3, #3
 8005bc4:	d907      	bls.n	8005bd6 <stm32_usb_request+0x3c6>
 8005bc6:	21c0      	movs	r1, #192	; 0xc0
 8005bc8:	9b00      	ldr	r3, [sp, #0]
 8005bca:	02c9      	lsls	r1, r1, #11
 8005bcc:	4319      	orrs	r1, r3
 8005bce:	9801      	ldr	r0, [sp, #4]
 8005bd0:	1c32      	adds	r2, r6, #0
 8005bd2:	2307      	movs	r3, #7
 8005bd4:	e00c      	b.n	8005bf0 <stm32_usb_request+0x3e0>
 8005bd6:	3312      	adds	r3, #18
 8005bd8:	009b      	lsls	r3, r3, #2
 8005bda:	18c3      	adds	r3, r0, r3
 8005bdc:	685d      	ldr	r5, [r3, #4]
 8005bde:	2d00      	cmp	r5, #0
 8005be0:	d108      	bne.n	8005bf4 <stm32_usb_request+0x3e4>
 8005be2:	21c0      	movs	r1, #192	; 0xc0
 8005be4:	9b00      	ldr	r3, [sp, #0]
 8005be6:	02c9      	lsls	r1, r1, #11
 8005be8:	4319      	orrs	r1, r3
 8005bea:	1c32      	adds	r2, r6, #0
 8005bec:	2305      	movs	r3, #5
 8005bee:	9801      	ldr	r0, [sp, #4]
 8005bf0:	425b      	negs	r3, r3
 8005bf2:	e024      	b.n	8005c3e <stm32_usb_request+0x42e>
 8005bf4:	7cab      	ldrb	r3, [r5, #18]
 8005bf6:	2b00      	cmp	r3, #0
 8005bf8:	d00a      	beq.n	8005c10 <stm32_usb_request+0x400>
 8005bfa:	21c0      	movs	r1, #192	; 0xc0
 8005bfc:	9b00      	ldr	r3, [sp, #0]
 8005bfe:	02c9      	lsls	r1, r1, #11
 8005c00:	4319      	orrs	r1, r3
 8005c02:	2301      	movs	r3, #1
 8005c04:	9801      	ldr	r0, [sp, #4]
 8005c06:	1c32      	adds	r2, r6, #0
 8005c08:	425b      	negs	r3, r3
 8005c0a:	f7ff fb37 	bl	800527c <fwrite_async>
 8005c0e:	e03d      	b.n	8005c8c <stm32_usb_request+0x47c>
 8005c10:	9b02      	ldr	r3, [sp, #8]
 8005c12:	2b00      	cmp	r3, #0
 8005c14:	d016      	beq.n	8005c44 <stm32_usb_request+0x434>
 8005c16:	2025      	movs	r0, #37	; 0x25
 8005c18:	1c31      	adds	r1, r6, #0
 8005c1a:	aa05      	add	r2, sp, #20
 8005c1c:	2300      	movs	r3, #0
 8005c1e:	f7fa fadb 	bl	80001d8 <svc_call>
 8005c22:	9c05      	ldr	r4, [sp, #20]
 8005c24:	606c      	str	r4, [r5, #4]
 8005c26:	2c00      	cmp	r4, #0
 8005c28:	d10c      	bne.n	8005c44 <stm32_usb_request+0x434>
 8005c2a:	21c0      	movs	r1, #192	; 0xc0
 8005c2c:	9b00      	ldr	r3, [sp, #0]
 8005c2e:	02c9      	lsls	r1, r1, #11
 8005c30:	4319      	orrs	r1, r3
 8005c32:	2380      	movs	r3, #128	; 0x80
 8005c34:	1c32      	adds	r2, r6, #0
 8005c36:	059b      	lsls	r3, r3, #22
 8005c38:	681b      	ldr	r3, [r3, #0]
 8005c3a:	9801      	ldr	r0, [sp, #4]
 8005c3c:	681b      	ldr	r3, [r3, #0]
 8005c3e:	f7ff fb1d 	bl	800527c <fwrite_async>
 8005c42:	e02c      	b.n	8005c9e <stm32_usb_request+0x48e>
 8005c44:	9b02      	ldr	r3, [sp, #8]
 8005c46:	602e      	str	r6, [r5, #0]
 8005c48:	60ab      	str	r3, [r5, #8]
 8005c4a:	2300      	movs	r3, #0
 8005c4c:	1c38      	adds	r0, r7, #0
 8005c4e:	60eb      	str	r3, [r5, #12]
 8005c50:	9900      	ldr	r1, [sp, #0]
 8005c52:	f7ff faf3 	bl	800523c <stm32_usb_tx>
 8005c56:	68eb      	ldr	r3, [r5, #12]
 8005c58:	68aa      	ldr	r2, [r5, #8]
 8005c5a:	4293      	cmp	r3, r2
 8005c5c:	d309      	bcc.n	8005c72 <stm32_usb_request+0x462>
 8005c5e:	21c0      	movs	r1, #192	; 0xc0
 8005c60:	9b00      	ldr	r3, [sp, #0]
 8005c62:	02c9      	lsls	r1, r1, #11
 8005c64:	4319      	orrs	r1, r3
 8005c66:	9801      	ldr	r0, [sp, #4]
 8005c68:	1c32      	adds	r2, r6, #0
 8005c6a:	9b02      	ldr	r3, [sp, #8]
 8005c6c:	f7ff fb06 	bl	800527c <fwrite_async>
 8005c70:	e001      	b.n	8005c76 <stm32_usb_request+0x466>
 8005c72:	2301      	movs	r3, #1
 8005c74:	74ab      	strb	r3, [r5, #18]
 8005c76:	2130      	movs	r1, #48	; 0x30
 8005c78:	9800      	ldr	r0, [sp, #0]
 8005c7a:	1c0a      	adds	r2, r1, #0
 8005c7c:	f7ff fabe 	bl	80051fc <ep_toggle_bits>
 8005c80:	e004      	b.n	8005c8c <stm32_usb_request+0x47c>
 8005c82:	4808      	ldr	r0, [pc, #32]	; (8005ca4 <stm32_usb_request+0x494>)
 8005c84:	e000      	b.n	8005c88 <stm32_usb_request+0x478>
 8005c86:	4808      	ldr	r0, [pc, #32]	; (8005ca8 <stm32_usb_request+0x498>)
 8005c88:	f7fd fba0 	bl	80033cc <printd>
 8005c8c:	2400      	movs	r4, #0
 8005c8e:	e006      	b.n	8005c9e <stm32_usb_request+0x48e>
 8005c90:	2380      	movs	r3, #128	; 0x80
 8005c92:	2202      	movs	r2, #2
 8005c94:	059b      	lsls	r3, r3, #22
 8005c96:	681b      	ldr	r3, [r3, #0]
 8005c98:	4252      	negs	r2, r2
 8005c9a:	601a      	str	r2, [r3, #0]
 8005c9c:	2401      	movs	r4, #1
 8005c9e:	1c20      	adds	r0, r4, #0
 8005ca0:	b00b      	add	sp, #44	; 0x2c
 8005ca2:	bdf0      	pop	{r4, r5, r6, r7, pc}
 8005ca4:	08008740 	.word	0x08008740
 8005ca8:	08008756 	.word	0x08008756

08005cac <stm32_adc_request>:
 8005cac:	b530      	push	{r4, r5, lr}
 8005cae:	684b      	ldr	r3, [r1, #4]
 8005cb0:	4a7c      	ldr	r2, [pc, #496]	; (8005ea4 <stm32_adc_request+0x1f8>)
 8005cb2:	b087      	sub	sp, #28
 8005cb4:	4293      	cmp	r3, r2
 8005cb6:	d100      	bne.n	8005cba <stm32_adc_request+0xe>
 8005cb8:	e09f      	b.n	8005dfa <stm32_adc_request+0x14e>
 8005cba:	2280      	movs	r2, #128	; 0x80
 8005cbc:	0312      	lsls	r2, r2, #12
 8005cbe:	4293      	cmp	r3, r2
 8005cc0:	d004      	beq.n	8005ccc <stm32_adc_request+0x20>
 8005cc2:	4a79      	ldr	r2, [pc, #484]	; (8005ea8 <stm32_adc_request+0x1fc>)
 8005cc4:	4293      	cmp	r3, r2
 8005cc6:	d000      	beq.n	8005cca <stm32_adc_request+0x1e>
 8005cc8:	e0e3      	b.n	8005e92 <stm32_adc_request+0x1e6>
 8005cca:	e030      	b.n	8005d2e <stm32_adc_request+0x82>
 8005ccc:	688a      	ldr	r2, [r1, #8]
 8005cce:	b2d3      	uxtb	r3, r2
 8005cd0:	2b12      	cmp	r3, #18
 8005cd2:	d904      	bls.n	8005cde <stm32_adc_request+0x32>
 8005cd4:	2380      	movs	r3, #128	; 0x80
 8005cd6:	059b      	lsls	r3, r3, #22
 8005cd8:	681b      	ldr	r3, [r3, #0]
 8005cda:	2207      	movs	r2, #7
 8005cdc:	e00e      	b.n	8005cfc <stm32_adc_request+0x50>
 8005cde:	1c03      	adds	r3, r0, #0
 8005ce0:	3337      	adds	r3, #55	; 0x37
 8005ce2:	781b      	ldrb	r3, [r3, #0]
 8005ce4:	2b00      	cmp	r3, #0
 8005ce6:	d005      	beq.n	8005cf4 <stm32_adc_request+0x48>
 8005ce8:	b2d2      	uxtb	r2, r2
 8005cea:	1880      	adds	r0, r0, r2
 8005cec:	3005      	adds	r0, #5
 8005cee:	7fc0      	ldrb	r0, [r0, #31]
 8005cf0:	28ff      	cmp	r0, #255	; 0xff
 8005cf2:	d108      	bne.n	8005d06 <stm32_adc_request+0x5a>
 8005cf4:	2380      	movs	r3, #128	; 0x80
 8005cf6:	2205      	movs	r2, #5
 8005cf8:	059b      	lsls	r3, r3, #22
 8005cfa:	681b      	ldr	r3, [r3, #0]
 8005cfc:	4252      	negs	r2, r2
 8005cfe:	601a      	str	r2, [r3, #0]
 8005d00:	2301      	movs	r3, #1
 8005d02:	425b      	negs	r3, r3
 8005d04:	e011      	b.n	8005d2a <stm32_adc_request+0x7e>
 8005d06:	4b69      	ldr	r3, [pc, #420]	; (8005eac <stm32_adc_request+0x200>)
 8005d08:	6158      	str	r0, [r3, #20]
 8005d0a:	2001      	movs	r0, #1
 8005d0c:	4090      	lsls	r0, r2
 8005d0e:	6298      	str	r0, [r3, #40]	; 0x28
 8005d10:	2004      	movs	r0, #4
 8005d12:	689a      	ldr	r2, [r3, #8]
 8005d14:	4302      	orrs	r2, r0
 8005d16:	609a      	str	r2, [r3, #8]
 8005d18:	2004      	movs	r0, #4
 8005d1a:	681c      	ldr	r4, [r3, #0]
 8005d1c:	4a63      	ldr	r2, [pc, #396]	; (8005eac <stm32_adc_request+0x200>)
 8005d1e:	4204      	tst	r4, r0
 8005d20:	d0fa      	beq.n	8005d18 <stm32_adc_request+0x6c>
 8005d22:	6813      	ldr	r3, [r2, #0]
 8005d24:	4303      	orrs	r3, r0
 8005d26:	6013      	str	r3, [r2, #0]
 8005d28:	6c13      	ldr	r3, [r2, #64]	; 0x40
 8005d2a:	60cb      	str	r3, [r1, #12]
 8005d2c:	e0b7      	b.n	8005e9e <stm32_adc_request+0x1f2>
 8005d2e:	688b      	ldr	r3, [r1, #8]
 8005d30:	b29a      	uxth	r2, r3
 8005d32:	2a13      	cmp	r2, #19
 8005d34:	d125      	bne.n	8005d82 <stm32_adc_request+0xd6>
 8005d36:	3037      	adds	r0, #55	; 0x37
 8005d38:	7803      	ldrb	r3, [r0, #0]
 8005d3a:	2b00      	cmp	r3, #0
 8005d3c:	d004      	beq.n	8005d48 <stm32_adc_request+0x9c>
 8005d3e:	2380      	movs	r3, #128	; 0x80
 8005d40:	059b      	lsls	r3, r3, #22
 8005d42:	681b      	ldr	r3, [r3, #0]
 8005d44:	3a19      	subs	r2, #25
 8005d46:	e0a9      	b.n	8005e9c <stm32_adc_request+0x1f0>
 8005d48:	2180      	movs	r1, #128	; 0x80
 8005d4a:	4a59      	ldr	r2, [pc, #356]	; (8005eb0 <stm32_adc_request+0x204>)
 8005d4c:	0089      	lsls	r1, r1, #2
 8005d4e:	6b53      	ldr	r3, [r2, #52]	; 0x34
 8005d50:	430b      	orrs	r3, r1
 8005d52:	6353      	str	r3, [r2, #52]	; 0x34
 8005d54:	2280      	movs	r2, #128	; 0x80
 8005d56:	4b55      	ldr	r3, [pc, #340]	; (8005eac <stm32_adc_request+0x200>)
 8005d58:	05d2      	lsls	r2, r2, #23
 8005d5a:	611a      	str	r2, [r3, #16]
 8005d5c:	2280      	movs	r2, #128	; 0x80
 8005d5e:	0612      	lsls	r2, r2, #24
 8005d60:	609a      	str	r2, [r3, #8]
 8005d62:	689a      	ldr	r2, [r3, #8]
 8005d64:	2a00      	cmp	r2, #0
 8005d66:	dbfc      	blt.n	8005d62 <stm32_adc_request+0xb6>
 8005d68:	2101      	movs	r1, #1
 8005d6a:	4a50      	ldr	r2, [pc, #320]	; (8005eac <stm32_adc_request+0x200>)
 8005d6c:	6091      	str	r1, [r2, #8]
 8005d6e:	2201      	movs	r2, #1
 8005d70:	6819      	ldr	r1, [r3, #0]
 8005d72:	4211      	tst	r1, r2
 8005d74:	d0fb      	beq.n	8005d6e <stm32_adc_request+0xc2>
 8005d76:	21c0      	movs	r1, #192	; 0xc0
 8005d78:	4b4c      	ldr	r3, [pc, #304]	; (8005eac <stm32_adc_request+0x200>)
 8005d7a:	0209      	lsls	r1, r1, #8
 8005d7c:	60d9      	str	r1, [r3, #12]
 8005d7e:	7002      	strb	r2, [r0, #0]
 8005d80:	e08d      	b.n	8005e9e <stm32_adc_request+0x1f2>
 8005d82:	b2da      	uxtb	r2, r3
 8005d84:	68cc      	ldr	r4, [r1, #12]
 8005d86:	2a12      	cmp	r2, #18
 8005d88:	d856      	bhi.n	8005e38 <stm32_adc_request+0x18c>
 8005d8a:	1c01      	adds	r1, r0, #0
 8005d8c:	3137      	adds	r1, #55	; 0x37
 8005d8e:	7809      	ldrb	r1, [r1, #0]
 8005d90:	2900      	cmp	r1, #0
 8005d92:	d104      	bne.n	8005d9e <stm32_adc_request+0xf2>
 8005d94:	2380      	movs	r3, #128	; 0x80
 8005d96:	059b      	lsls	r3, r3, #22
 8005d98:	681b      	ldr	r3, [r3, #0]
 8005d9a:	2205      	movs	r2, #5
 8005d9c:	e07d      	b.n	8005e9a <stm32_adc_request+0x1ee>
 8005d9e:	b2db      	uxtb	r3, r3
 8005da0:	18c1      	adds	r1, r0, r3
 8005da2:	3105      	adds	r1, #5
 8005da4:	7fcd      	ldrb	r5, [r1, #31]
 8005da6:	2dff      	cmp	r5, #255	; 0xff
 8005da8:	d152      	bne.n	8005e50 <stm32_adc_request+0x1a4>
 8005daa:	77cc      	strb	r4, [r1, #31]
 8005dac:	2a11      	cmp	r2, #17
 8005dae:	d013      	beq.n	8005dd8 <stm32_adc_request+0x12c>
 8005db0:	2a12      	cmp	r2, #18
 8005db2:	d006      	beq.n	8005dc2 <stm32_adc_request+0x116>
 8005db4:	2a10      	cmp	r2, #16
 8005db6:	d116      	bne.n	8005de6 <stm32_adc_request+0x13a>
 8005db8:	2180      	movs	r1, #128	; 0x80
 8005dba:	4a3e      	ldr	r2, [pc, #248]	; (8005eb4 <stm32_adc_request+0x208>)
 8005dbc:	0449      	lsls	r1, r1, #17
 8005dbe:	6813      	ldr	r3, [r2, #0]
 8005dc0:	e00e      	b.n	8005de0 <stm32_adc_request+0x134>
 8005dc2:	2180      	movs	r1, #128	; 0x80
 8005dc4:	4b3b      	ldr	r3, [pc, #236]	; (8005eb4 <stm32_adc_request+0x208>)
 8005dc6:	0449      	lsls	r1, r1, #17
 8005dc8:	681a      	ldr	r2, [r3, #0]
 8005dca:	430a      	orrs	r2, r1
 8005dcc:	2180      	movs	r1, #128	; 0x80
 8005dce:	601a      	str	r2, [r3, #0]
 8005dd0:	681a      	ldr	r2, [r3, #0]
 8005dd2:	0409      	lsls	r1, r1, #16
 8005dd4:	430a      	orrs	r2, r1
 8005dd6:	e061      	b.n	8005e9c <stm32_adc_request+0x1f0>
 8005dd8:	2180      	movs	r1, #128	; 0x80
 8005dda:	4a36      	ldr	r2, [pc, #216]	; (8005eb4 <stm32_adc_request+0x208>)
 8005ddc:	03c9      	lsls	r1, r1, #15
 8005dde:	6813      	ldr	r3, [r2, #0]
 8005de0:	430b      	orrs	r3, r1
 8005de2:	6013      	str	r3, [r2, #0]
 8005de4:	e05b      	b.n	8005e9e <stm32_adc_request+0x1f2>
 8005de6:	4a34      	ldr	r2, [pc, #208]	; (8005eb8 <stm32_adc_request+0x20c>)
 8005de8:	5cd3      	ldrb	r3, [r2, r3]
 8005dea:	2280      	movs	r2, #128	; 0x80
 8005dec:	9303      	str	r3, [sp, #12]
 8005dee:	2303      	movs	r3, #3
 8005df0:	0252      	lsls	r2, r2, #9
 8005df2:	9304      	str	r3, [sp, #16]
 8005df4:	9202      	str	r2, [sp, #8]
 8005df6:	2300      	movs	r3, #0
 8005df8:	e039      	b.n	8005e6e <stm32_adc_request+0x1c2>
 8005dfa:	688b      	ldr	r3, [r1, #8]
 8005dfc:	b29a      	uxth	r2, r3
 8005dfe:	2a13      	cmp	r2, #19
 8005e00:	d117      	bne.n	8005e32 <stm32_adc_request+0x186>
 8005e02:	3037      	adds	r0, #55	; 0x37
 8005e04:	7803      	ldrb	r3, [r0, #0]
 8005e06:	2b00      	cmp	r3, #0
 8005e08:	d104      	bne.n	8005e14 <stm32_adc_request+0x168>
 8005e0a:	2380      	movs	r3, #128	; 0x80
 8005e0c:	059b      	lsls	r3, r3, #22
 8005e0e:	681b      	ldr	r3, [r3, #0]
 8005e10:	3a18      	subs	r2, #24
 8005e12:	e043      	b.n	8005e9c <stm32_adc_request+0x1f0>
 8005e14:	2202      	movs	r2, #2
 8005e16:	4b25      	ldr	r3, [pc, #148]	; (8005eac <stm32_adc_request+0x200>)
 8005e18:	609a      	str	r2, [r3, #8]
 8005e1a:	1c1a      	adds	r2, r3, #0
 8005e1c:	2302      	movs	r3, #2
 8005e1e:	6811      	ldr	r1, [r2, #0]
 8005e20:	400b      	ands	r3, r1
 8005e22:	d1fb      	bne.n	8005e1c <stm32_adc_request+0x170>
 8005e24:	4922      	ldr	r1, [pc, #136]	; (8005eb0 <stm32_adc_request+0x204>)
 8005e26:	4a25      	ldr	r2, [pc, #148]	; (8005ebc <stm32_adc_request+0x210>)
 8005e28:	6b4c      	ldr	r4, [r1, #52]	; 0x34
 8005e2a:	4022      	ands	r2, r4
 8005e2c:	634a      	str	r2, [r1, #52]	; 0x34
 8005e2e:	7003      	strb	r3, [r0, #0]
 8005e30:	e035      	b.n	8005e9e <stm32_adc_request+0x1f2>
 8005e32:	b2da      	uxtb	r2, r3
 8005e34:	2a12      	cmp	r2, #18
 8005e36:	d904      	bls.n	8005e42 <stm32_adc_request+0x196>
 8005e38:	2380      	movs	r3, #128	; 0x80
 8005e3a:	059b      	lsls	r3, r3, #22
 8005e3c:	681b      	ldr	r3, [r3, #0]
 8005e3e:	2207      	movs	r2, #7
 8005e40:	e02b      	b.n	8005e9a <stm32_adc_request+0x1ee>
 8005e42:	24ff      	movs	r4, #255	; 0xff
 8005e44:	4023      	ands	r3, r4
 8005e46:	18c1      	adds	r1, r0, r3
 8005e48:	3105      	adds	r1, #5
 8005e4a:	7fcd      	ldrb	r5, [r1, #31]
 8005e4c:	42a5      	cmp	r5, r4
 8005e4e:	d104      	bne.n	8005e5a <stm32_adc_request+0x1ae>
 8005e50:	2380      	movs	r3, #128	; 0x80
 8005e52:	059b      	lsls	r3, r3, #22
 8005e54:	681b      	ldr	r3, [r3, #0]
 8005e56:	2206      	movs	r2, #6
 8005e58:	e01f      	b.n	8005e9a <stm32_adc_request+0x1ee>
 8005e5a:	77cc      	strb	r4, [r1, #31]
 8005e5c:	2a0f      	cmp	r2, #15
 8005e5e:	d80b      	bhi.n	8005e78 <stm32_adc_request+0x1cc>
 8005e60:	4a15      	ldr	r2, [pc, #84]	; (8005eb8 <stm32_adc_request+0x20c>)
 8005e62:	5cd3      	ldrb	r3, [r2, r3]
 8005e64:	4a16      	ldr	r2, [pc, #88]	; (8005ec0 <stm32_adc_request+0x214>)
 8005e66:	9303      	str	r3, [sp, #12]
 8005e68:	2300      	movs	r3, #0
 8005e6a:	9202      	str	r2, [sp, #8]
 8005e6c:	9304      	str	r3, [sp, #16]
 8005e6e:	a901      	add	r1, sp, #4
 8005e70:	9305      	str	r3, [sp, #20]
 8005e72:	f7fd feeb 	bl	8003c4c <stm32_gpio_request>
 8005e76:	e012      	b.n	8005e9e <stm32_adc_request+0x1f2>
 8005e78:	4b0e      	ldr	r3, [pc, #56]	; (8005eb4 <stm32_adc_request+0x208>)
 8005e7a:	6819      	ldr	r1, [r3, #0]
 8005e7c:	2a11      	cmp	r2, #17
 8005e7e:	d003      	beq.n	8005e88 <stm32_adc_request+0x1dc>
 8005e80:	2a12      	cmp	r2, #18
 8005e82:	d103      	bne.n	8005e8c <stm32_adc_request+0x1e0>
 8005e84:	4a0f      	ldr	r2, [pc, #60]	; (8005ec4 <stm32_adc_request+0x218>)
 8005e86:	e002      	b.n	8005e8e <stm32_adc_request+0x1e2>
 8005e88:	4a0f      	ldr	r2, [pc, #60]	; (8005ec8 <stm32_adc_request+0x21c>)
 8005e8a:	e000      	b.n	8005e8e <stm32_adc_request+0x1e2>
 8005e8c:	4a0f      	ldr	r2, [pc, #60]	; (8005ecc <stm32_adc_request+0x220>)
 8005e8e:	400a      	ands	r2, r1
 8005e90:	e004      	b.n	8005e9c <stm32_adc_request+0x1f0>
 8005e92:	2380      	movs	r3, #128	; 0x80
 8005e94:	2202      	movs	r2, #2
 8005e96:	059b      	lsls	r3, r3, #22
 8005e98:	681b      	ldr	r3, [r3, #0]
 8005e9a:	4252      	negs	r2, r2
 8005e9c:	601a      	str	r2, [r3, #0]
 8005e9e:	2001      	movs	r0, #1
 8005ea0:	b007      	add	sp, #28
 8005ea2:	bd30      	pop	{r4, r5, pc}
 8005ea4:	00001006 	.word	0x00001006
 8005ea8:	00001005 	.word	0x00001005
 8005eac:	40012400 	.word	0x40012400
 8005eb0:	40021000 	.word	0x40021000
 8005eb4:	40012708 	.word	0x40012708
 8005eb8:	08008774 	.word	0x08008774
 8005ebc:	fffffdff 	.word	0xfffffdff
 8005ec0:	00010001 	.word	0x00010001
 8005ec4:	ff7fffff 	.word	0xff7fffff
 8005ec8:	ffbfffff 	.word	0xffbfffff
 8005ecc:	feffffff 	.word	0xfeffffff

08005ed0 <stm32_adc_init>:
 8005ed0:	1c03      	adds	r3, r0, #0
 8005ed2:	2200      	movs	r2, #0
 8005ed4:	3337      	adds	r3, #55	; 0x37
 8005ed6:	701a      	strb	r2, [r3, #0]
 8005ed8:	3024      	adds	r0, #36	; 0x24
 8005eda:	22ff      	movs	r2, #255	; 0xff
 8005edc:	7002      	strb	r2, [r0, #0]
 8005ede:	3001      	adds	r0, #1
 8005ee0:	4283      	cmp	r3, r0
 8005ee2:	d1fa      	bne.n	8005eda <stm32_adc_init+0xa>
 8005ee4:	4770      	bx	lr

08005ee6 <free>:
 8005ee6:	b508      	push	{r3, lr}
 8005ee8:	2380      	movs	r3, #128	; 0x80
 8005eea:	059b      	lsls	r3, r3, #22
 8005eec:	689a      	ldr	r2, [r3, #8]
 8005eee:	1c01      	adds	r1, r0, #0
 8005ef0:	6812      	ldr	r2, [r2, #0]
 8005ef2:	6818      	ldr	r0, [r3, #0]
 8005ef4:	6953      	ldr	r3, [r2, #20]
 8005ef6:	3008      	adds	r0, #8
 8005ef8:	4798      	blx	r3
 8005efa:	bd08      	pop	{r3, pc}

08005efc <array_create>:
 8005efc:	b508      	push	{r3, lr}
 8005efe:	2380      	movs	r3, #128	; 0x80
 8005f00:	059b      	lsls	r3, r3, #22
 8005f02:	689b      	ldr	r3, [r3, #8]
 8005f04:	691b      	ldr	r3, [r3, #16]
 8005f06:	681b      	ldr	r3, [r3, #0]
 8005f08:	4798      	blx	r3
 8005f0a:	bd08      	pop	{r3, pc}

08005f0c <array_at>:
 8005f0c:	b508      	push	{r3, lr}
 8005f0e:	2380      	movs	r3, #128	; 0x80
 8005f10:	059b      	lsls	r3, r3, #22
 8005f12:	689b      	ldr	r3, [r3, #8]
 8005f14:	691b      	ldr	r3, [r3, #16]
 8005f16:	689b      	ldr	r3, [r3, #8]
 8005f18:	4798      	blx	r3
 8005f1a:	bd08      	pop	{r3, pc}

08005f1c <array_size>:
 8005f1c:	b508      	push	{r3, lr}
 8005f1e:	2380      	movs	r3, #128	; 0x80
 8005f20:	059b      	lsls	r3, r3, #22
 8005f22:	689b      	ldr	r3, [r3, #8]
 8005f24:	691b      	ldr	r3, [r3, #16]
 8005f26:	68db      	ldr	r3, [r3, #12]
 8005f28:	4798      	blx	r3
 8005f2a:	bd08      	pop	{r3, pc}

08005f2c <array_append>:
 8005f2c:	b508      	push	{r3, lr}
 8005f2e:	2380      	movs	r3, #128	; 0x80
 8005f30:	059b      	lsls	r3, r3, #22
 8005f32:	689b      	ldr	r3, [r3, #8]
 8005f34:	691b      	ldr	r3, [r3, #16]
 8005f36:	691b      	ldr	r3, [r3, #16]
 8005f38:	4798      	blx	r3
 8005f3a:	bd08      	pop	{r3, pc}

08005f3c <usbd_stub_class_state_change>:
 8005f3c:	4770      	bx	lr

08005f3e <free_if_own>:
 8005f3e:	b508      	push	{r3, lr}
 8005f40:	2380      	movs	r3, #128	; 0x80
 8005f42:	059b      	lsls	r3, r3, #22
 8005f44:	681b      	ldr	r3, [r3, #0]
 8005f46:	4298      	cmp	r0, r3
 8005f48:	d306      	bcc.n	8005f58 <free_if_own+0x1a>
 8005f4a:	22c8      	movs	r2, #200	; 0xc8
 8005f4c:	0092      	lsls	r2, r2, #2
 8005f4e:	189b      	adds	r3, r3, r2
 8005f50:	4298      	cmp	r0, r3
 8005f52:	d201      	bcs.n	8005f58 <free_if_own+0x1a>
 8005f54:	f7ff ffc7 	bl	8005ee6 <free>
 8005f58:	bd08      	pop	{r3, pc}
 8005f5a:	0000      	movs	r0, r0

08005f5c <usbd_stub_class_setup>:
 8005f5c:	b508      	push	{r3, lr}
 8005f5e:	4803      	ldr	r0, [pc, #12]	; (8005f6c <usbd_stub_class_setup+0x10>)
 8005f60:	f7fd fa25 	bl	80033ae <printf>
 8005f64:	2001      	movs	r0, #1
 8005f66:	4240      	negs	r0, r0
 8005f68:	bd08      	pop	{r3, pc}
 8005f6a:	46c0      	nop			; (mov r8, r8)
 8005f6c:	0800879c 	.word	0x0800879c

08005f70 <usbd_stub_class_request>:
 8005f70:	b508      	push	{r3, lr}
 8005f72:	4802      	ldr	r0, [pc, #8]	; (8005f7c <usbd_stub_class_request+0xc>)
 8005f74:	f7fd fa1b 	bl	80033ae <printf>
 8005f78:	2001      	movs	r0, #1
 8005f7a:	bd08      	pop	{r3, pc}
 8005f7c:	080087b5 	.word	0x080087b5

08005f80 <ipc_post>:
 8005f80:	2200      	movs	r2, #0
 8005f82:	b508      	push	{r3, lr}
 8005f84:	1c01      	adds	r1, r0, #0
 8005f86:	1c13      	adds	r3, r2, #0
 8005f88:	2014      	movs	r0, #20
 8005f8a:	f7fa f925 	bl	80001d8 <svc_call>
 8005f8e:	bd08      	pop	{r3, pc}

08005f90 <ipc_call_ms.constprop.13>:
 8005f90:	2380      	movs	r3, #128	; 0x80
 8005f92:	b513      	push	{r0, r1, r4, lr}
 8005f94:	1c04      	adds	r4, r0, #0
 8005f96:	059b      	lsls	r3, r3, #22
 8005f98:	689b      	ldr	r3, [r3, #8]
 8005f9a:	4669      	mov	r1, sp
 8005f9c:	689b      	ldr	r3, [r3, #8]
 8005f9e:	2000      	movs	r0, #0
 8005fa0:	699b      	ldr	r3, [r3, #24]
 8005fa2:	4798      	blx	r3
 8005fa4:	2016      	movs	r0, #22
 8005fa6:	1c21      	adds	r1, r4, #0
 8005fa8:	466a      	mov	r2, sp
 8005faa:	2300      	movs	r3, #0
 8005fac:	f7fa f914 	bl	80001d8 <svc_call>
 8005fb0:	bd13      	pop	{r0, r1, r4, pc}

08005fb2 <ack.constprop.11>:
 8005fb2:	b57f      	push	{r0, r1, r2, r3, r4, r5, r6, lr}
 8005fb4:	2300      	movs	r3, #0
 8005fb6:	9001      	str	r0, [sp, #4]
 8005fb8:	a801      	add	r0, sp, #4
 8005fba:	9102      	str	r1, [sp, #8]
 8005fbc:	9203      	str	r2, [sp, #12]
 8005fbe:	9304      	str	r3, [sp, #16]
 8005fc0:	9305      	str	r3, [sp, #20]
 8005fc2:	f7ff ffe5 	bl	8005f90 <ipc_call_ms.constprop.13>
 8005fc6:	2001      	movs	r0, #1
 8005fc8:	b007      	add	sp, #28
 8005fca:	bd00      	pop	{pc}

08005fcc <fflush>:
 8005fcc:	b57f      	push	{r0, r1, r2, r3, r4, r5, r6, lr}
 8005fce:	4b05      	ldr	r3, [pc, #20]	; (8005fe4 <fflush+0x18>)
 8005fd0:	9001      	str	r0, [sp, #4]
 8005fd2:	a801      	add	r0, sp, #4
 8005fd4:	9302      	str	r3, [sp, #8]
 8005fd6:	9103      	str	r1, [sp, #12]
 8005fd8:	f7ff ffda 	bl	8005f90 <ipc_call_ms.constprop.13>
 8005fdc:	2001      	movs	r0, #1
 8005fde:	b007      	add	sp, #28
 8005fe0:	bd00      	pop	{pc}
 8005fe2:	46c0      	nop			; (mov r8, r8)
 8005fe4:	00001003 	.word	0x00001003

08005fe8 <fclose>:
 8005fe8:	b57f      	push	{r0, r1, r2, r3, r4, r5, r6, lr}
 8005fea:	4b05      	ldr	r3, [pc, #20]	; (8006000 <fclose+0x18>)
 8005fec:	9001      	str	r0, [sp, #4]
 8005fee:	a801      	add	r0, sp, #4
 8005ff0:	9302      	str	r3, [sp, #8]
 8005ff2:	9103      	str	r1, [sp, #12]
 8005ff4:	f7ff ffcc 	bl	8005f90 <ipc_call_ms.constprop.13>
 8005ff8:	2001      	movs	r0, #1
 8005ffa:	b007      	add	sp, #28
 8005ffc:	bd00      	pop	{pc}
 8005ffe:	46c0      	nop			; (mov r8, r8)
 8006000:	00001006 	.word	0x00001006

08006004 <fwrite_async.constprop.5>:
 8006004:	b57f      	push	{r0, r1, r2, r3, r4, r5, r6, lr}
 8006006:	1c03      	adds	r3, r0, #0
 8006008:	4809      	ldr	r0, [pc, #36]	; (8006030 <fwrite_async.constprop.5+0x2c>)
 800600a:	9301      	str	r3, [sp, #4]
 800600c:	9002      	str	r0, [sp, #8]
 800600e:	4809      	ldr	r0, [pc, #36]	; (8006034 <fwrite_async.constprop.5+0x30>)
 8006010:	9104      	str	r1, [sp, #16]
 8006012:	9003      	str	r0, [sp, #12]
 8006014:	9205      	str	r2, [sp, #20]
 8006016:	1c4a      	adds	r2, r1, #1
 8006018:	d005      	beq.n	8006026 <fwrite_async.constprop.5+0x22>
 800601a:	1c1a      	adds	r2, r3, #0
 800601c:	2029      	movs	r0, #41	; 0x29
 800601e:	ab01      	add	r3, sp, #4
 8006020:	f7fa f8da 	bl	80001d8 <svc_call>
 8006024:	e002      	b.n	800602c <fwrite_async.constprop.5+0x28>
 8006026:	a801      	add	r0, sp, #4
 8006028:	f7ff ffaa 	bl	8005f80 <ipc_post>
 800602c:	b007      	add	sp, #28
 800602e:	bd00      	pop	{pc}
 8006030:	00001001 	.word	0x00001001
 8006034:	00060080 	.word	0x00060080

08006038 <usbd_inform>:
 8006038:	b57f      	push	{r0, r1, r2, r3, r4, r5, r6, lr}
 800603a:	6880      	ldr	r0, [r0, #8]
 800603c:	1c43      	adds	r3, r0, #1
 800603e:	d014      	beq.n	800606a <usbd_inform+0x32>
 8006040:	1c13      	adds	r3, r2, #0
 8006042:	1c0a      	adds	r2, r1, #0
 8006044:	2b00      	cmp	r3, #0
 8006046:	d004      	beq.n	8006052 <usbd_inform+0x1a>
 8006048:	21f0      	movs	r1, #240	; 0xf0
 800604a:	0309      	lsls	r1, r1, #12
 800604c:	f7ff ffb1 	bl	8005fb2 <ack.constprop.11>
 8006050:	e00b      	b.n	800606a <usbd_inform+0x32>
 8006052:	21f0      	movs	r1, #240	; 0xf0
 8006054:	0309      	lsls	r1, r1, #12
 8006056:	9001      	str	r0, [sp, #4]
 8006058:	9102      	str	r1, [sp, #8]
 800605a:	9203      	str	r2, [sp, #12]
 800605c:	2014      	movs	r0, #20
 800605e:	a901      	add	r1, sp, #4
 8006060:	1c1a      	adds	r2, r3, #0
 8006062:	9304      	str	r3, [sp, #16]
 8006064:	9305      	str	r3, [sp, #20]
 8006066:	f7fa f8b7 	bl	80001d8 <svc_call>
 800606a:	b007      	add	sp, #28
 800606c:	bd00      	pop	{pc}

0800606e <usbd_class_reset>:
 800606e:	b570      	push	{r4, r5, r6, lr}
 8006070:	1c04      	adds	r4, r0, #0
 8006072:	2500      	movs	r5, #0
 8006074:	1c23      	adds	r3, r4, #0
 8006076:	3330      	adds	r3, #48	; 0x30
 8006078:	781a      	ldrb	r2, [r3, #0]
 800607a:	4295      	cmp	r5, r2
 800607c:	da0f      	bge.n	800609e <usbd_class_reset+0x30>
 800607e:	1c29      	adds	r1, r5, #0
 8006080:	6aa0      	ldr	r0, [r4, #40]	; 0x28
 8006082:	f7ff ff43 	bl	8005f0c <array_at>
 8006086:	6803      	ldr	r3, [r0, #0]
 8006088:	1c29      	adds	r1, r5, #0
 800608a:	6aa0      	ldr	r0, [r4, #40]	; 0x28
 800608c:	685e      	ldr	r6, [r3, #4]
 800608e:	f7ff ff3d 	bl	8005f0c <array_at>
 8006092:	1c03      	adds	r3, r0, #0
 8006094:	1c20      	adds	r0, r4, #0
 8006096:	6859      	ldr	r1, [r3, #4]
 8006098:	47b0      	blx	r6
 800609a:	3501      	adds	r5, #1
 800609c:	e7ea      	b.n	8006074 <usbd_class_reset+0x6>
 800609e:	2200      	movs	r2, #0
 80060a0:	701a      	strb	r2, [r3, #0]
 80060a2:	2380      	movs	r3, #128	; 0x80
 80060a4:	1c20      	adds	r0, r4, #0
 80060a6:	059b      	lsls	r3, r3, #22
 80060a8:	689b      	ldr	r3, [r3, #8]
 80060aa:	3028      	adds	r0, #40	; 0x28
 80060ac:	691b      	ldr	r3, [r3, #16]
 80060ae:	699b      	ldr	r3, [r3, #24]
 80060b0:	4798      	blx	r3
 80060b2:	bd70      	pop	{r4, r5, r6, pc}

080060b4 <usbd_class_resume>:
 80060b4:	b570      	push	{r4, r5, r6, lr}
 80060b6:	1c04      	adds	r4, r0, #0
 80060b8:	2500      	movs	r5, #0
 80060ba:	1c23      	adds	r3, r4, #0
 80060bc:	3330      	adds	r3, #48	; 0x30
 80060be:	781b      	ldrb	r3, [r3, #0]
 80060c0:	429d      	cmp	r5, r3
 80060c2:	da0f      	bge.n	80060e4 <usbd_class_resume+0x30>
 80060c4:	1c29      	adds	r1, r5, #0
 80060c6:	6aa0      	ldr	r0, [r4, #40]	; 0x28
 80060c8:	f7ff ff20 	bl	8005f0c <array_at>
 80060cc:	6803      	ldr	r3, [r0, #0]
 80060ce:	1c29      	adds	r1, r5, #0
 80060d0:	6aa0      	ldr	r0, [r4, #40]	; 0x28
 80060d2:	68de      	ldr	r6, [r3, #12]
 80060d4:	f7ff ff1a 	bl	8005f0c <array_at>
 80060d8:	1c03      	adds	r3, r0, #0
 80060da:	1c20      	adds	r0, r4, #0
 80060dc:	6859      	ldr	r1, [r3, #4]
 80060de:	47b0      	blx	r6
 80060e0:	3501      	adds	r5, #1
 80060e2:	e7ea      	b.n	80060ba <usbd_class_resume+0x6>
 80060e4:	1c20      	adds	r0, r4, #0
 80060e6:	2102      	movs	r1, #2
 80060e8:	2200      	movs	r2, #0
 80060ea:	f7ff ffa5 	bl	8006038 <usbd_inform>
 80060ee:	bd70      	pop	{r4, r5, r6, pc}

080060f0 <usbd_fatal>:
 80060f0:	b510      	push	{r4, lr}
 80060f2:	7d43      	ldrb	r3, [r0, #21]
 80060f4:	1c04      	adds	r4, r0, #0
 80060f6:	2b02      	cmp	r3, #2
 80060f8:	d107      	bne.n	800610a <usbd_fatal+0x1a>
 80060fa:	2100      	movs	r1, #0
 80060fc:	2201      	movs	r2, #1
 80060fe:	7541      	strb	r1, [r0, #21]
 8006100:	f7ff ff9a 	bl	8006038 <usbd_inform>
 8006104:	1c20      	adds	r0, r4, #0
 8006106:	f7ff ffb2 	bl	800606e <usbd_class_reset>
 800610a:	22c0      	movs	r2, #192	; 0xc0
 800610c:	6820      	ldr	r0, [r4, #0]
 800610e:	4905      	ldr	r1, [pc, #20]	; (8006124 <usbd_fatal+0x34>)
 8006110:	02d2      	lsls	r2, r2, #11
 8006112:	f7ff ff4e 	bl	8005fb2 <ack.constprop.11>
 8006116:	6820      	ldr	r0, [r4, #0]
 8006118:	4902      	ldr	r1, [pc, #8]	; (8006124 <usbd_fatal+0x34>)
 800611a:	4a03      	ldr	r2, [pc, #12]	; (8006128 <usbd_fatal+0x38>)
 800611c:	f7ff ff49 	bl	8005fb2 <ack.constprop.11>
 8006120:	bd10      	pop	{r4, pc}
 8006122:	46c0      	nop			; (mov r8, r8)
 8006124:	00070002 	.word	0x00070002
 8006128:	00060080 	.word	0x00060080

0800612c <usbd_register_descriptor>:
 800612c:	b5f0      	push	{r4, r5, r6, r7, lr}
 800612e:	b085      	sub	sp, #20
 8006130:	1c16      	adds	r6, r2, #0
 8006132:	466a      	mov	r2, sp
 8006134:	af00      	add	r7, sp, #0
 8006136:	60f9      	str	r1, [r7, #12]
 8006138:	4669      	mov	r1, sp
 800613a:	60ba      	str	r2, [r7, #8]
 800613c:	1df2      	adds	r2, r6, #7
 800613e:	08d2      	lsrs	r2, r2, #3
 8006140:	00d2      	lsls	r2, r2, #3
 8006142:	1a8a      	subs	r2, r1, r2
 8006144:	4695      	mov	sp, r2
 8006146:	1c19      	adds	r1, r3, #0
 8006148:	1c04      	adds	r4, r0, #0
 800614a:	1c33      	adds	r3, r6, #0
 800614c:	2022      	movs	r0, #34	; 0x22
 800614e:	f7fa f843 	bl	80001d8 <svc_call>
 8006152:	2380      	movs	r3, #128	; 0x80
 8006154:	059b      	lsls	r3, r3, #22
 8006156:	6818      	ldr	r0, [r3, #0]
 8006158:	466d      	mov	r5, sp
 800615a:	6802      	ldr	r2, [r0, #0]
 800615c:	2a00      	cmp	r2, #0
 800615e:	d000      	beq.n	8006162 <usbd_register_descriptor+0x36>
 8006160:	e0a0      	b.n	80062a4 <usbd_register_descriptor+0x178>
 8006162:	782a      	ldrb	r2, [r5, #0]
 8006164:	07d2      	lsls	r2, r2, #31
 8006166:	d501      	bpl.n	800616c <usbd_register_descriptor+0x40>
 8006168:	9e02      	ldr	r6, [sp, #8]
 800616a:	e00e      	b.n	800618a <usbd_register_descriptor+0x5e>
 800616c:	689b      	ldr	r3, [r3, #8]
 800616e:	3e08      	subs	r6, #8
 8006170:	681b      	ldr	r3, [r3, #0]
 8006172:	1c31      	adds	r1, r6, #0
 8006174:	3008      	adds	r0, #8
 8006176:	68db      	ldr	r3, [r3, #12]
 8006178:	607e      	str	r6, [r7, #4]
 800617a:	4798      	blx	r3
 800617c:	1e06      	subs	r6, r0, #0
 800617e:	d100      	bne.n	8006182 <usbd_register_descriptor+0x56>
 8006180:	e090      	b.n	80062a4 <usbd_register_descriptor+0x178>
 8006182:	a902      	add	r1, sp, #8
 8006184:	687a      	ldr	r2, [r7, #4]
 8006186:	f001 fd6b 	bl	8007c60 <memcpy>
 800618a:	68fb      	ldr	r3, [r7, #12]
 800618c:	2b02      	cmp	r3, #2
 800618e:	d008      	beq.n	80061a2 <usbd_register_descriptor+0x76>
 8006190:	2b04      	cmp	r3, #4
 8006192:	d02f      	beq.n	80061f4 <usbd_register_descriptor+0xc8>
 8006194:	2b00      	cmp	r3, #0
 8006196:	d179      	bne.n	800628c <usbd_register_descriptor+0x160>
 8006198:	69e3      	ldr	r3, [r4, #28]
 800619a:	2b00      	cmp	r3, #0
 800619c:	d14f      	bne.n	800623e <usbd_register_descriptor+0x112>
 800619e:	61e6      	str	r6, [r4, #28]
 80061a0:	e080      	b.n	80062a4 <usbd_register_descriptor+0x178>
 80061a2:	1c23      	adds	r3, r4, #0
 80061a4:	3320      	adds	r3, #32
 80061a6:	607b      	str	r3, [r7, #4]
 80061a8:	792b      	ldrb	r3, [r5, #4]
 80061aa:	78ea      	ldrb	r2, [r5, #3]
 80061ac:	021b      	lsls	r3, r3, #8
 80061ae:	4313      	orrs	r3, r2
 80061b0:	6a20      	ldr	r0, [r4, #32]
 80061b2:	60fb      	str	r3, [r7, #12]
 80061b4:	f7ff feb2 	bl	8005f1c <array_size>
 80061b8:	68fb      	ldr	r3, [r7, #12]
 80061ba:	4283      	cmp	r3, r0
 80061bc:	d20f      	bcs.n	80061de <usbd_register_descriptor+0xb2>
 80061be:	1c19      	adds	r1, r3, #0
 80061c0:	6a20      	ldr	r0, [r4, #32]
 80061c2:	f7ff fea3 	bl	8005f0c <array_at>
 80061c6:	6803      	ldr	r3, [r0, #0]
 80061c8:	2b00      	cmp	r3, #0
 80061ca:	d138      	bne.n	800623e <usbd_register_descriptor+0x112>
 80061cc:	e007      	b.n	80061de <usbd_register_descriptor+0xb2>
 80061ce:	f7ff fea5 	bl	8005f1c <array_size>
 80061d2:	68fb      	ldr	r3, [r7, #12]
 80061d4:	4298      	cmp	r0, r3
 80061d6:	d805      	bhi.n	80061e4 <usbd_register_descriptor+0xb8>
 80061d8:	6878      	ldr	r0, [r7, #4]
 80061da:	f7ff fea7 	bl	8005f2c <array_append>
 80061de:	6a20      	ldr	r0, [r4, #32]
 80061e0:	2800      	cmp	r0, #0
 80061e2:	d1f4      	bne.n	80061ce <usbd_register_descriptor+0xa2>
 80061e4:	6a20      	ldr	r0, [r4, #32]
 80061e6:	2800      	cmp	r0, #0
 80061e8:	d056      	beq.n	8006298 <usbd_register_descriptor+0x16c>
 80061ea:	68f9      	ldr	r1, [r7, #12]
 80061ec:	f7ff fe8e 	bl	8005f0c <array_at>
 80061f0:	6006      	str	r6, [r0, #0]
 80061f2:	e057      	b.n	80062a4 <usbd_register_descriptor+0x178>
 80061f4:	792b      	ldrb	r3, [r5, #4]
 80061f6:	78ea      	ldrb	r2, [r5, #3]
 80061f8:	021b      	lsls	r3, r3, #8
 80061fa:	4313      	orrs	r3, r2
 80061fc:	607b      	str	r3, [r7, #4]
 80061fe:	78ab      	ldrb	r3, [r5, #2]
 8006200:	786a      	ldrb	r2, [r5, #1]
 8006202:	021b      	lsls	r3, r3, #8
 8006204:	4313      	orrs	r3, r2
 8006206:	603b      	str	r3, [r7, #0]
 8006208:	2300      	movs	r3, #0
 800620a:	e001      	b.n	8006210 <usbd_register_descriptor+0xe4>
 800620c:	68fb      	ldr	r3, [r7, #12]
 800620e:	3301      	adds	r3, #1
 8006210:	6a60      	ldr	r0, [r4, #36]	; 0x24
 8006212:	60fb      	str	r3, [r7, #12]
 8006214:	f7ff fe82 	bl	8005f1c <array_size>
 8006218:	68fb      	ldr	r3, [r7, #12]
 800621a:	4283      	cmp	r3, r0
 800621c:	d214      	bcs.n	8006248 <usbd_register_descriptor+0x11c>
 800621e:	6a60      	ldr	r0, [r4, #36]	; 0x24
 8006220:	68f9      	ldr	r1, [r7, #12]
 8006222:	f7ff fe73 	bl	8005f0c <array_at>
 8006226:	687a      	ldr	r2, [r7, #4]
 8006228:	8803      	ldrh	r3, [r0, #0]
 800622a:	4293      	cmp	r3, r2
 800622c:	d1ee      	bne.n	800620c <usbd_register_descriptor+0xe0>
 800622e:	6a60      	ldr	r0, [r4, #36]	; 0x24
 8006230:	68f9      	ldr	r1, [r7, #12]
 8006232:	f7ff fe6b 	bl	8005f0c <array_at>
 8006236:	683a      	ldr	r2, [r7, #0]
 8006238:	8843      	ldrh	r3, [r0, #2]
 800623a:	4293      	cmp	r3, r2
 800623c:	d1e6      	bne.n	800620c <usbd_register_descriptor+0xe0>
 800623e:	2380      	movs	r3, #128	; 0x80
 8006240:	059b      	lsls	r3, r3, #22
 8006242:	681b      	ldr	r3, [r3, #0]
 8006244:	2206      	movs	r2, #6
 8006246:	e025      	b.n	8006294 <usbd_register_descriptor+0x168>
 8006248:	1c20      	adds	r0, r4, #0
 800624a:	3024      	adds	r0, #36	; 0x24
 800624c:	f7ff fe6e 	bl	8005f2c <array_append>
 8006250:	6a65      	ldr	r5, [r4, #36]	; 0x24
 8006252:	1c28      	adds	r0, r5, #0
 8006254:	f7ff fe62 	bl	8005f1c <array_size>
 8006258:	1e41      	subs	r1, r0, #1
 800625a:	1c28      	adds	r0, r5, #0
 800625c:	f7ff fe56 	bl	8005f0c <array_at>
 8006260:	88bb      	ldrh	r3, [r7, #4]
 8006262:	6a65      	ldr	r5, [r4, #36]	; 0x24
 8006264:	8003      	strh	r3, [r0, #0]
 8006266:	1c28      	adds	r0, r5, #0
 8006268:	f7ff fe58 	bl	8005f1c <array_size>
 800626c:	1e41      	subs	r1, r0, #1
 800626e:	1c28      	adds	r0, r5, #0
 8006270:	f7ff fe4c 	bl	8005f0c <array_at>
 8006274:	883b      	ldrh	r3, [r7, #0]
 8006276:	6a64      	ldr	r4, [r4, #36]	; 0x24
 8006278:	8043      	strh	r3, [r0, #2]
 800627a:	1c20      	adds	r0, r4, #0
 800627c:	f7ff fe4e 	bl	8005f1c <array_size>
 8006280:	1e41      	subs	r1, r0, #1
 8006282:	1c20      	adds	r0, r4, #0
 8006284:	f7ff fe42 	bl	8005f0c <array_at>
 8006288:	6046      	str	r6, [r0, #4]
 800628a:	e00b      	b.n	80062a4 <usbd_register_descriptor+0x178>
 800628c:	2380      	movs	r3, #128	; 0x80
 800628e:	2202      	movs	r2, #2
 8006290:	059b      	lsls	r3, r3, #22
 8006292:	681b      	ldr	r3, [r3, #0]
 8006294:	4252      	negs	r2, r2
 8006296:	601a      	str	r2, [r3, #0]
 8006298:	782b      	ldrb	r3, [r5, #0]
 800629a:	07db      	lsls	r3, r3, #31
 800629c:	d402      	bmi.n	80062a4 <usbd_register_descriptor+0x178>
 800629e:	1c30      	adds	r0, r6, #0
 80062a0:	f7ff fe21 	bl	8005ee6 <free>
 80062a4:	68bb      	ldr	r3, [r7, #8]
 80062a6:	469d      	mov	sp, r3
 80062a8:	46bd      	mov	sp, r7
 80062aa:	b005      	add	sp, #20
 80062ac:	bdf0      	pop	{r4, r5, r6, r7, pc}

080062ae <usbd_unregister_descriptor>:
 80062ae:	b5f8      	push	{r3, r4, r5, r6, r7, lr}
 80062b0:	1c04      	adds	r4, r0, #0
 80062b2:	1c0d      	adds	r5, r1, #0
 80062b4:	1c16      	adds	r6, r2, #0
 80062b6:	1c1f      	adds	r7, r3, #0
 80062b8:	2902      	cmp	r1, #2
 80062ba:	d00a      	beq.n	80062d2 <usbd_unregister_descriptor+0x24>
 80062bc:	2904      	cmp	r1, #4
 80062be:	d031      	beq.n	8006324 <usbd_unregister_descriptor+0x76>
 80062c0:	2900      	cmp	r1, #0
 80062c2:	d15a      	bne.n	800637a <usbd_unregister_descriptor+0xcc>
 80062c4:	69c0      	ldr	r0, [r0, #28]
 80062c6:	2800      	cmp	r0, #0
 80062c8:	d052      	beq.n	8006370 <usbd_unregister_descriptor+0xc2>
 80062ca:	f7ff fe38 	bl	8005f3e <free_if_own>
 80062ce:	61e5      	str	r5, [r4, #28]
 80062d0:	e059      	b.n	8006386 <usbd_unregister_descriptor+0xd8>
 80062d2:	6a00      	ldr	r0, [r0, #32]
 80062d4:	f7ff fe22 	bl	8005f1c <array_size>
 80062d8:	4286      	cmp	r6, r0
 80062da:	d249      	bcs.n	8006370 <usbd_unregister_descriptor+0xc2>
 80062dc:	6a20      	ldr	r0, [r4, #32]
 80062de:	1c31      	adds	r1, r6, #0
 80062e0:	f7ff fe14 	bl	8005f0c <array_at>
 80062e4:	6803      	ldr	r3, [r0, #0]
 80062e6:	2b00      	cmp	r3, #0
 80062e8:	d042      	beq.n	8006370 <usbd_unregister_descriptor+0xc2>
 80062ea:	1c31      	adds	r1, r6, #0
 80062ec:	6a20      	ldr	r0, [r4, #32]
 80062ee:	f7ff fe0d 	bl	8005f0c <array_at>
 80062f2:	6800      	ldr	r0, [r0, #0]
 80062f4:	f7ff fe23 	bl	8005f3e <free_if_own>
 80062f8:	1c31      	adds	r1, r6, #0
 80062fa:	6a20      	ldr	r0, [r4, #32]
 80062fc:	f7ff fe06 	bl	8005f0c <array_at>
 8006300:	2300      	movs	r3, #0
 8006302:	6003      	str	r3, [r0, #0]
 8006304:	6a20      	ldr	r0, [r4, #32]
 8006306:	f7ff fe09 	bl	8005f1c <array_size>
 800630a:	1c73      	adds	r3, r6, #1
 800630c:	4298      	cmp	r0, r3
 800630e:	d13a      	bne.n	8006386 <usbd_unregister_descriptor+0xd8>
 8006310:	2380      	movs	r3, #128	; 0x80
 8006312:	1c20      	adds	r0, r4, #0
 8006314:	059b      	lsls	r3, r3, #22
 8006316:	689b      	ldr	r3, [r3, #8]
 8006318:	1c31      	adds	r1, r6, #0
 800631a:	691b      	ldr	r3, [r3, #16]
 800631c:	3020      	adds	r0, #32
 800631e:	69db      	ldr	r3, [r3, #28]
 8006320:	4798      	blx	r3
 8006322:	e030      	b.n	8006386 <usbd_unregister_descriptor+0xd8>
 8006324:	2500      	movs	r5, #0
 8006326:	6a60      	ldr	r0, [r4, #36]	; 0x24
 8006328:	f7ff fdf8 	bl	8005f1c <array_size>
 800632c:	4285      	cmp	r5, r0
 800632e:	d21f      	bcs.n	8006370 <usbd_unregister_descriptor+0xc2>
 8006330:	6a60      	ldr	r0, [r4, #36]	; 0x24
 8006332:	1c29      	adds	r1, r5, #0
 8006334:	f7ff fdea 	bl	8005f0c <array_at>
 8006338:	8803      	ldrh	r3, [r0, #0]
 800633a:	42b3      	cmp	r3, r6
 800633c:	d116      	bne.n	800636c <usbd_unregister_descriptor+0xbe>
 800633e:	6a60      	ldr	r0, [r4, #36]	; 0x24
 8006340:	1c29      	adds	r1, r5, #0
 8006342:	f7ff fde3 	bl	8005f0c <array_at>
 8006346:	8843      	ldrh	r3, [r0, #2]
 8006348:	42bb      	cmp	r3, r7
 800634a:	d10f      	bne.n	800636c <usbd_unregister_descriptor+0xbe>
 800634c:	1c29      	adds	r1, r5, #0
 800634e:	6a60      	ldr	r0, [r4, #36]	; 0x24
 8006350:	f7ff fddc 	bl	8005f0c <array_at>
 8006354:	6840      	ldr	r0, [r0, #4]
 8006356:	f7ff fdf2 	bl	8005f3e <free_if_own>
 800635a:	2380      	movs	r3, #128	; 0x80
 800635c:	1c20      	adds	r0, r4, #0
 800635e:	059b      	lsls	r3, r3, #22
 8006360:	689b      	ldr	r3, [r3, #8]
 8006362:	3024      	adds	r0, #36	; 0x24
 8006364:	691b      	ldr	r3, [r3, #16]
 8006366:	1c29      	adds	r1, r5, #0
 8006368:	69db      	ldr	r3, [r3, #28]
 800636a:	4798      	blx	r3
 800636c:	3501      	adds	r5, #1
 800636e:	e7da      	b.n	8006326 <usbd_unregister_descriptor+0x78>
 8006370:	2380      	movs	r3, #128	; 0x80
 8006372:	059b      	lsls	r3, r3, #22
 8006374:	681b      	ldr	r3, [r3, #0]
 8006376:	2205      	movs	r2, #5
 8006378:	e003      	b.n	8006382 <usbd_unregister_descriptor+0xd4>
 800637a:	2380      	movs	r3, #128	; 0x80
 800637c:	2202      	movs	r2, #2
 800637e:	059b      	lsls	r3, r3, #22
 8006380:	681b      	ldr	r3, [r3, #0]
 8006382:	4252      	negs	r2, r2
 8006384:	601a      	str	r2, [r3, #0]
 8006386:	bdf8      	pop	{r3, r4, r5, r6, r7, pc}

08006388 <send_descriptor>:
 8006388:	b5f7      	push	{r0, r1, r2, r4, r5, r6, r7, lr}
 800638a:	1c05      	adds	r5, r0, #0
 800638c:	1c0f      	adds	r7, r1, #0
 800638e:	1c16      	adds	r6, r2, #0
 8006390:	6869      	ldr	r1, [r5, #4]
 8006392:	1c1c      	adds	r4, r3, #0
 8006394:	2025      	movs	r0, #37	; 0x25
 8006396:	aa01      	add	r2, sp, #4
 8006398:	2300      	movs	r3, #0
 800639a:	f7f9 ff1d 	bl	80001d8 <svc_call>
 800639e:	9d01      	ldr	r5, [sp, #4]
 80063a0:	2d00      	cmp	r5, #0
 80063a2:	d00a      	beq.n	80063ba <send_descriptor+0x32>
 80063a4:	2c80      	cmp	r4, #128	; 0x80
 80063a6:	dd00      	ble.n	80063aa <send_descriptor+0x22>
 80063a8:	2480      	movs	r4, #128	; 0x80
 80063aa:	1c28      	adds	r0, r5, #0
 80063ac:	1c39      	adds	r1, r7, #0
 80063ae:	1c22      	adds	r2, r4, #0
 80063b0:	f001 fc56 	bl	8007c60 <memcpy>
 80063b4:	706e      	strb	r6, [r5, #1]
 80063b6:	1c20      	adds	r0, r4, #0
 80063b8:	e001      	b.n	80063be <send_descriptor+0x36>
 80063ba:	2001      	movs	r0, #1
 80063bc:	4240      	negs	r0, r0
 80063be:	bdfe      	pop	{r1, r2, r3, r4, r5, r6, r7, pc}

080063c0 <send_configuration_descriptor>:
 80063c0:	b538      	push	{r3, r4, r5, lr}
 80063c2:	1c05      	adds	r5, r0, #0
 80063c4:	6808      	ldr	r0, [r1, #0]
 80063c6:	1c11      	adds	r1, r2, #0
 80063c8:	1c1c      	adds	r4, r3, #0
 80063ca:	f7ff fd9f 	bl	8005f0c <array_at>
 80063ce:	6801      	ldr	r1, [r0, #0]
 80063d0:	1c28      	adds	r0, r5, #0
 80063d2:	78cb      	ldrb	r3, [r1, #3]
 80063d4:	788a      	ldrb	r2, [r1, #2]
 80063d6:	021b      	lsls	r3, r3, #8
 80063d8:	4313      	orrs	r3, r2
 80063da:	1c22      	adds	r2, r4, #0
 80063dc:	f7ff ffd4 	bl	8006388 <send_descriptor>
 80063e0:	bd38      	pop	{r3, r4, r5, pc}
 80063e2:	0000      	movs	r0, r0

080063e4 <usbd_setup_process>:
 80063e4:	230f      	movs	r3, #15
 80063e6:	b5f0      	push	{r4, r5, r6, r7, lr}
 80063e8:	7b02      	ldrb	r2, [r0, #12]
 80063ea:	b089      	sub	sp, #36	; 0x24
 80063ec:	1c04      	adds	r4, r0, #0
 80063ee:	4013      	ands	r3, r2
 80063f0:	2b01      	cmp	r3, #1
 80063f2:	d100      	bne.n	80063f6 <usbd_setup_process+0x12>
 80063f4:	e165      	b.n	80066c2 <usbd_setup_process+0x2de>
 80063f6:	2b00      	cmp	r3, #0
 80063f8:	d003      	beq.n	8006402 <usbd_setup_process+0x1e>
 80063fa:	2b02      	cmp	r3, #2
 80063fc:	d100      	bne.n	8006400 <usbd_setup_process+0x1c>
 80063fe:	e17d      	b.n	80066fc <usbd_setup_process+0x318>
 8006400:	e1e9      	b.n	80067d6 <usbd_setup_process+0x3f2>
 8006402:	2360      	movs	r3, #96	; 0x60
 8006404:	421a      	tst	r2, r3
 8006406:	d000      	beq.n	800640a <usbd_setup_process+0x26>
 8006408:	e1e5      	b.n	80067d6 <usbd_setup_process+0x3f2>
 800640a:	7b40      	ldrb	r0, [r0, #13]
 800640c:	2809      	cmp	r0, #9
 800640e:	d900      	bls.n	8006412 <usbd_setup_process+0x2e>
 8006410:	e1e1      	b.n	80067d6 <usbd_setup_process+0x3f2>
 8006412:	f001 fa7b 	bl	800790c <__gnu_thumb1_case_uhi>
 8006416:	000a      	.short	0x000a
 8006418:	01e00032 	.word	0x01e00032
 800641c:	01e00029 	.word	0x01e00029
 8006420:	0055003c 	.word	0x0055003c
 8006424:	00ae01e0 	.word	0x00ae01e0
 8006428:	00c5      	.short	0x00c5
 800642a:	48b8      	ldr	r0, [pc, #736]	; (800670c <usbd_setup_process+0x328>)
 800642c:	f7fc ffbf 	bl	80033ae <printf>
 8006430:	ab02      	add	r3, sp, #8
 8006432:	1c9d      	adds	r5, r3, #2
 8006434:	2300      	movs	r3, #0
 8006436:	802b      	strh	r3, [r5, #0]
 8006438:	7da3      	ldrb	r3, [r4, #22]
 800643a:	2b00      	cmp	r3, #0
 800643c:	d001      	beq.n	8006442 <usbd_setup_process+0x5e>
 800643e:	2301      	movs	r3, #1
 8006440:	802b      	strh	r3, [r5, #0]
 8006442:	7de3      	ldrb	r3, [r4, #23]
 8006444:	2b00      	cmp	r3, #0
 8006446:	d003      	beq.n	8006450 <usbd_setup_process+0x6c>
 8006448:	2202      	movs	r2, #2
 800644a:	882b      	ldrh	r3, [r5, #0]
 800644c:	4313      	orrs	r3, r2
 800644e:	802b      	strh	r3, [r5, #0]
 8006450:	2025      	movs	r0, #37	; 0x25
 8006452:	6861      	ldr	r1, [r4, #4]
 8006454:	aa03      	add	r2, sp, #12
 8006456:	2300      	movs	r3, #0
 8006458:	f7f9 febe 	bl	80001d8 <svc_call>
 800645c:	9803      	ldr	r0, [sp, #12]
 800645e:	1c29      	adds	r1, r5, #0
 8006460:	2800      	cmp	r0, #0
 8006462:	d000      	beq.n	8006466 <usbd_setup_process+0x82>
 8006464:	e196      	b.n	8006794 <usbd_setup_process+0x3b0>
 8006466:	e1b6      	b.n	80067d6 <usbd_setup_process+0x3f2>
 8006468:	89e5      	ldrh	r5, [r4, #14]
 800646a:	2d01      	cmp	r5, #1
 800646c:	d000      	beq.n	8006470 <usbd_setup_process+0x8c>
 800646e:	e1b2      	b.n	80067d6 <usbd_setup_process+0x3f2>
 8006470:	48a7      	ldr	r0, [pc, #668]	; (8006710 <usbd_setup_process+0x32c>)
 8006472:	f7fc ff9c 	bl	80033ae <printf>
 8006476:	75e5      	strb	r5, [r4, #23]
 8006478:	e121      	b.n	80066be <usbd_setup_process+0x2da>
 800647a:	48a6      	ldr	r0, [pc, #664]	; (8006714 <usbd_setup_process+0x330>)
 800647c:	f7fc ff97 	bl	80033ae <printf>
 8006480:	89e3      	ldrh	r3, [r4, #14]
 8006482:	2b01      	cmp	r3, #1
 8006484:	d000      	beq.n	8006488 <usbd_setup_process+0xa4>
 8006486:	e1a6      	b.n	80067d6 <usbd_setup_process+0x3f2>
 8006488:	2500      	movs	r5, #0
 800648a:	75e5      	strb	r5, [r4, #23]
 800648c:	e1a5      	b.n	80067da <usbd_setup_process+0x3f6>
 800648e:	89e1      	ldrh	r1, [r4, #14]
 8006490:	48a1      	ldr	r0, [pc, #644]	; (8006718 <usbd_setup_process+0x334>)
 8006492:	f7fc ff8c 	bl	80033ae <printf>
 8006496:	21e0      	movs	r1, #224	; 0xe0
 8006498:	89e2      	ldrh	r2, [r4, #14]
 800649a:	6820      	ldr	r0, [r4, #0]
 800649c:	02c9      	lsls	r1, r1, #11
 800649e:	f7ff fd88 	bl	8005fb2 <ack.constprop.11>
 80064a2:	7d65      	ldrb	r5, [r4, #21]
 80064a4:	2d00      	cmp	r5, #0
 80064a6:	d002      	beq.n	80064ae <usbd_setup_process+0xca>
 80064a8:	2d01      	cmp	r5, #1
 80064aa:	d003      	beq.n	80064b4 <usbd_setup_process+0xd0>
 80064ac:	e107      	b.n	80066be <usbd_setup_process+0x2da>
 80064ae:	2301      	movs	r3, #1
 80064b0:	7563      	strb	r3, [r4, #21]
 80064b2:	e192      	b.n	80067da <usbd_setup_process+0x3f6>
 80064b4:	89e5      	ldrh	r5, [r4, #14]
 80064b6:	2d00      	cmp	r5, #0
 80064b8:	d000      	beq.n	80064bc <usbd_setup_process+0xd8>
 80064ba:	e100      	b.n	80066be <usbd_setup_process+0x2da>
 80064bc:	7565      	strb	r5, [r4, #21]
 80064be:	e18c      	b.n	80067da <usbd_setup_process+0x3f6>
 80064c0:	89e5      	ldrh	r5, [r4, #14]
 80064c2:	b2ee      	uxtb	r6, r5
 80064c4:	0a2d      	lsrs	r5, r5, #8
 80064c6:	2d02      	cmp	r5, #2
 80064c8:	d00f      	beq.n	80064ea <usbd_setup_process+0x106>
 80064ca:	2d03      	cmp	r5, #3
 80064cc:	d01e      	beq.n	800650c <usbd_setup_process+0x128>
 80064ce:	2d01      	cmp	r5, #1
 80064d0:	d000      	beq.n	80064d4 <usbd_setup_process+0xf0>
 80064d2:	e180      	b.n	80067d6 <usbd_setup_process+0x3f2>
 80064d4:	4891      	ldr	r0, [pc, #580]	; (800671c <usbd_setup_process+0x338>)
 80064d6:	f7fc ff6a 	bl	80033ae <printf>
 80064da:	69e1      	ldr	r1, [r4, #28]
 80064dc:	2900      	cmp	r1, #0
 80064de:	d100      	bne.n	80064e2 <usbd_setup_process+0xfe>
 80064e0:	e179      	b.n	80067d6 <usbd_setup_process+0x3f2>
 80064e2:	780b      	ldrb	r3, [r1, #0]
 80064e4:	1c20      	adds	r0, r4, #0
 80064e6:	1c2a      	adds	r2, r5, #0
 80064e8:	e03a      	b.n	8006560 <usbd_setup_process+0x17c>
 80064ea:	488d      	ldr	r0, [pc, #564]	; (8006720 <usbd_setup_process+0x33c>)
 80064ec:	1c31      	adds	r1, r6, #0
 80064ee:	f7fc ff5e 	bl	80033ae <printf>
 80064f2:	6a23      	ldr	r3, [r4, #32]
 80064f4:	681b      	ldr	r3, [r3, #0]
 80064f6:	429e      	cmp	r6, r3
 80064f8:	d300      	bcc.n	80064fc <usbd_setup_process+0x118>
 80064fa:	e16c      	b.n	80067d6 <usbd_setup_process+0x3f2>
 80064fc:	1c21      	adds	r1, r4, #0
 80064fe:	1c20      	adds	r0, r4, #0
 8006500:	3120      	adds	r1, #32
 8006502:	1c32      	adds	r2, r6, #0
 8006504:	1c2b      	adds	r3, r5, #0
 8006506:	f7ff ff5b 	bl	80063c0 <send_configuration_descriptor>
 800650a:	e0f1      	b.n	80066f0 <usbd_setup_process+0x30c>
 800650c:	8a22      	ldrh	r2, [r4, #16]
 800650e:	4885      	ldr	r0, [pc, #532]	; (8006724 <usbd_setup_process+0x340>)
 8006510:	1c31      	adds	r1, r6, #0
 8006512:	f7fc ff4c 	bl	80033ae <printf>
 8006516:	2500      	movs	r5, #0
 8006518:	8a27      	ldrh	r7, [r4, #16]
 800651a:	e000      	b.n	800651e <usbd_setup_process+0x13a>
 800651c:	3501      	adds	r5, #1
 800651e:	6a60      	ldr	r0, [r4, #36]	; 0x24
 8006520:	f7ff fcfc 	bl	8005f1c <array_size>
 8006524:	4285      	cmp	r5, r0
 8006526:	d21e      	bcs.n	8006566 <usbd_setup_process+0x182>
 8006528:	6a60      	ldr	r0, [r4, #36]	; 0x24
 800652a:	1c29      	adds	r1, r5, #0
 800652c:	f7ff fcee 	bl	8005f0c <array_at>
 8006530:	8803      	ldrh	r3, [r0, #0]
 8006532:	42b3      	cmp	r3, r6
 8006534:	d1f2      	bne.n	800651c <usbd_setup_process+0x138>
 8006536:	6a60      	ldr	r0, [r4, #36]	; 0x24
 8006538:	1c29      	adds	r1, r5, #0
 800653a:	f7ff fce7 	bl	8005f0c <array_at>
 800653e:	8843      	ldrh	r3, [r0, #2]
 8006540:	42bb      	cmp	r3, r7
 8006542:	d1eb      	bne.n	800651c <usbd_setup_process+0x138>
 8006544:	1c29      	adds	r1, r5, #0
 8006546:	6a60      	ldr	r0, [r4, #36]	; 0x24
 8006548:	f7ff fce0 	bl	8005f0c <array_at>
 800654c:	1c29      	adds	r1, r5, #0
 800654e:	6846      	ldr	r6, [r0, #4]
 8006550:	6a60      	ldr	r0, [r4, #36]	; 0x24
 8006552:	f7ff fcdb 	bl	8005f0c <array_at>
 8006556:	1c31      	adds	r1, r6, #0
 8006558:	6843      	ldr	r3, [r0, #4]
 800655a:	2203      	movs	r2, #3
 800655c:	1c20      	adds	r0, r4, #0
 800655e:	781b      	ldrb	r3, [r3, #0]
 8006560:	f7ff ff12 	bl	8006388 <send_descriptor>
 8006564:	e0c4      	b.n	80066f0 <usbd_setup_process+0x30c>
 8006566:	4870      	ldr	r0, [pc, #448]	; (8006728 <usbd_setup_process+0x344>)
 8006568:	1c31      	adds	r1, r6, #0
 800656a:	1c3a      	adds	r2, r7, #0
 800656c:	f7fc ff1f 	bl	80033ae <printf>
 8006570:	e131      	b.n	80067d6 <usbd_setup_process+0x3f2>
 8006572:	486e      	ldr	r0, [pc, #440]	; (800672c <usbd_setup_process+0x348>)
 8006574:	f7fc ff1b 	bl	80033ae <printf>
 8006578:	ab02      	add	r3, sp, #8
 800657a:	1c9d      	adds	r5, r3, #2
 800657c:	7ea3      	ldrb	r3, [r4, #26]
 800657e:	2025      	movs	r0, #37	; 0x25
 8006580:	702b      	strb	r3, [r5, #0]
 8006582:	6861      	ldr	r1, [r4, #4]
 8006584:	aa03      	add	r2, sp, #12
 8006586:	2300      	movs	r3, #0
 8006588:	f7f9 fe26 	bl	80001d8 <svc_call>
 800658c:	9803      	ldr	r0, [sp, #12]
 800658e:	2800      	cmp	r0, #0
 8006590:	d100      	bne.n	8006594 <usbd_setup_process+0x1b0>
 8006592:	e120      	b.n	80067d6 <usbd_setup_process+0x3f2>
 8006594:	1c29      	adds	r1, r5, #0
 8006596:	2201      	movs	r2, #1
 8006598:	f001 fb62 	bl	8007c60 <memcpy>
 800659c:	2501      	movs	r5, #1
 800659e:	e11c      	b.n	80067da <usbd_setup_process+0x3f6>
 80065a0:	89e1      	ldrh	r1, [r4, #14]
 80065a2:	4863      	ldr	r0, [pc, #396]	; (8006730 <usbd_setup_process+0x34c>)
 80065a4:	f7fc ff03 	bl	80033ae <printf>
 80065a8:	7d63      	ldrb	r3, [r4, #21]
 80065aa:	2b02      	cmp	r3, #2
 80065ac:	d109      	bne.n	80065c2 <usbd_setup_process+0x1de>
 80065ae:	2100      	movs	r1, #0
 80065b0:	2201      	movs	r2, #1
 80065b2:	1c20      	adds	r0, r4, #0
 80065b4:	76a1      	strb	r1, [r4, #26]
 80065b6:	7562      	strb	r2, [r4, #21]
 80065b8:	f7ff fd3e 	bl	8006038 <usbd_inform>
 80065bc:	1c20      	adds	r0, r4, #0
 80065be:	f7ff fd56 	bl	800606e <usbd_class_reset>
 80065c2:	7d63      	ldrb	r3, [r4, #21]
 80065c4:	2b01      	cmp	r3, #1
 80065c6:	d17a      	bne.n	80066be <usbd_setup_process+0x2da>
 80065c8:	89e3      	ldrh	r3, [r4, #14]
 80065ca:	2b00      	cmp	r3, #0
 80065cc:	d077      	beq.n	80066be <usbd_setup_process+0x2da>
 80065ce:	76a3      	strb	r3, [r4, #26]
 80065d0:	2302      	movs	r3, #2
 80065d2:	2500      	movs	r5, #0
 80065d4:	6a26      	ldr	r6, [r4, #32]
 80065d6:	7563      	strb	r3, [r4, #21]
 80065d8:	6833      	ldr	r3, [r6, #0]
 80065da:	429d      	cmp	r5, r3
 80065dc:	d20f      	bcs.n	80065fe <usbd_setup_process+0x21a>
 80065de:	1c30      	adds	r0, r6, #0
 80065e0:	1c29      	adds	r1, r5, #0
 80065e2:	f7ff fc93 	bl	8005f0c <array_at>
 80065e6:	6803      	ldr	r3, [r0, #0]
 80065e8:	795a      	ldrb	r2, [r3, #5]
 80065ea:	7ea3      	ldrb	r3, [r4, #26]
 80065ec:	429a      	cmp	r2, r3
 80065ee:	d10e      	bne.n	800660e <usbd_setup_process+0x22a>
 80065f0:	1c30      	adds	r0, r6, #0
 80065f2:	1c29      	adds	r1, r5, #0
 80065f4:	f7ff fc8a 	bl	8005f0c <array_at>
 80065f8:	6807      	ldr	r7, [r0, #0]
 80065fa:	2f00      	cmp	r7, #0
 80065fc:	d109      	bne.n	8006612 <usbd_setup_process+0x22e>
 80065fe:	7ea1      	ldrb	r1, [r4, #26]
 8006600:	484c      	ldr	r0, [pc, #304]	; (8006734 <usbd_setup_process+0x350>)
 8006602:	f7fc fed4 	bl	80033ae <printf>
 8006606:	1c20      	adds	r0, r4, #0
 8006608:	f7ff fd72 	bl	80060f0 <usbd_fatal>
 800660c:	e057      	b.n	80066be <usbd_setup_process+0x2da>
 800660e:	3501      	adds	r5, #1
 8006610:	e7e2      	b.n	80065d8 <usbd_setup_process+0x1f4>
 8006612:	1c38      	adds	r0, r7, #0
 8006614:	f000 fcbe 	bl	8006f94 <usbdp_get_first_interface>
 8006618:	1c26      	adds	r6, r4, #0
 800661a:	2300      	movs	r3, #0
 800661c:	1c01      	adds	r1, r0, #0
 800661e:	3630      	adds	r6, #48	; 0x30
 8006620:	7033      	strb	r3, [r6, #0]
 8006622:	2900      	cmp	r1, #0
 8006624:	d00a      	beq.n	800663c <usbd_setup_process+0x258>
 8006626:	788b      	ldrb	r3, [r1, #2]
 8006628:	7832      	ldrb	r2, [r6, #0]
 800662a:	429a      	cmp	r2, r3
 800662c:	d801      	bhi.n	8006632 <usbd_setup_process+0x24e>
 800662e:	3301      	adds	r3, #1
 8006630:	7033      	strb	r3, [r6, #0]
 8006632:	1c38      	adds	r0, r7, #0
 8006634:	f000 fcc0 	bl	8006fb8 <usbdp_get_next_interface>
 8006638:	1c01      	adds	r1, r0, #0
 800663a:	e7f2      	b.n	8006622 <usbd_setup_process+0x23e>
 800663c:	1c0d      	adds	r5, r1, #0
 800663e:	7833      	ldrb	r3, [r6, #0]
 8006640:	429d      	cmp	r5, r3
 8006642:	dc05      	bgt.n	8006650 <usbd_setup_process+0x26c>
 8006644:	1c20      	adds	r0, r4, #0
 8006646:	3028      	adds	r0, #40	; 0x28
 8006648:	f7ff fc70 	bl	8005f2c <array_append>
 800664c:	3501      	adds	r5, #1
 800664e:	e7f6      	b.n	800663e <usbd_setup_process+0x25a>
 8006650:	2300      	movs	r3, #0
 8006652:	6aa5      	ldr	r5, [r4, #40]	; 0x28
 8006654:	9301      	str	r3, [sp, #4]
 8006656:	429d      	cmp	r5, r3
 8006658:	d10f      	bne.n	800667a <usbd_setup_process+0x296>
 800665a:	4837      	ldr	r0, [pc, #220]	; (8006738 <usbd_setup_process+0x354>)
 800665c:	f7fc fea7 	bl	80033ae <printf>
 8006660:	a903      	add	r1, sp, #12
 8006662:	1c2a      	adds	r2, r5, #0
 8006664:	1c2b      	adds	r3, r5, #0
 8006666:	2001      	movs	r0, #1
 8006668:	f7f9 fdb6 	bl	80001d8 <svc_call>
 800666c:	2006      	movs	r0, #6
 800666e:	9903      	ldr	r1, [sp, #12]
 8006670:	1c2a      	adds	r2, r5, #0
 8006672:	1c2b      	adds	r3, r5, #0
 8006674:	f7f9 fdb0 	bl	80001d8 <svc_call>
 8006678:	e0af      	b.n	80067da <usbd_setup_process+0x3f6>
 800667a:	7833      	ldrb	r3, [r6, #0]
 800667c:	9a01      	ldr	r2, [sp, #4]
 800667e:	4d2f      	ldr	r5, [pc, #188]	; (800673c <usbd_setup_process+0x358>)
 8006680:	429a      	cmp	r2, r3
 8006682:	da08      	bge.n	8006696 <usbd_setup_process+0x2b2>
 8006684:	6aa0      	ldr	r0, [r4, #40]	; 0x28
 8006686:	9901      	ldr	r1, [sp, #4]
 8006688:	f7ff fc40 	bl	8005f0c <array_at>
 800668c:	9b01      	ldr	r3, [sp, #4]
 800668e:	6005      	str	r5, [r0, #0]
 8006690:	3301      	adds	r3, #1
 8006692:	9301      	str	r3, [sp, #4]
 8006694:	e7f1      	b.n	800667a <usbd_setup_process+0x296>
 8006696:	1c22      	adds	r2, r4, #0
 8006698:	23ff      	movs	r3, #255	; 0xff
 800669a:	322c      	adds	r2, #44	; 0x2c
 800669c:	7013      	strb	r3, [r2, #0]
 800669e:	7053      	strb	r3, [r2, #1]
 80066a0:	7093      	strb	r3, [r2, #2]
 80066a2:	70d3      	strb	r3, [r2, #3]
 80066a4:	4b26      	ldr	r3, [pc, #152]	; (8006740 <usbd_setup_process+0x35c>)
 80066a6:	429d      	cmp	r5, r3
 80066a8:	d004      	beq.n	80066b4 <usbd_setup_process+0x2d0>
 80066aa:	681b      	ldr	r3, [r3, #0]
 80066ac:	1c20      	adds	r0, r4, #0
 80066ae:	1c39      	adds	r1, r7, #0
 80066b0:	9301      	str	r3, [sp, #4]
 80066b2:	4798      	blx	r3
 80066b4:	1c20      	adds	r0, r4, #0
 80066b6:	2103      	movs	r1, #3
 80066b8:	2200      	movs	r2, #0
 80066ba:	f7ff fcbd 	bl	8006038 <usbd_inform>
 80066be:	2500      	movs	r5, #0
 80066c0:	e08b      	b.n	80067da <usbd_setup_process+0x3f6>
 80066c2:	1c03      	adds	r3, r0, #0
 80066c4:	3330      	adds	r3, #48	; 0x30
 80066c6:	8a05      	ldrh	r5, [r0, #16]
 80066c8:	781b      	ldrb	r3, [r3, #0]
 80066ca:	429d      	cmp	r5, r3
 80066cc:	da12      	bge.n	80066f4 <usbd_setup_process+0x310>
 80066ce:	1c29      	adds	r1, r5, #0
 80066d0:	6a80      	ldr	r0, [r0, #40]	; 0x28
 80066d2:	f7ff fc1b 	bl	8005f0c <array_at>
 80066d6:	6803      	ldr	r3, [r0, #0]
 80066d8:	1c29      	adds	r1, r5, #0
 80066da:	6aa0      	ldr	r0, [r4, #40]	; 0x28
 80066dc:	691e      	ldr	r6, [r3, #16]
 80066de:	f7ff fc15 	bl	8005f0c <array_at>
 80066e2:	1c22      	adds	r2, r4, #0
 80066e4:	1c03      	adds	r3, r0, #0
 80066e6:	320c      	adds	r2, #12
 80066e8:	6859      	ldr	r1, [r3, #4]
 80066ea:	1c20      	adds	r0, r4, #0
 80066ec:	6863      	ldr	r3, [r4, #4]
 80066ee:	47b0      	blx	r6
 80066f0:	1c05      	adds	r5, r0, #0
 80066f2:	e072      	b.n	80067da <usbd_setup_process+0x3f6>
 80066f4:	4813      	ldr	r0, [pc, #76]	; (8006744 <usbd_setup_process+0x360>)
 80066f6:	f7fc fe5a 	bl	80033ae <printf>
 80066fa:	e06c      	b.n	80067d6 <usbd_setup_process+0x3f2>
 80066fc:	7b45      	ldrb	r5, [r0, #13]
 80066fe:	2d01      	cmp	r5, #1
 8006700:	d05a      	beq.n	80067b8 <usbd_setup_process+0x3d4>
 8006702:	2d00      	cmp	r5, #0
 8006704:	d020      	beq.n	8006748 <usbd_setup_process+0x364>
 8006706:	2d03      	cmp	r5, #3
 8006708:	d049      	beq.n	800679e <usbd_setup_process+0x3ba>
 800670a:	e064      	b.n	80067d6 <usbd_setup_process+0x3f2>
 800670c:	080087ea 	.word	0x080087ea
 8006710:	08008803 	.word	0x08008803
 8006714:	0800882b 	.word	0x0800882b
 8006718:	08008847 	.word	0x08008847
 800671c:	0800885d 	.word	0x0800885d
 8006720:	08008879 	.word	0x08008879
 8006724:	0800889f 	.word	0x0800889f
 8006728:	080088cb 	.word	0x080088cb
 800672c:	08008901 	.word	0x08008901
 8006730:	0800891a 	.word	0x0800891a
 8006734:	08008936 	.word	0x08008936
 8006738:	08008969 	.word	0x08008969
 800673c:	08008b3c 	.word	0x08008b3c
 8006740:	08008b5c 	.word	0x08008b5c
 8006744:	08008985 	.word	0x08008985
 8006748:	485f      	ldr	r0, [pc, #380]	; (80068c8 <usbd_setup_process+0x4e4>)
 800674a:	f7fc fe30 	bl	80033ae <printf>
 800674e:	22c0      	movs	r2, #192	; 0xc0
 8006750:	ab02      	add	r3, sp, #8
 8006752:	1c9e      	adds	r6, r3, #2
 8006754:	8035      	strh	r5, [r6, #0]
 8006756:	8a23      	ldrh	r3, [r4, #16]
 8006758:	02d2      	lsls	r2, r2, #11
 800675a:	4313      	orrs	r3, r2
 800675c:	4a5b      	ldr	r2, [pc, #364]	; (80068cc <usbd_setup_process+0x4e8>)
 800675e:	a803      	add	r0, sp, #12
 8006760:	9204      	str	r2, [sp, #16]
 8006762:	6822      	ldr	r2, [r4, #0]
 8006764:	9305      	str	r3, [sp, #20]
 8006766:	9203      	str	r2, [sp, #12]
 8006768:	9506      	str	r5, [sp, #24]
 800676a:	9507      	str	r5, [sp, #28]
 800676c:	f7ff fc10 	bl	8005f90 <ipc_call_ms.constprop.13>
 8006770:	9b06      	ldr	r3, [sp, #24]
 8006772:	9301      	str	r3, [sp, #4]
 8006774:	2b00      	cmp	r3, #0
 8006776:	d003      	beq.n	8006780 <usbd_setup_process+0x39c>
 8006778:	2201      	movs	r2, #1
 800677a:	8833      	ldrh	r3, [r6, #0]
 800677c:	4313      	orrs	r3, r2
 800677e:	8033      	strh	r3, [r6, #0]
 8006780:	2025      	movs	r0, #37	; 0x25
 8006782:	6861      	ldr	r1, [r4, #4]
 8006784:	aa03      	add	r2, sp, #12
 8006786:	2300      	movs	r3, #0
 8006788:	f7f9 fd26 	bl	80001d8 <svc_call>
 800678c:	9803      	ldr	r0, [sp, #12]
 800678e:	2800      	cmp	r0, #0
 8006790:	d021      	beq.n	80067d6 <usbd_setup_process+0x3f2>
 8006792:	1c31      	adds	r1, r6, #0
 8006794:	2202      	movs	r2, #2
 8006796:	f001 fa63 	bl	8007c60 <memcpy>
 800679a:	2502      	movs	r5, #2
 800679c:	e01d      	b.n	80067da <usbd_setup_process+0x3f6>
 800679e:	484c      	ldr	r0, [pc, #304]	; (80068d0 <usbd_setup_process+0x4ec>)
 80067a0:	f7fc fe05 	bl	80033ae <printf>
 80067a4:	89e5      	ldrh	r5, [r4, #14]
 80067a6:	2d00      	cmp	r5, #0
 80067a8:	d115      	bne.n	80067d6 <usbd_setup_process+0x3f2>
 80067aa:	22c0      	movs	r2, #192	; 0xc0
 80067ac:	8a23      	ldrh	r3, [r4, #16]
 80067ae:	02d2      	lsls	r2, r2, #11
 80067b0:	431a      	orrs	r2, r3
 80067b2:	6820      	ldr	r0, [r4, #0]
 80067b4:	4947      	ldr	r1, [pc, #284]	; (80068d4 <usbd_setup_process+0x4f0>)
 80067b6:	e00b      	b.n	80067d0 <usbd_setup_process+0x3ec>
 80067b8:	4847      	ldr	r0, [pc, #284]	; (80068d8 <usbd_setup_process+0x4f4>)
 80067ba:	f7fc fdf8 	bl	80033ae <printf>
 80067be:	89e5      	ldrh	r5, [r4, #14]
 80067c0:	2d00      	cmp	r5, #0
 80067c2:	d108      	bne.n	80067d6 <usbd_setup_process+0x3f2>
 80067c4:	22c0      	movs	r2, #192	; 0xc0
 80067c6:	8a23      	ldrh	r3, [r4, #16]
 80067c8:	02d2      	lsls	r2, r2, #11
 80067ca:	6820      	ldr	r0, [r4, #0]
 80067cc:	4943      	ldr	r1, [pc, #268]	; (80068dc <usbd_setup_process+0x4f8>)
 80067ce:	431a      	orrs	r2, r3
 80067d0:	f7ff fbef 	bl	8005fb2 <ack.constprop.11>
 80067d4:	e001      	b.n	80067da <usbd_setup_process+0x3f6>
 80067d6:	2501      	movs	r5, #1
 80067d8:	426d      	negs	r5, r5
 80067da:	8a62      	ldrh	r2, [r4, #18]
 80067dc:	7b21      	ldrb	r1, [r4, #12]
 80067de:	4295      	cmp	r5, r2
 80067e0:	dc02      	bgt.n	80067e8 <usbd_setup_process+0x404>
 80067e2:	2d00      	cmp	r5, #0
 80067e4:	db36      	blt.n	8006854 <usbd_setup_process+0x470>
 80067e6:	e000      	b.n	80067ea <usbd_setup_process+0x406>
 80067e8:	1c15      	adds	r5, r2, #0
 80067ea:	297f      	cmp	r1, #127	; 0x7f
 80067ec:	d806      	bhi.n	80067fc <usbd_setup_process+0x418>
 80067ee:	2305      	movs	r3, #5
 80067f0:	2101      	movs	r1, #1
 80067f2:	7523      	strb	r3, [r4, #20]
 80067f4:	6820      	ldr	r0, [r4, #0]
 80067f6:	4249      	negs	r1, r1
 80067f8:	2200      	movs	r2, #0
 80067fa:	e016      	b.n	800682a <usbd_setup_process+0x446>
 80067fc:	4295      	cmp	r5, r2
 80067fe:	da0e      	bge.n	800681e <usbd_setup_process+0x43a>
 8006800:	7e61      	ldrb	r1, [r4, #25]
 8006802:	1c28      	adds	r0, r5, #0
 8006804:	f001 fa02 	bl	8007c0c <__aeabi_idivmod>
 8006808:	2900      	cmp	r1, #0
 800680a:	d108      	bne.n	800681e <usbd_setup_process+0x43a>
 800680c:	2303      	movs	r3, #3
 800680e:	2d00      	cmp	r5, #0
 8006810:	d108      	bne.n	8006824 <usbd_setup_process+0x440>
 8006812:	2302      	movs	r3, #2
 8006814:	2101      	movs	r1, #1
 8006816:	7523      	strb	r3, [r4, #20]
 8006818:	6820      	ldr	r0, [r4, #0]
 800681a:	4249      	negs	r1, r1
 800681c:	e004      	b.n	8006828 <usbd_setup_process+0x444>
 800681e:	2d00      	cmp	r5, #0
 8006820:	d006      	beq.n	8006830 <usbd_setup_process+0x44c>
 8006822:	2302      	movs	r3, #2
 8006824:	7523      	strb	r3, [r4, #20]
 8006826:	cc03      	ldmia	r4!, {r0, r1}
 8006828:	1c2a      	adds	r2, r5, #0
 800682a:	f7ff fbeb 	bl	8006004 <fwrite_async.constprop.5>
 800682e:	e049      	b.n	80068c4 <usbd_setup_process+0x4e0>
 8006830:	2306      	movs	r3, #6
 8006832:	7523      	strb	r3, [r4, #20]
 8006834:	6823      	ldr	r3, [r4, #0]
 8006836:	a803      	add	r0, sp, #12
 8006838:	9303      	str	r3, [sp, #12]
 800683a:	2380      	movs	r3, #128	; 0x80
 800683c:	015b      	lsls	r3, r3, #5
 800683e:	9304      	str	r3, [sp, #16]
 8006840:	23c0      	movs	r3, #192	; 0xc0
 8006842:	02db      	lsls	r3, r3, #11
 8006844:	9305      	str	r3, [sp, #20]
 8006846:	2301      	movs	r3, #1
 8006848:	425b      	negs	r3, r3
 800684a:	9306      	str	r3, [sp, #24]
 800684c:	9507      	str	r5, [sp, #28]
 800684e:	f7ff fb97 	bl	8005f80 <ipc_post>
 8006852:	e037      	b.n	80068c4 <usbd_setup_process+0x4e0>
 8006854:	230f      	movs	r3, #15
 8006856:	400b      	ands	r3, r1
 8006858:	2b02      	cmp	r3, #2
 800685a:	d107      	bne.n	800686c <usbd_setup_process+0x488>
 800685c:	22c0      	movs	r2, #192	; 0xc0
 800685e:	8a23      	ldrh	r3, [r4, #16]
 8006860:	02d2      	lsls	r2, r2, #11
 8006862:	431a      	orrs	r2, r3
 8006864:	6820      	ldr	r0, [r4, #0]
 8006866:	491b      	ldr	r1, [pc, #108]	; (80068d4 <usbd_setup_process+0x4f0>)
 8006868:	f7ff fba3 	bl	8005fb2 <ack.constprop.11>
 800686c:	2300      	movs	r3, #0
 800686e:	481c      	ldr	r0, [pc, #112]	; (80068e0 <usbd_setup_process+0x4fc>)
 8006870:	7523      	strb	r3, [r4, #20]
 8006872:	f7fc fd9c 	bl	80033ae <printf>
 8006876:	230f      	movs	r3, #15
 8006878:	7b22      	ldrb	r2, [r4, #12]
 800687a:	4013      	ands	r3, r2
 800687c:	2b01      	cmp	r3, #1
 800687e:	d007      	beq.n	8006890 <usbd_setup_process+0x4ac>
 8006880:	2b00      	cmp	r3, #0
 8006882:	d003      	beq.n	800688c <usbd_setup_process+0x4a8>
 8006884:	2b02      	cmp	r3, #2
 8006886:	d106      	bne.n	8006896 <usbd_setup_process+0x4b2>
 8006888:	4816      	ldr	r0, [pc, #88]	; (80068e4 <usbd_setup_process+0x500>)
 800688a:	e002      	b.n	8006892 <usbd_setup_process+0x4ae>
 800688c:	4816      	ldr	r0, [pc, #88]	; (80068e8 <usbd_setup_process+0x504>)
 800688e:	e000      	b.n	8006892 <usbd_setup_process+0x4ae>
 8006890:	4816      	ldr	r0, [pc, #88]	; (80068ec <usbd_setup_process+0x508>)
 8006892:	f7fc fd8c 	bl	80033ae <printf>
 8006896:	4816      	ldr	r0, [pc, #88]	; (80068f0 <usbd_setup_process+0x50c>)
 8006898:	f7fc fd89 	bl	80033ae <printf>
 800689c:	7b21      	ldrb	r1, [r4, #12]
 800689e:	4815      	ldr	r0, [pc, #84]	; (80068f4 <usbd_setup_process+0x510>)
 80068a0:	f7fc fd85 	bl	80033ae <printf>
 80068a4:	7b61      	ldrb	r1, [r4, #13]
 80068a6:	4814      	ldr	r0, [pc, #80]	; (80068f8 <usbd_setup_process+0x514>)
 80068a8:	f7fc fd81 	bl	80033ae <printf>
 80068ac:	89e1      	ldrh	r1, [r4, #14]
 80068ae:	4813      	ldr	r0, [pc, #76]	; (80068fc <usbd_setup_process+0x518>)
 80068b0:	f7fc fd7d 	bl	80033ae <printf>
 80068b4:	8a21      	ldrh	r1, [r4, #16]
 80068b6:	4812      	ldr	r0, [pc, #72]	; (8006900 <usbd_setup_process+0x51c>)
 80068b8:	f7fc fd79 	bl	80033ae <printf>
 80068bc:	8a61      	ldrh	r1, [r4, #18]
 80068be:	4811      	ldr	r0, [pc, #68]	; (8006904 <usbd_setup_process+0x520>)
 80068c0:	f7fc fd75 	bl	80033ae <printf>
 80068c4:	b009      	add	sp, #36	; 0x24
 80068c6:	bdf0      	pop	{r4, r5, r6, r7, pc}
 80068c8:	080089ac 	.word	0x080089ac
 80068cc:	00070004 	.word	0x00070004
 80068d0:	080089c7 	.word	0x080089c7
 80068d4:	00070002 	.word	0x00070002
 80068d8:	080089e3 	.word	0x080089e3
 80068dc:	00070003 	.word	0x00070003
 80068e0:	08008a01 	.word	0x08008a01
 80068e4:	08008a1d 	.word	0x08008a1d
 80068e8:	08008a0c 	.word	0x08008a0c
 80068ec:	08008a13 	.word	0x08008a13
 80068f0:	08008a26 	.word	0x08008a26
 80068f4:	08008a31 	.word	0x08008a31
 80068f8:	08008a45 	.word	0x08008a45
 80068fc:	08008a54 	.word	0x08008a54
 8006900:	08008a61 	.word	0x08008a61
 8006904:	08008a6e 	.word	0x08008a6e

08006908 <usbd_read_complete>:
 8006908:	b510      	push	{r4, lr}
 800690a:	7d01      	ldrb	r1, [r0, #20]
 800690c:	1c04      	adds	r4, r0, #0
 800690e:	2904      	cmp	r1, #4
 8006910:	d005      	beq.n	800691e <usbd_read_complete+0x16>
 8006912:	2906      	cmp	r1, #6
 8006914:	d006      	beq.n	8006924 <usbd_read_complete+0x1c>
 8006916:	4805      	ldr	r0, [pc, #20]	; (800692c <usbd_read_complete+0x24>)
 8006918:	f7fc fd49 	bl	80033ae <printf>
 800691c:	e002      	b.n	8006924 <usbd_read_complete+0x1c>
 800691e:	f7ff fd61 	bl	80063e4 <usbd_setup_process>
 8006922:	e001      	b.n	8006928 <usbd_read_complete+0x20>
 8006924:	2300      	movs	r3, #0
 8006926:	7523      	strb	r3, [r4, #20]
 8006928:	bd10      	pop	{r4, pc}
 800692a:	46c0      	nop			; (mov r8, r8)
 800692c:	08008a7c 	.word	0x08008a7c

08006930 <usbd_write_complete>:
 8006930:	b510      	push	{r4, lr}
 8006932:	7d01      	ldrb	r1, [r0, #20]
 8006934:	b086      	sub	sp, #24
 8006936:	1c04      	adds	r4, r0, #0
 8006938:	2903      	cmp	r1, #3
 800693a:	d016      	beq.n	800696a <usbd_write_complete+0x3a>
 800693c:	2905      	cmp	r1, #5
 800693e:	d020      	beq.n	8006982 <usbd_write_complete+0x52>
 8006940:	2902      	cmp	r1, #2
 8006942:	d11b      	bne.n	800697c <usbd_write_complete+0x4c>
 8006944:	2306      	movs	r3, #6
 8006946:	7503      	strb	r3, [r0, #20]
 8006948:	6803      	ldr	r3, [r0, #0]
 800694a:	a801      	add	r0, sp, #4
 800694c:	9301      	str	r3, [sp, #4]
 800694e:	2380      	movs	r3, #128	; 0x80
 8006950:	015b      	lsls	r3, r3, #5
 8006952:	9302      	str	r3, [sp, #8]
 8006954:	23c0      	movs	r3, #192	; 0xc0
 8006956:	02db      	lsls	r3, r3, #11
 8006958:	9303      	str	r3, [sp, #12]
 800695a:	2301      	movs	r3, #1
 800695c:	425b      	negs	r3, r3
 800695e:	9304      	str	r3, [sp, #16]
 8006960:	2300      	movs	r3, #0
 8006962:	9305      	str	r3, [sp, #20]
 8006964:	f7ff fb0c 	bl	8005f80 <ipc_post>
 8006968:	e00d      	b.n	8006986 <usbd_write_complete+0x56>
 800696a:	2302      	movs	r3, #2
 800696c:	2101      	movs	r1, #1
 800696e:	7503      	strb	r3, [r0, #20]
 8006970:	4249      	negs	r1, r1
 8006972:	6800      	ldr	r0, [r0, #0]
 8006974:	2200      	movs	r2, #0
 8006976:	f7ff fb45 	bl	8006004 <fwrite_async.constprop.5>
 800697a:	e004      	b.n	8006986 <usbd_write_complete+0x56>
 800697c:	4803      	ldr	r0, [pc, #12]	; (800698c <usbd_write_complete+0x5c>)
 800697e:	f7fc fd16 	bl	80033ae <printf>
 8006982:	2300      	movs	r3, #0
 8006984:	7523      	strb	r3, [r4, #20]
 8006986:	b006      	add	sp, #24
 8006988:	bd10      	pop	{r4, pc}
 800698a:	46c0      	nop			; (mov r8, r8)
 800698c:	08008aa3 	.word	0x08008aa3

08006990 <usbd_device_request>:
 8006990:	b5f0      	push	{r4, r5, r6, r7, lr}
 8006992:	4ab4      	ldr	r2, [pc, #720]	; (8006c64 <usbd_device_request+0x2d4>)
 8006994:	684e      	ldr	r6, [r1, #4]
 8006996:	b087      	sub	sp, #28
 8006998:	1c04      	adds	r4, r0, #0
 800699a:	1c0b      	adds	r3, r1, #0
 800699c:	4296      	cmp	r6, r2
 800699e:	d100      	bne.n	80069a2 <usbd_device_request+0x12>
 80069a0:	e0b4      	b.n	8006b0c <usbd_device_request+0x17c>
 80069a2:	d819      	bhi.n	80069d8 <usbd_device_request+0x48>
 80069a4:	4db0      	ldr	r5, [pc, #704]	; (8006c68 <usbd_device_request+0x2d8>)
 80069a6:	42ae      	cmp	r6, r5
 80069a8:	d100      	bne.n	80069ac <usbd_device_request+0x1c>
 80069aa:	e0ff      	b.n	8006bac <usbd_device_request+0x21c>
 80069ac:	d80b      	bhi.n	80069c6 <usbd_device_request+0x36>
 80069ae:	2380      	movs	r3, #128	; 0x80
 80069b0:	015b      	lsls	r3, r3, #5
 80069b2:	429e      	cmp	r6, r3
 80069b4:	d100      	bne.n	80069b8 <usbd_device_request+0x28>
 80069b6:	e147      	b.n	8006c48 <usbd_device_request+0x2b8>
 80069b8:	4bac      	ldr	r3, [pc, #688]	; (8006c6c <usbd_device_request+0x2dc>)
 80069ba:	429e      	cmp	r6, r3
 80069bc:	d000      	beq.n	80069c0 <usbd_device_request+0x30>
 80069be:	e147      	b.n	8006c50 <usbd_device_request+0x2c0>
 80069c0:	f7ff ffb6 	bl	8006930 <usbd_write_complete>
 80069c4:	e142      	b.n	8006c4c <usbd_device_request+0x2bc>
 80069c6:	4aaa      	ldr	r2, [pc, #680]	; (8006c70 <usbd_device_request+0x2e0>)
 80069c8:	4296      	cmp	r6, r2
 80069ca:	d03b      	beq.n	8006a44 <usbd_device_request+0xb4>
 80069cc:	d86f      	bhi.n	8006aae <usbd_device_request+0x11e>
 80069ce:	4ba9      	ldr	r3, [pc, #676]	; (8006c74 <usbd_device_request+0x2e4>)
 80069d0:	429e      	cmp	r6, r3
 80069d2:	d100      	bne.n	80069d6 <usbd_device_request+0x46>
 80069d4:	e10f      	b.n	8006bf6 <usbd_device_request+0x266>
 80069d6:	e13b      	b.n	8006c50 <usbd_device_request+0x2c0>
 80069d8:	4aa7      	ldr	r2, [pc, #668]	; (8006c78 <usbd_device_request+0x2e8>)
 80069da:	4296      	cmp	r6, r2
 80069dc:	d019      	beq.n	8006a12 <usbd_device_request+0x82>
 80069de:	d80d      	bhi.n	80069fc <usbd_device_request+0x6c>
 80069e0:	4aa6      	ldr	r2, [pc, #664]	; (8006c7c <usbd_device_request+0x2ec>)
 80069e2:	4296      	cmp	r6, r2
 80069e4:	d100      	bne.n	80069e8 <usbd_device_request+0x58>
 80069e6:	e09d      	b.n	8006b24 <usbd_device_request+0x194>
 80069e8:	4aa5      	ldr	r2, [pc, #660]	; (8006c80 <usbd_device_request+0x2f0>)
 80069ea:	4296      	cmp	r6, r2
 80069ec:	d000      	beq.n	80069f0 <usbd_device_request+0x60>
 80069ee:	e12f      	b.n	8006c50 <usbd_device_request+0x2c0>
 80069f0:	68da      	ldr	r2, [r3, #12]
 80069f2:	7a09      	ldrb	r1, [r1, #8]
 80069f4:	681b      	ldr	r3, [r3, #0]
 80069f6:	f7ff fb99 	bl	800612c <usbd_register_descriptor>
 80069fa:	e12f      	b.n	8006c5c <usbd_device_request+0x2cc>
 80069fc:	4aa1      	ldr	r2, [pc, #644]	; (8006c84 <usbd_device_request+0x2f4>)
 80069fe:	4296      	cmp	r6, r2
 8006a00:	d013      	beq.n	8006a2a <usbd_device_request+0x9a>
 8006a02:	d30c      	bcc.n	8006a1e <usbd_device_request+0x8e>
 8006a04:	4aa0      	ldr	r2, [pc, #640]	; (8006c88 <usbd_device_request+0x2f8>)
 8006a06:	4296      	cmp	r6, r2
 8006a08:	d000      	beq.n	8006a0c <usbd_device_request+0x7c>
 8006a0a:	e121      	b.n	8006c50 <usbd_device_request+0x2c0>
 8006a0c:	7d42      	ldrb	r2, [r0, #21]
 8006a0e:	60ca      	str	r2, [r1, #12]
 8006a10:	e124      	b.n	8006c5c <usbd_device_request+0x2cc>
 8006a12:	68da      	ldr	r2, [r3, #12]
 8006a14:	7a09      	ldrb	r1, [r1, #8]
 8006a16:	691b      	ldr	r3, [r3, #16]
 8006a18:	f7ff fc49 	bl	80062ae <usbd_unregister_descriptor>
 8006a1c:	e11e      	b.n	8006c5c <usbd_device_request+0x2cc>
 8006a1e:	6882      	ldr	r2, [r0, #8]
 8006a20:	680b      	ldr	r3, [r1, #0]
 8006a22:	3201      	adds	r2, #1
 8006a24:	d000      	beq.n	8006a28 <usbd_device_request+0x98>
 8006a26:	e0c4      	b.n	8006bb2 <usbd_device_request+0x222>
 8006a28:	e00a      	b.n	8006a40 <usbd_device_request+0xb0>
 8006a2a:	680b      	ldr	r3, [r1, #0]
 8006a2c:	6882      	ldr	r2, [r0, #8]
 8006a2e:	429a      	cmp	r2, r3
 8006a30:	d004      	beq.n	8006a3c <usbd_device_request+0xac>
 8006a32:	2380      	movs	r3, #128	; 0x80
 8006a34:	059b      	lsls	r3, r3, #22
 8006a36:	681b      	ldr	r3, [r3, #0]
 8006a38:	220e      	movs	r2, #14
 8006a3a:	e10d      	b.n	8006c58 <usbd_device_request+0x2c8>
 8006a3c:	2301      	movs	r3, #1
 8006a3e:	425b      	negs	r3, r3
 8006a40:	60a3      	str	r3, [r4, #8]
 8006a42:	e10b      	b.n	8006c5c <usbd_device_request+0x2cc>
 8006a44:	7d43      	ldrb	r3, [r0, #21]
 8006a46:	68ce      	ldr	r6, [r1, #12]
 8006a48:	2b02      	cmp	r3, #2
 8006a4a:	d02d      	beq.n	8006aa8 <usbd_device_request+0x118>
 8006a4c:	488f      	ldr	r0, [pc, #572]	; (8006c8c <usbd_device_request+0x2fc>)
 8006a4e:	f7fc fcae 	bl	80033ae <printf>
 8006a52:	2300      	movs	r3, #0
 8006a54:	7563      	strb	r3, [r4, #21]
 8006a56:	7e63      	ldrb	r3, [r4, #25]
 8006a58:	2b00      	cmp	r3, #0
 8006a5a:	d008      	beq.n	8006a6e <usbd_device_request+0xde>
 8006a5c:	21c0      	movs	r1, #192	; 0xc0
 8006a5e:	6820      	ldr	r0, [r4, #0]
 8006a60:	02c9      	lsls	r1, r1, #11
 8006a62:	f7ff fac1 	bl	8005fe8 <fclose>
 8006a66:	6820      	ldr	r0, [r4, #0]
 8006a68:	4989      	ldr	r1, [pc, #548]	; (8006c90 <usbd_device_request+0x300>)
 8006a6a:	f7ff fabd 	bl	8005fe8 <fclose>
 8006a6e:	b2f3      	uxtb	r3, r6
 8006a70:	7623      	strb	r3, [r4, #24]
 8006a72:	2608      	movs	r6, #8
 8006a74:	2b00      	cmp	r3, #0
 8006a76:	d000      	beq.n	8006a7a <usbd_device_request+0xea>
 8006a78:	3638      	adds	r6, #56	; 0x38
 8006a7a:	6823      	ldr	r3, [r4, #0]
 8006a7c:	2700      	movs	r7, #0
 8006a7e:	9301      	str	r3, [sp, #4]
 8006a80:	23c0      	movs	r3, #192	; 0xc0
 8006a82:	a801      	add	r0, sp, #4
 8006a84:	02db      	lsls	r3, r3, #11
 8006a86:	7666      	strb	r6, [r4, #25]
 8006a88:	9303      	str	r3, [sp, #12]
 8006a8a:	9502      	str	r5, [sp, #8]
 8006a8c:	9704      	str	r7, [sp, #16]
 8006a8e:	9605      	str	r6, [sp, #20]
 8006a90:	f7ff fa7e 	bl	8005f90 <ipc_call_ms.constprop.13>
 8006a94:	6823      	ldr	r3, [r4, #0]
 8006a96:	a801      	add	r0, sp, #4
 8006a98:	9301      	str	r3, [sp, #4]
 8006a9a:	4b7d      	ldr	r3, [pc, #500]	; (8006c90 <usbd_device_request+0x300>)
 8006a9c:	9502      	str	r5, [sp, #8]
 8006a9e:	9303      	str	r3, [sp, #12]
 8006aa0:	9704      	str	r7, [sp, #16]
 8006aa2:	9605      	str	r6, [sp, #20]
 8006aa4:	f7ff fa74 	bl	8005f90 <ipc_call_ms.constprop.13>
 8006aa8:	2500      	movs	r5, #0
 8006aaa:	7525      	strb	r5, [r4, #20]
 8006aac:	e0d7      	b.n	8006c5e <usbd_device_request+0x2ce>
 8006aae:	7d43      	ldrb	r3, [r0, #21]
 8006ab0:	2500      	movs	r5, #0
 8006ab2:	2b02      	cmp	r3, #2
 8006ab4:	d000      	beq.n	8006ab8 <usbd_device_request+0x128>
 8006ab6:	e0d2      	b.n	8006c5e <usbd_device_request+0x2ce>
 8006ab8:	4876      	ldr	r0, [pc, #472]	; (8006c94 <usbd_device_request+0x304>)
 8006aba:	f7fc fc78 	bl	80033ae <printf>
 8006abe:	2101      	movs	r1, #1
 8006ac0:	1c20      	adds	r0, r4, #0
 8006ac2:	1c0a      	adds	r2, r1, #0
 8006ac4:	f7ff fab8 	bl	8006038 <usbd_inform>
 8006ac8:	1c23      	adds	r3, r4, #0
 8006aca:	3330      	adds	r3, #48	; 0x30
 8006acc:	781b      	ldrb	r3, [r3, #0]
 8006ace:	429d      	cmp	r5, r3
 8006ad0:	da0f      	bge.n	8006af2 <usbd_device_request+0x162>
 8006ad2:	1c29      	adds	r1, r5, #0
 8006ad4:	6aa0      	ldr	r0, [r4, #40]	; 0x28
 8006ad6:	f7ff fa19 	bl	8005f0c <array_at>
 8006ada:	6803      	ldr	r3, [r0, #0]
 8006adc:	1c29      	adds	r1, r5, #0
 8006ade:	6aa0      	ldr	r0, [r4, #40]	; 0x28
 8006ae0:	689e      	ldr	r6, [r3, #8]
 8006ae2:	f7ff fa13 	bl	8005f0c <array_at>
 8006ae6:	1c03      	adds	r3, r0, #0
 8006ae8:	1c20      	adds	r0, r4, #0
 8006aea:	6859      	ldr	r1, [r3, #4]
 8006aec:	47b0      	blx	r6
 8006aee:	3501      	adds	r5, #1
 8006af0:	e7ea      	b.n	8006ac8 <usbd_device_request+0x138>
 8006af2:	7e63      	ldrb	r3, [r4, #25]
 8006af4:	2b00      	cmp	r3, #0
 8006af6:	d0d7      	beq.n	8006aa8 <usbd_device_request+0x118>
 8006af8:	21c0      	movs	r1, #192	; 0xc0
 8006afa:	6820      	ldr	r0, [r4, #0]
 8006afc:	02c9      	lsls	r1, r1, #11
 8006afe:	f7ff fa65 	bl	8005fcc <fflush>
 8006b02:	6820      	ldr	r0, [r4, #0]
 8006b04:	4962      	ldr	r1, [pc, #392]	; (8006c90 <usbd_device_request+0x300>)
 8006b06:	f7ff fa61 	bl	8005fcc <fflush>
 8006b0a:	e7cd      	b.n	8006aa8 <usbd_device_request+0x118>
 8006b0c:	7d43      	ldrb	r3, [r0, #21]
 8006b0e:	2500      	movs	r5, #0
 8006b10:	2b02      	cmp	r3, #2
 8006b12:	d000      	beq.n	8006b16 <usbd_device_request+0x186>
 8006b14:	e0a3      	b.n	8006c5e <usbd_device_request+0x2ce>
 8006b16:	4860      	ldr	r0, [pc, #384]	; (8006c98 <usbd_device_request+0x308>)
 8006b18:	f7fc fc49 	bl	80033ae <printf>
 8006b1c:	1c20      	adds	r0, r4, #0
 8006b1e:	f7ff fac9 	bl	80060b4 <usbd_class_resume>
 8006b22:	e09c      	b.n	8006c5e <usbd_device_request+0x2ce>
 8006b24:	688a      	ldr	r2, [r1, #8]
 8006b26:	68cb      	ldr	r3, [r1, #12]
 8006b28:	7d01      	ldrb	r1, [r0, #20]
 8006b2a:	60c2      	str	r2, [r0, #12]
 8006b2c:	6103      	str	r3, [r0, #16]
 8006b2e:	2900      	cmp	r1, #0
 8006b30:	d01a      	beq.n	8006b68 <usbd_device_request+0x1d8>
 8006b32:	485a      	ldr	r0, [pc, #360]	; (8006c9c <usbd_device_request+0x30c>)
 8006b34:	f7fc fc3b 	bl	80033ae <printf>
 8006b38:	7d23      	ldrb	r3, [r4, #20]
 8006b3a:	3b02      	subs	r3, #2
 8006b3c:	b2db      	uxtb	r3, r3
 8006b3e:	2b04      	cmp	r3, #4
 8006b40:	d810      	bhi.n	8006b64 <usbd_device_request+0x1d4>
 8006b42:	2201      	movs	r2, #1
 8006b44:	409a      	lsls	r2, r3
 8006b46:	1c13      	adds	r3, r2, #0
 8006b48:	2214      	movs	r2, #20
 8006b4a:	4213      	tst	r3, r2
 8006b4c:	d105      	bne.n	8006b5a <usbd_device_request+0x1ca>
 8006b4e:	3a09      	subs	r2, #9
 8006b50:	4213      	tst	r3, r2
 8006b52:	d007      	beq.n	8006b64 <usbd_device_request+0x1d4>
 8006b54:	6820      	ldr	r0, [r4, #0]
 8006b56:	494e      	ldr	r1, [pc, #312]	; (8006c90 <usbd_device_request+0x300>)
 8006b58:	e002      	b.n	8006b60 <usbd_device_request+0x1d0>
 8006b5a:	21c0      	movs	r1, #192	; 0xc0
 8006b5c:	6820      	ldr	r0, [r4, #0]
 8006b5e:	02c9      	lsls	r1, r1, #11
 8006b60:	f7ff fa34 	bl	8005fcc <fflush>
 8006b64:	2300      	movs	r3, #0
 8006b66:	7523      	strb	r3, [r4, #20]
 8006b68:	7b23      	ldrb	r3, [r4, #12]
 8006b6a:	2b7f      	cmp	r3, #127	; 0x7f
 8006b6c:	d81a      	bhi.n	8006ba4 <usbd_device_request+0x214>
 8006b6e:	8a63      	ldrh	r3, [r4, #18]
 8006b70:	2b00      	cmp	r3, #0
 8006b72:	d017      	beq.n	8006ba4 <usbd_device_request+0x214>
 8006b74:	2080      	movs	r0, #128	; 0x80
 8006b76:	2204      	movs	r2, #4
 8006b78:	0140      	lsls	r0, r0, #5
 8006b7a:	9002      	str	r0, [sp, #8]
 8006b7c:	20c0      	movs	r0, #192	; 0xc0
 8006b7e:	7522      	strb	r2, [r4, #20]
 8006b80:	6861      	ldr	r1, [r4, #4]
 8006b82:	6822      	ldr	r2, [r4, #0]
 8006b84:	02c0      	lsls	r0, r0, #11
 8006b86:	9201      	str	r2, [sp, #4]
 8006b88:	9003      	str	r0, [sp, #12]
 8006b8a:	9104      	str	r1, [sp, #16]
 8006b8c:	9305      	str	r3, [sp, #20]
 8006b8e:	1c4b      	adds	r3, r1, #1
 8006b90:	d004      	beq.n	8006b9c <usbd_device_request+0x20c>
 8006b92:	2029      	movs	r0, #41	; 0x29
 8006b94:	ab01      	add	r3, sp, #4
 8006b96:	f7f9 fb1f 	bl	80001d8 <svc_call>
 8006b9a:	e057      	b.n	8006c4c <usbd_device_request+0x2bc>
 8006b9c:	a801      	add	r0, sp, #4
 8006b9e:	f7ff f9ef 	bl	8005f80 <ipc_post>
 8006ba2:	e053      	b.n	8006c4c <usbd_device_request+0x2bc>
 8006ba4:	1c20      	adds	r0, r4, #0
 8006ba6:	f7ff fc1d 	bl	80063e4 <usbd_setup_process>
 8006baa:	e04f      	b.n	8006c4c <usbd_device_request+0x2bc>
 8006bac:	6843      	ldr	r3, [r0, #4]
 8006bae:	3301      	adds	r3, #1
 8006bb0:	d004      	beq.n	8006bbc <usbd_device_request+0x22c>
 8006bb2:	2380      	movs	r3, #128	; 0x80
 8006bb4:	059b      	lsls	r3, r3, #22
 8006bb6:	681b      	ldr	r3, [r3, #0]
 8006bb8:	2206      	movs	r2, #6
 8006bba:	e04d      	b.n	8006c58 <usbd_device_request+0x2c8>
 8006bbc:	2300      	movs	r3, #0
 8006bbe:	2024      	movs	r0, #36	; 0x24
 8006bc0:	a901      	add	r1, sp, #4
 8006bc2:	2280      	movs	r2, #128	; 0x80
 8006bc4:	f7f9 fb08 	bl	80001d8 <svc_call>
 8006bc8:	9b01      	ldr	r3, [sp, #4]
 8006bca:	2501      	movs	r5, #1
 8006bcc:	6063      	str	r3, [r4, #4]
 8006bce:	3301      	adds	r3, #1
 8006bd0:	d045      	beq.n	8006c5e <usbd_device_request+0x2ce>
 8006bd2:	2300      	movs	r3, #0
 8006bd4:	6822      	ldr	r2, [r4, #0]
 8006bd6:	7523      	strb	r3, [r4, #20]
 8006bd8:	9201      	str	r2, [sp, #4]
 8006bda:	4a31      	ldr	r2, [pc, #196]	; (8006ca0 <usbd_device_request+0x310>)
 8006bdc:	7563      	strb	r3, [r4, #21]
 8006bde:	75e3      	strb	r3, [r4, #23]
 8006be0:	75a3      	strb	r3, [r4, #22]
 8006be2:	7623      	strb	r3, [r4, #24]
 8006be4:	7663      	strb	r3, [r4, #25]
 8006be6:	76a3      	strb	r3, [r4, #26]
 8006be8:	a801      	add	r0, sp, #4
 8006bea:	9602      	str	r6, [sp, #8]
 8006bec:	9203      	str	r2, [sp, #12]
 8006bee:	9304      	str	r3, [sp, #16]
 8006bf0:	f7ff f9ce 	bl	8005f90 <ipc_call_ms.constprop.13>
 8006bf4:	e033      	b.n	8006c5e <usbd_device_request+0x2ce>
 8006bf6:	6843      	ldr	r3, [r0, #4]
 8006bf8:	3301      	adds	r3, #1
 8006bfa:	d104      	bne.n	8006c06 <usbd_device_request+0x276>
 8006bfc:	2380      	movs	r3, #128	; 0x80
 8006bfe:	059b      	lsls	r3, r3, #22
 8006c00:	681b      	ldr	r3, [r3, #0]
 8006c02:	2205      	movs	r2, #5
 8006c04:	e028      	b.n	8006c58 <usbd_device_request+0x2c8>
 8006c06:	7d43      	ldrb	r3, [r0, #21]
 8006c08:	2b02      	cmp	r3, #2
 8006c0a:	d101      	bne.n	8006c10 <usbd_device_request+0x280>
 8006c0c:	f7ff fa2f 	bl	800606e <usbd_class_reset>
 8006c10:	7e63      	ldrb	r3, [r4, #25]
 8006c12:	2b00      	cmp	r3, #0
 8006c14:	d00a      	beq.n	8006c2c <usbd_device_request+0x29c>
 8006c16:	21c0      	movs	r1, #192	; 0xc0
 8006c18:	6820      	ldr	r0, [r4, #0]
 8006c1a:	02c9      	lsls	r1, r1, #11
 8006c1c:	f7ff f9e4 	bl	8005fe8 <fclose>
 8006c20:	6820      	ldr	r0, [r4, #0]
 8006c22:	491b      	ldr	r1, [pc, #108]	; (8006c90 <usbd_device_request+0x300>)
 8006c24:	f7ff f9e0 	bl	8005fe8 <fclose>
 8006c28:	2300      	movs	r3, #0
 8006c2a:	7663      	strb	r3, [r4, #25]
 8006c2c:	491c      	ldr	r1, [pc, #112]	; (8006ca0 <usbd_device_request+0x310>)
 8006c2e:	6820      	ldr	r0, [r4, #0]
 8006c30:	f7ff f9da 	bl	8005fe8 <fclose>
 8006c34:	2200      	movs	r2, #0
 8006c36:	202b      	movs	r0, #43	; 0x2b
 8006c38:	1c13      	adds	r3, r2, #0
 8006c3a:	6861      	ldr	r1, [r4, #4]
 8006c3c:	f7f9 facc 	bl	80001d8 <svc_call>
 8006c40:	2301      	movs	r3, #1
 8006c42:	425b      	negs	r3, r3
 8006c44:	6063      	str	r3, [r4, #4]
 8006c46:	e009      	b.n	8006c5c <usbd_device_request+0x2cc>
 8006c48:	f7ff fe5e 	bl	8006908 <usbd_read_complete>
 8006c4c:	2500      	movs	r5, #0
 8006c4e:	e006      	b.n	8006c5e <usbd_device_request+0x2ce>
 8006c50:	2380      	movs	r3, #128	; 0x80
 8006c52:	2202      	movs	r2, #2
 8006c54:	059b      	lsls	r3, r3, #22
 8006c56:	681b      	ldr	r3, [r3, #0]
 8006c58:	4252      	negs	r2, r2
 8006c5a:	601a      	str	r2, [r3, #0]
 8006c5c:	2501      	movs	r5, #1
 8006c5e:	1c28      	adds	r0, r5, #0
 8006c60:	b007      	add	sp, #28
 8006c62:	bdf0      	pop	{r4, r5, r6, r7, pc}
 8006c64:	00070007 	.word	0x00070007
 8006c68:	00001005 	.word	0x00001005
 8006c6c:	00001001 	.word	0x00001001
 8006c70:	00070005 	.word	0x00070005
 8006c74:	00001006 	.word	0x00001006
 8006c78:	000f0002 	.word	0x000f0002
 8006c7c:	00070008 	.word	0x00070008
 8006c80:	000f0001 	.word	0x000f0001
 8006c84:	000f0004 	.word	0x000f0004
 8006c88:	000f0007 	.word	0x000f0007
 8006c8c:	08008ac5 	.word	0x08008ac5
 8006c90:	00060080 	.word	0x00060080
 8006c94:	08008ad8 	.word	0x08008ad8
 8006c98:	08008aed 	.word	0x08008aed
 8006c9c:	08008b01 	.word	0x08008b01
 8006ca0:	000600ff 	.word	0x000600ff

08006ca4 <usbd_class_interface_request>:
 8006ca4:	b5f8      	push	{r3, r4, r5, r6, r7, lr}
 8006ca6:	1c03      	adds	r3, r0, #0
 8006ca8:	3330      	adds	r3, #48	; 0x30
 8006caa:	781b      	ldrb	r3, [r3, #0]
 8006cac:	429a      	cmp	r2, r3
 8006cae:	d307      	bcc.n	8006cc0 <usbd_class_interface_request+0x1c>
 8006cb0:	2380      	movs	r3, #128	; 0x80
 8006cb2:	2207      	movs	r2, #7
 8006cb4:	059b      	lsls	r3, r3, #22
 8006cb6:	681b      	ldr	r3, [r3, #0]
 8006cb8:	4252      	negs	r2, r2
 8006cba:	601a      	str	r2, [r3, #0]
 8006cbc:	2001      	movs	r0, #1
 8006cbe:	e011      	b.n	8006ce4 <usbd_class_interface_request+0x40>
 8006cc0:	1c04      	adds	r4, r0, #0
 8006cc2:	1c0e      	adds	r6, r1, #0
 8006cc4:	6a80      	ldr	r0, [r0, #40]	; 0x28
 8006cc6:	1c11      	adds	r1, r2, #0
 8006cc8:	1c15      	adds	r5, r2, #0
 8006cca:	f7ff f91f 	bl	8005f0c <array_at>
 8006cce:	6803      	ldr	r3, [r0, #0]
 8006cd0:	1c29      	adds	r1, r5, #0
 8006cd2:	6aa0      	ldr	r0, [r4, #40]	; 0x28
 8006cd4:	695f      	ldr	r7, [r3, #20]
 8006cd6:	f7ff f919 	bl	8005f0c <array_at>
 8006cda:	1c03      	adds	r3, r0, #0
 8006cdc:	1c32      	adds	r2, r6, #0
 8006cde:	1c20      	adds	r0, r4, #0
 8006ce0:	6859      	ldr	r1, [r3, #4]
 8006ce2:	47b8      	blx	r7
 8006ce4:	bdf8      	pop	{r3, r4, r5, r6, r7, pc}

08006ce6 <usbd_class_endpoint_request>:
 8006ce6:	b5f8      	push	{r3, r4, r5, r6, r7, lr}
 8006ce8:	2a03      	cmp	r2, #3
 8006cea:	d808      	bhi.n	8006cfe <usbd_class_endpoint_request+0x18>
 8006cec:	1883      	adds	r3, r0, r2
 8006cee:	1c02      	adds	r2, r0, #0
 8006cf0:	3328      	adds	r3, #40	; 0x28
 8006cf2:	3230      	adds	r2, #48	; 0x30
 8006cf4:	1c1d      	adds	r5, r3, #0
 8006cf6:	7812      	ldrb	r2, [r2, #0]
 8006cf8:	791b      	ldrb	r3, [r3, #4]
 8006cfa:	429a      	cmp	r2, r3
 8006cfc:	d807      	bhi.n	8006d0e <usbd_class_endpoint_request+0x28>
 8006cfe:	2380      	movs	r3, #128	; 0x80
 8006d00:	2207      	movs	r2, #7
 8006d02:	059b      	lsls	r3, r3, #22
 8006d04:	681b      	ldr	r3, [r3, #0]
 8006d06:	4252      	negs	r2, r2
 8006d08:	601a      	str	r2, [r3, #0]
 8006d0a:	2001      	movs	r0, #1
 8006d0c:	e010      	b.n	8006d30 <usbd_class_endpoint_request+0x4a>
 8006d0e:	1c04      	adds	r4, r0, #0
 8006d10:	1c0e      	adds	r6, r1, #0
 8006d12:	6a80      	ldr	r0, [r0, #40]	; 0x28
 8006d14:	1c19      	adds	r1, r3, #0
 8006d16:	f7ff f8f9 	bl	8005f0c <array_at>
 8006d1a:	6803      	ldr	r3, [r0, #0]
 8006d1c:	7929      	ldrb	r1, [r5, #4]
 8006d1e:	6aa0      	ldr	r0, [r4, #40]	; 0x28
 8006d20:	695f      	ldr	r7, [r3, #20]
 8006d22:	f7ff f8f3 	bl	8005f0c <array_at>
 8006d26:	1c03      	adds	r3, r0, #0
 8006d28:	1c32      	adds	r2, r6, #0
 8006d2a:	1c20      	adds	r0, r4, #0
 8006d2c:	6859      	ldr	r1, [r3, #4]
 8006d2e:	47b8      	blx	r7
 8006d30:	bdf8      	pop	{r3, r4, r5, r6, r7, pc}
 8006d32:	0000      	movs	r0, r0

08006d34 <usbd>:
 8006d34:	2301      	movs	r3, #1
 8006d36:	2100      	movs	r1, #0
 8006d38:	b530      	push	{r4, r5, lr}
 8006d3a:	425b      	negs	r3, r3
 8006d3c:	b097      	sub	sp, #92	; 0x5c
 8006d3e:	9309      	str	r3, [sp, #36]	; 0x24
 8006d40:	202d      	movs	r0, #45	; 0x2d
 8006d42:	1c0b      	adds	r3, r1, #0
 8006d44:	aa09      	add	r2, sp, #36	; 0x24
 8006d46:	f7f9 fa47 	bl	80001d8 <svc_call>
 8006d4a:	9909      	ldr	r1, [sp, #36]	; 0x24
 8006d4c:	1c4b      	adds	r3, r1, #1
 8006d4e:	d00a      	beq.n	8006d66 <usbd+0x32>
 8006d50:	2380      	movs	r3, #128	; 0x80
 8006d52:	059b      	lsls	r3, r3, #22
 8006d54:	681c      	ldr	r4, [r3, #0]
 8006d56:	2300      	movs	r3, #0
 8006d58:	2018      	movs	r0, #24
 8006d5a:	aa09      	add	r2, sp, #36	; 0x24
 8006d5c:	9309      	str	r3, [sp, #36]	; 0x24
 8006d5e:	f7f9 fa3b 	bl	80001d8 <svc_call>
 8006d62:	9b09      	ldr	r3, [sp, #36]	; 0x24
 8006d64:	6163      	str	r3, [r4, #20]
 8006d66:	2200      	movs	r2, #0
 8006d68:	2401      	movs	r4, #1
 8006d6a:	2500      	movs	r5, #0
 8006d6c:	1c13      	adds	r3, r2, #0
 8006d6e:	2001      	movs	r0, #1
 8006d70:	a909      	add	r1, sp, #36	; 0x24
 8006d72:	f7f9 fa31 	bl	80001d8 <svc_call>
 8006d76:	202c      	movs	r0, #44	; 0x2c
 8006d78:	2102      	movs	r1, #2
 8006d7a:	9a09      	ldr	r2, [sp, #36]	; 0x24
 8006d7c:	2300      	movs	r3, #0
 8006d7e:	f7f9 fa2b 	bl	80001d8 <svc_call>
 8006d82:	4264      	negs	r4, r4
 8006d84:	202d      	movs	r0, #45	; 0x2d
 8006d86:	2101      	movs	r1, #1
 8006d88:	aa04      	add	r2, sp, #16
 8006d8a:	2300      	movs	r3, #0
 8006d8c:	940b      	str	r4, [sp, #44]	; 0x2c
 8006d8e:	9404      	str	r4, [sp, #16]
 8006d90:	f7f9 fa22 	bl	80001d8 <svc_call>
 8006d94:	9b04      	ldr	r3, [sp, #16]
 8006d96:	2104      	movs	r1, #4
 8006d98:	2201      	movs	r2, #1
 8006d9a:	a811      	add	r0, sp, #68	; 0x44
 8006d9c:	9309      	str	r3, [sp, #36]	; 0x24
 8006d9e:	9510      	str	r5, [sp, #64]	; 0x40
 8006da0:	940a      	str	r4, [sp, #40]	; 0x28
 8006da2:	f7ff f8ab 	bl	8005efc <array_create>
 8006da6:	2108      	movs	r1, #8
 8006da8:	2201      	movs	r2, #1
 8006daa:	a813      	add	r0, sp, #76	; 0x4c
 8006dac:	f7ff f8a6 	bl	8005efc <array_create>
 8006db0:	2203      	movs	r2, #3
 8006db2:	a812      	add	r0, sp, #72	; 0x48
 8006db4:	2108      	movs	r1, #8
 8006db6:	f7ff f8a1 	bl	8005efc <array_create>
 8006dba:	ab15      	add	r3, sp, #84	; 0x54
 8006dbc:	701d      	strb	r5, [r3, #0]
 8006dbe:	ab14      	add	r3, sp, #80	; 0x50
 8006dc0:	701c      	strb	r4, [r3, #0]
 8006dc2:	2349      	movs	r3, #73	; 0x49
 8006dc4:	aa02      	add	r2, sp, #8
 8006dc6:	189b      	adds	r3, r3, r2
 8006dc8:	22ff      	movs	r2, #255	; 0xff
 8006dca:	701a      	strb	r2, [r3, #0]
 8006dcc:	234a      	movs	r3, #74	; 0x4a
 8006dce:	aa02      	add	r2, sp, #8
 8006dd0:	189b      	adds	r3, r3, r2
 8006dd2:	701c      	strb	r4, [r3, #0]
 8006dd4:	234b      	movs	r3, #75	; 0x4b
 8006dd6:	189b      	adds	r3, r3, r2
 8006dd8:	701c      	strb	r4, [r3, #0]
 8006dda:	2480      	movs	r4, #128	; 0x80
 8006ddc:	05a4      	lsls	r4, r4, #22
 8006dde:	68a3      	ldr	r3, [r4, #8]
 8006de0:	2000      	movs	r0, #0
 8006de2:	689b      	ldr	r3, [r3, #8]
 8006de4:	a902      	add	r1, sp, #8
 8006de6:	699b      	ldr	r3, [r3, #24]
 8006de8:	4798      	blx	r3
 8006dea:	2302      	movs	r3, #2
 8006dec:	a904      	add	r1, sp, #16
 8006dee:	aa02      	add	r2, sp, #8
 8006df0:	425b      	negs	r3, r3
 8006df2:	2015      	movs	r0, #21
 8006df4:	f7f9 f9f0 	bl	80001d8 <svc_call>
 8006df8:	2300      	movs	r3, #0
 8006dfa:	6821      	ldr	r1, [r4, #0]
 8006dfc:	4a22      	ldr	r2, [pc, #136]	; (8006e88 <usbd+0x154>)
 8006dfe:	600b      	str	r3, [r1, #0]
 8006e00:	9b05      	ldr	r3, [sp, #20]
 8006e02:	4293      	cmp	r3, r2
 8006e04:	d807      	bhi.n	8006e16 <usbd+0xe2>
 8006e06:	3a01      	subs	r2, #1
 8006e08:	4293      	cmp	r3, r2
 8006e0a:	d20d      	bcs.n	8006e28 <usbd+0xf4>
 8006e0c:	2b00      	cmp	r3, #0
 8006e0e:	d02e      	beq.n	8006e6e <usbd+0x13a>
 8006e10:	2b01      	cmp	r3, #1
 8006e12:	d126      	bne.n	8006e62 <usbd+0x12e>
 8006e14:	e008      	b.n	8006e28 <usbd+0xf4>
 8006e16:	4a1d      	ldr	r2, [pc, #116]	; (8006e8c <usbd+0x158>)
 8006e18:	4293      	cmp	r3, r2
 8006e1a:	d322      	bcc.n	8006e62 <usbd+0x12e>
 8006e1c:	4a1c      	ldr	r2, [pc, #112]	; (8006e90 <usbd+0x15c>)
 8006e1e:	4293      	cmp	r3, r2
 8006e20:	d902      	bls.n	8006e28 <usbd+0xf4>
 8006e22:	4a1c      	ldr	r2, [pc, #112]	; (8006e94 <usbd+0x160>)
 8006e24:	4293      	cmp	r3, r2
 8006e26:	d11c      	bne.n	8006e62 <usbd+0x12e>
 8006e28:	9a06      	ldr	r2, [sp, #24]
 8006e2a:	0c13      	lsrs	r3, r2, #16
 8006e2c:	2b06      	cmp	r3, #6
 8006e2e:	d00c      	beq.n	8006e4a <usbd+0x116>
 8006e30:	2b0e      	cmp	r3, #14
 8006e32:	d112      	bne.n	8006e5a <usbd+0x126>
 8006e34:	b292      	uxth	r2, r2
 8006e36:	2a00      	cmp	r2, #0
 8006e38:	d013      	beq.n	8006e62 <usbd+0x12e>
 8006e3a:	3a01      	subs	r2, #1
 8006e3c:	3aff      	subs	r2, #255	; 0xff
 8006e3e:	0a12      	lsrs	r2, r2, #8
 8006e40:	a809      	add	r0, sp, #36	; 0x24
 8006e42:	a904      	add	r1, sp, #16
 8006e44:	f7ff ff2e 	bl	8006ca4 <usbd_class_interface_request>
 8006e48:	e00f      	b.n	8006e6a <usbd+0x136>
 8006e4a:	237f      	movs	r3, #127	; 0x7f
 8006e4c:	401a      	ands	r2, r3
 8006e4e:	d008      	beq.n	8006e62 <usbd+0x12e>
 8006e50:	a809      	add	r0, sp, #36	; 0x24
 8006e52:	a904      	add	r1, sp, #16
 8006e54:	f7ff ff47 	bl	8006ce6 <usbd_class_endpoint_request>
 8006e58:	e7bf      	b.n	8006dda <usbd+0xa6>
 8006e5a:	2302      	movs	r3, #2
 8006e5c:	425b      	negs	r3, r3
 8006e5e:	600b      	str	r3, [r1, #0]
 8006e60:	e005      	b.n	8006e6e <usbd+0x13a>
 8006e62:	a809      	add	r0, sp, #36	; 0x24
 8006e64:	a904      	add	r1, sp, #16
 8006e66:	f7ff fd93 	bl	8006990 <usbd_device_request>
 8006e6a:	2800      	cmp	r0, #0
 8006e6c:	d0b5      	beq.n	8006dda <usbd+0xa6>
 8006e6e:	2380      	movs	r3, #128	; 0x80
 8006e70:	2200      	movs	r2, #0
 8006e72:	059b      	lsls	r3, r3, #22
 8006e74:	681b      	ldr	r3, [r3, #0]
 8006e76:	2014      	movs	r0, #20
 8006e78:	681b      	ldr	r3, [r3, #0]
 8006e7a:	a904      	add	r1, sp, #16
 8006e7c:	9301      	str	r3, [sp, #4]
 8006e7e:	9308      	str	r3, [sp, #32]
 8006e80:	1c13      	adds	r3, r2, #0
 8006e82:	f7f9 f9a9 	bl	80001d8 <svc_call>
 8006e86:	e7a8      	b.n	8006dda <usbd+0xa6>
 8006e88:	00001001 	.word	0x00001001
 8006e8c:	00001003 	.word	0x00001003
 8006e90:	00001008 	.word	0x00001008
 8006e94:	000f0005 	.word	0x000f0005

08006e98 <usbd_register_interface>:
 8006e98:	b5f8      	push	{r3, r4, r5, r6, r7, lr}
 8006e9a:	1c04      	adds	r4, r0, #0
 8006e9c:	3430      	adds	r4, #48	; 0x30
 8006e9e:	7824      	ldrb	r4, [r4, #0]
 8006ea0:	42a1      	cmp	r1, r4
 8006ea2:	d301      	bcc.n	8006ea8 <usbd_register_interface+0x10>
 8006ea4:	2000      	movs	r0, #0
 8006ea6:	e015      	b.n	8006ed4 <usbd_register_interface+0x3c>
 8006ea8:	1c05      	adds	r5, r0, #0
 8006eaa:	6a80      	ldr	r0, [r0, #40]	; 0x28
 8006eac:	1c1e      	adds	r6, r3, #0
 8006eae:	1c17      	adds	r7, r2, #0
 8006eb0:	1c0c      	adds	r4, r1, #0
 8006eb2:	f7ff f82b 	bl	8005f0c <array_at>
 8006eb6:	4b08      	ldr	r3, [pc, #32]	; (8006ed8 <usbd_register_interface+0x40>)
 8006eb8:	6802      	ldr	r2, [r0, #0]
 8006eba:	429a      	cmp	r2, r3
 8006ebc:	d1f2      	bne.n	8006ea4 <usbd_register_interface+0xc>
 8006ebe:	1c21      	adds	r1, r4, #0
 8006ec0:	6aa8      	ldr	r0, [r5, #40]	; 0x28
 8006ec2:	f7ff f823 	bl	8005f0c <array_at>
 8006ec6:	1c21      	adds	r1, r4, #0
 8006ec8:	6007      	str	r7, [r0, #0]
 8006eca:	6aa8      	ldr	r0, [r5, #40]	; 0x28
 8006ecc:	f7ff f81e 	bl	8005f0c <array_at>
 8006ed0:	6046      	str	r6, [r0, #4]
 8006ed2:	2001      	movs	r0, #1
 8006ed4:	bdf8      	pop	{r3, r4, r5, r6, r7, pc}
 8006ed6:	46c0      	nop			; (mov r8, r8)
 8006ed8:	08008b3c 	.word	0x08008b3c

08006edc <usbd_unregister_interface>:
 8006edc:	1c03      	adds	r3, r0, #0
 8006ede:	b570      	push	{r4, r5, r6, lr}
 8006ee0:	3330      	adds	r3, #48	; 0x30
 8006ee2:	781b      	ldrb	r3, [r3, #0]
 8006ee4:	4299      	cmp	r1, r3
 8006ee6:	d301      	bcc.n	8006eec <usbd_unregister_interface+0x10>
 8006ee8:	2000      	movs	r0, #0
 8006eea:	e00f      	b.n	8006f0c <usbd_unregister_interface+0x30>
 8006eec:	1c05      	adds	r5, r0, #0
 8006eee:	6a80      	ldr	r0, [r0, #40]	; 0x28
 8006ef0:	1c16      	adds	r6, r2, #0
 8006ef2:	1c0c      	adds	r4, r1, #0
 8006ef4:	f7ff f80a 	bl	8005f0c <array_at>
 8006ef8:	6803      	ldr	r3, [r0, #0]
 8006efa:	42b3      	cmp	r3, r6
 8006efc:	d1f4      	bne.n	8006ee8 <usbd_unregister_interface+0xc>
 8006efe:	6aa8      	ldr	r0, [r5, #40]	; 0x28
 8006f00:	1c21      	adds	r1, r4, #0
 8006f02:	f7ff f803 	bl	8005f0c <array_at>
 8006f06:	4b02      	ldr	r3, [pc, #8]	; (8006f10 <usbd_unregister_interface+0x34>)
 8006f08:	6003      	str	r3, [r0, #0]
 8006f0a:	2001      	movs	r0, #1
 8006f0c:	bd70      	pop	{r4, r5, r6, pc}
 8006f0e:	46c0      	nop			; (mov r8, r8)
 8006f10:	08008b3c 	.word	0x08008b3c

08006f14 <usbd_register_endpoint>:
 8006f14:	1c03      	adds	r3, r0, #0
 8006f16:	b570      	push	{r4, r5, r6, lr}
 8006f18:	3330      	adds	r3, #48	; 0x30
 8006f1a:	781b      	ldrb	r3, [r3, #0]
 8006f1c:	1c06      	adds	r6, r0, #0
 8006f1e:	1c0d      	adds	r5, r1, #0
 8006f20:	1c14      	adds	r4, r2, #0
 8006f22:	4299      	cmp	r1, r3
 8006f24:	d301      	bcc.n	8006f2a <usbd_register_endpoint+0x16>
 8006f26:	2000      	movs	r0, #0
 8006f28:	e00f      	b.n	8006f4a <usbd_register_endpoint+0x36>
 8006f2a:	2a03      	cmp	r2, #3
 8006f2c:	d8fb      	bhi.n	8006f26 <usbd_register_endpoint+0x12>
 8006f2e:	6a80      	ldr	r0, [r0, #40]	; 0x28
 8006f30:	f7fe ffec 	bl	8005f0c <array_at>
 8006f34:	4b05      	ldr	r3, [pc, #20]	; (8006f4c <usbd_register_endpoint+0x38>)
 8006f36:	6802      	ldr	r2, [r0, #0]
 8006f38:	429a      	cmp	r2, r3
 8006f3a:	d0f4      	beq.n	8006f26 <usbd_register_endpoint+0x12>
 8006f3c:	1934      	adds	r4, r6, r4
 8006f3e:	3428      	adds	r4, #40	; 0x28
 8006f40:	7923      	ldrb	r3, [r4, #4]
 8006f42:	2bff      	cmp	r3, #255	; 0xff
 8006f44:	d1ef      	bne.n	8006f26 <usbd_register_endpoint+0x12>
 8006f46:	2001      	movs	r0, #1
 8006f48:	7125      	strb	r5, [r4, #4]
 8006f4a:	bd70      	pop	{r4, r5, r6, pc}
 8006f4c:	08008b3c 	.word	0x08008b3c

08006f50 <usbd_unregister_endpoint>:
 8006f50:	1c03      	adds	r3, r0, #0
 8006f52:	b570      	push	{r4, r5, r6, lr}
 8006f54:	3330      	adds	r3, #48	; 0x30
 8006f56:	781b      	ldrb	r3, [r3, #0]
 8006f58:	4299      	cmp	r1, r3
 8006f5a:	d301      	bcc.n	8006f60 <usbd_unregister_endpoint+0x10>
 8006f5c:	2000      	movs	r0, #0
 8006f5e:	e013      	b.n	8006f88 <usbd_unregister_endpoint+0x38>
 8006f60:	2a03      	cmp	r2, #3
 8006f62:	d8fb      	bhi.n	8006f5c <usbd_unregister_endpoint+0xc>
 8006f64:	1c06      	adds	r6, r0, #0
 8006f66:	6a80      	ldr	r0, [r0, #40]	; 0x28
 8006f68:	1c14      	adds	r4, r2, #0
 8006f6a:	1c0d      	adds	r5, r1, #0
 8006f6c:	f7fe ffce 	bl	8005f0c <array_at>
 8006f70:	4b06      	ldr	r3, [pc, #24]	; (8006f8c <usbd_unregister_endpoint+0x3c>)
 8006f72:	6802      	ldr	r2, [r0, #0]
 8006f74:	429a      	cmp	r2, r3
 8006f76:	d0f1      	beq.n	8006f5c <usbd_unregister_endpoint+0xc>
 8006f78:	1932      	adds	r2, r6, r4
 8006f7a:	3228      	adds	r2, #40	; 0x28
 8006f7c:	7913      	ldrb	r3, [r2, #4]
 8006f7e:	42ab      	cmp	r3, r5
 8006f80:	d1ec      	bne.n	8006f5c <usbd_unregister_endpoint+0xc>
 8006f82:	23ff      	movs	r3, #255	; 0xff
 8006f84:	2001      	movs	r0, #1
 8006f86:	7113      	strb	r3, [r2, #4]
 8006f88:	bd70      	pop	{r4, r5, r6, pc}
 8006f8a:	46c0      	nop			; (mov r8, r8)
 8006f8c:	08008b3c 	.word	0x08008b3c

08006f90 <usbd_usb>:
 8006f90:	6800      	ldr	r0, [r0, #0]
 8006f92:	4770      	bx	lr

08006f94 <usbdp_get_first_interface>:
 8006f94:	78c2      	ldrb	r2, [r0, #3]
 8006f96:	7883      	ldrb	r3, [r0, #2]
 8006f98:	0212      	lsls	r2, r2, #8
 8006f9a:	431a      	orrs	r2, r3
 8006f9c:	1c03      	adds	r3, r0, #0
 8006f9e:	1a19      	subs	r1, r3, r0
 8006fa0:	4291      	cmp	r1, r2
 8006fa2:	d205      	bcs.n	8006fb0 <usbdp_get_first_interface+0x1c>
 8006fa4:	7859      	ldrb	r1, [r3, #1]
 8006fa6:	2904      	cmp	r1, #4
 8006fa8:	d004      	beq.n	8006fb4 <usbdp_get_first_interface+0x20>
 8006faa:	7819      	ldrb	r1, [r3, #0]
 8006fac:	185b      	adds	r3, r3, r1
 8006fae:	e7f6      	b.n	8006f9e <usbdp_get_first_interface+0xa>
 8006fb0:	2000      	movs	r0, #0
 8006fb2:	e000      	b.n	8006fb6 <usbdp_get_first_interface+0x22>
 8006fb4:	1c18      	adds	r0, r3, #0
 8006fb6:	4770      	bx	lr

08006fb8 <usbdp_get_next_interface>:
 8006fb8:	780b      	ldrb	r3, [r1, #0]
 8006fba:	7882      	ldrb	r2, [r0, #2]
 8006fbc:	18c9      	adds	r1, r1, r3
 8006fbe:	78c3      	ldrb	r3, [r0, #3]
 8006fc0:	021b      	lsls	r3, r3, #8
 8006fc2:	4313      	orrs	r3, r2
 8006fc4:	1a0a      	subs	r2, r1, r0
 8006fc6:	429a      	cmp	r2, r3
 8006fc8:	d205      	bcs.n	8006fd6 <usbdp_get_next_interface+0x1e>
 8006fca:	784a      	ldrb	r2, [r1, #1]
 8006fcc:	2a04      	cmp	r2, #4
 8006fce:	d004      	beq.n	8006fda <usbdp_get_next_interface+0x22>
 8006fd0:	780a      	ldrb	r2, [r1, #0]
 8006fd2:	1889      	adds	r1, r1, r2
 8006fd4:	e7f6      	b.n	8006fc4 <usbdp_get_next_interface+0xc>
 8006fd6:	2000      	movs	r0, #0
 8006fd8:	e000      	b.n	8006fdc <usbdp_get_next_interface+0x24>
 8006fda:	1c08      	adds	r0, r1, #0
 8006fdc:	4770      	bx	lr

08006fde <usbdp_interface_get_first_descriptor>:
 8006fde:	b510      	push	{r4, lr}
 8006fe0:	780b      	ldrb	r3, [r1, #0]
 8006fe2:	7884      	ldrb	r4, [r0, #2]
 8006fe4:	18c9      	adds	r1, r1, r3
 8006fe6:	78c3      	ldrb	r3, [r0, #3]
 8006fe8:	021b      	lsls	r3, r3, #8
 8006fea:	4323      	orrs	r3, r4
 8006fec:	1a0c      	subs	r4, r1, r0
 8006fee:	429c      	cmp	r4, r3
 8006ff0:	d207      	bcs.n	8007002 <usbdp_interface_get_first_descriptor+0x24>
 8006ff2:	784c      	ldrb	r4, [r1, #1]
 8006ff4:	4294      	cmp	r4, r2
 8006ff6:	d006      	beq.n	8007006 <usbdp_interface_get_first_descriptor+0x28>
 8006ff8:	2a00      	cmp	r2, #0
 8006ffa:	d004      	beq.n	8007006 <usbdp_interface_get_first_descriptor+0x28>
 8006ffc:	780c      	ldrb	r4, [r1, #0]
 8006ffe:	1909      	adds	r1, r1, r4
 8007000:	e7f4      	b.n	8006fec <usbdp_interface_get_first_descriptor+0xe>
 8007002:	2000      	movs	r0, #0
 8007004:	e000      	b.n	8007008 <usbdp_interface_get_first_descriptor+0x2a>
 8007006:	1c08      	adds	r0, r1, #0
 8007008:	bd10      	pop	{r4, pc}

0800700a <block_open>:
 800700a:	b507      	push	{r0, r1, r2, lr}
 800700c:	2300      	movs	r3, #0
 800700e:	1c01      	adds	r1, r0, #0
 8007010:	aa01      	add	r2, sp, #4
 8007012:	2025      	movs	r0, #37	; 0x25
 8007014:	f7f9 f8e0 	bl	80001d8 <svc_call>
 8007018:	9801      	ldr	r0, [sp, #4]
 800701a:	bd0e      	pop	{r1, r2, r3, pc}

0800701c <fwrite_async>:
 800701c:	b510      	push	{r4, lr}
 800701e:	1c04      	adds	r4, r0, #0
 8007020:	480a      	ldr	r0, [pc, #40]	; (800704c <fwrite_async+0x30>)
 8007022:	b086      	sub	sp, #24
 8007024:	9002      	str	r0, [sp, #8]
 8007026:	9401      	str	r4, [sp, #4]
 8007028:	9103      	str	r1, [sp, #12]
 800702a:	9204      	str	r2, [sp, #16]
 800702c:	9305      	str	r3, [sp, #20]
 800702e:	1c53      	adds	r3, r2, #1
 8007030:	d004      	beq.n	800703c <fwrite_async+0x20>
 8007032:	1c11      	adds	r1, r2, #0
 8007034:	2029      	movs	r0, #41	; 0x29
 8007036:	1c22      	adds	r2, r4, #0
 8007038:	ab01      	add	r3, sp, #4
 800703a:	e003      	b.n	8007044 <fwrite_async+0x28>
 800703c:	2200      	movs	r2, #0
 800703e:	2014      	movs	r0, #20
 8007040:	1c13      	adds	r3, r2, #0
 8007042:	a901      	add	r1, sp, #4
 8007044:	f7f9 f8c8 	bl	80001d8 <svc_call>
 8007048:	b006      	add	sp, #24
 800704a:	bd10      	pop	{r4, pc}
 800704c:	00001001 	.word	0x00001001

08007050 <block_destroy>:
 8007050:	2200      	movs	r2, #0
 8007052:	b508      	push	{r3, lr}
 8007054:	1c01      	adds	r1, r0, #0
 8007056:	1c13      	adds	r3, r2, #0
 8007058:	202b      	movs	r0, #43	; 0x2b
 800705a:	f7f9 f8bd 	bl	80001d8 <svc_call>
 800705e:	bd08      	pop	{r3, pc}

08007060 <stream_listen>:
 8007060:	b538      	push	{r3, r4, r5, lr}
 8007062:	2480      	movs	r4, #128	; 0x80
 8007064:	1c05      	adds	r5, r0, #0
 8007066:	2300      	movs	r3, #0
 8007068:	05a4      	lsls	r4, r4, #22
 800706a:	1c0a      	adds	r2, r1, #0
 800706c:	6821      	ldr	r1, [r4, #0]
 800706e:	201c      	movs	r0, #28
 8007070:	600b      	str	r3, [r1, #0]
 8007072:	1c29      	adds	r1, r5, #0
 8007074:	f7f9 f8b0 	bl	80001d8 <svc_call>
 8007078:	6823      	ldr	r3, [r4, #0]
 800707a:	6818      	ldr	r0, [r3, #0]
 800707c:	4243      	negs	r3, r0
 800707e:	4158      	adcs	r0, r3
 8007080:	b2c0      	uxtb	r0, r0
 8007082:	bd38      	pop	{r3, r4, r5, pc}

08007084 <cdcd_class_resume>:
 8007084:	b508      	push	{r3, lr}
 8007086:	1c0b      	adds	r3, r1, #0
 8007088:	1c0a      	adds	r2, r1, #0
 800708a:	2100      	movs	r1, #0
 800708c:	332b      	adds	r3, #43	; 0x2b
 800708e:	7019      	strb	r1, [r3, #0]
 8007090:	21e0      	movs	r1, #224	; 0xe0
 8007092:	3b01      	subs	r3, #1
 8007094:	781b      	ldrb	r3, [r3, #0]
 8007096:	0309      	lsls	r1, r1, #12
 8007098:	021b      	lsls	r3, r3, #8
 800709a:	3301      	adds	r3, #1
 800709c:	33ff      	adds	r3, #255	; 0xff
 800709e:	4319      	orrs	r1, r3
 80070a0:	6910      	ldr	r0, [r2, #16]
 80070a2:	f7ff ffdd 	bl	8007060 <stream_listen>
 80070a6:	bd08      	pop	{r3, pc}

080070a8 <stream_stop_listen>:
 80070a8:	b510      	push	{r4, lr}
 80070aa:	2480      	movs	r4, #128	; 0x80
 80070ac:	2300      	movs	r3, #0
 80070ae:	05a4      	lsls	r4, r4, #22
 80070b0:	6822      	ldr	r2, [r4, #0]
 80070b2:	1c01      	adds	r1, r0, #0
 80070b4:	6013      	str	r3, [r2, #0]
 80070b6:	201d      	movs	r0, #29
 80070b8:	1c1a      	adds	r2, r3, #0
 80070ba:	f7f9 f88d 	bl	80001d8 <svc_call>
 80070be:	6823      	ldr	r3, [r4, #0]
 80070c0:	6818      	ldr	r0, [r3, #0]
 80070c2:	4243      	negs	r3, r0
 80070c4:	4158      	adcs	r0, r3
 80070c6:	b2c0      	uxtb	r0, r0
 80070c8:	bd10      	pop	{r4, pc}

080070ca <stream_flush>:
 80070ca:	2200      	movs	r2, #0
 80070cc:	b508      	push	{r3, lr}
 80070ce:	1c01      	adds	r1, r0, #0
 80070d0:	1c13      	adds	r3, r2, #0
 80070d2:	2020      	movs	r0, #32
 80070d4:	f7f9 f880 	bl	80001d8 <svc_call>
 80070d8:	bd08      	pop	{r3, pc}

080070da <ipc_call_ms.constprop.4>:
 80070da:	2380      	movs	r3, #128	; 0x80
 80070dc:	b513      	push	{r0, r1, r4, lr}
 80070de:	1c04      	adds	r4, r0, #0
 80070e0:	059b      	lsls	r3, r3, #22
 80070e2:	689b      	ldr	r3, [r3, #8]
 80070e4:	4669      	mov	r1, sp
 80070e6:	689b      	ldr	r3, [r3, #8]
 80070e8:	2000      	movs	r0, #0
 80070ea:	699b      	ldr	r3, [r3, #24]
 80070ec:	4798      	blx	r3
 80070ee:	2016      	movs	r0, #22
 80070f0:	1c21      	adds	r1, r4, #0
 80070f2:	466a      	mov	r2, sp
 80070f4:	2300      	movs	r3, #0
 80070f6:	f7f9 f86f 	bl	80001d8 <svc_call>
 80070fa:	bd13      	pop	{r0, r1, r4, pc}

080070fc <fflush>:
 80070fc:	b57f      	push	{r0, r1, r2, r3, r4, r5, r6, lr}
 80070fe:	4b05      	ldr	r3, [pc, #20]	; (8007114 <fflush+0x18>)
 8007100:	9001      	str	r0, [sp, #4]
 8007102:	a801      	add	r0, sp, #4
 8007104:	9302      	str	r3, [sp, #8]
 8007106:	9103      	str	r1, [sp, #12]
 8007108:	f7ff ffe7 	bl	80070da <ipc_call_ms.constprop.4>
 800710c:	2001      	movs	r0, #1
 800710e:	b007      	add	sp, #28
 8007110:	bd00      	pop	{pc}
 8007112:	46c0      	nop			; (mov r8, r8)
 8007114:	00001003 	.word	0x00001003

08007118 <cdcd_class_suspend>:
 8007118:	b5f8      	push	{r3, r4, r5, r6, r7, lr}
 800711a:	1c0c      	adds	r4, r1, #0
 800711c:	1c06      	adds	r6, r0, #0
 800711e:	6908      	ldr	r0, [r1, #16]
 8007120:	f7ff ffc2 	bl	80070a8 <stream_stop_listen>
 8007124:	6920      	ldr	r0, [r4, #16]
 8007126:	f7ff ffd0 	bl	80070ca <stream_flush>
 800712a:	1c30      	adds	r0, r6, #0
 800712c:	f7ff ff30 	bl	8006f90 <usbd_usb>
 8007130:	2380      	movs	r3, #128	; 0x80
 8007132:	25c0      	movs	r5, #192	; 0xc0
 8007134:	7f21      	ldrb	r1, [r4, #28]
 8007136:	425b      	negs	r3, r3
 8007138:	4319      	orrs	r1, r3
 800713a:	02ed      	lsls	r5, r5, #11
 800713c:	b2c9      	uxtb	r1, r1
 800713e:	4329      	orrs	r1, r5
 8007140:	f7ff ffdc 	bl	80070fc <fflush>
 8007144:	1c23      	adds	r3, r4, #0
 8007146:	2201      	movs	r2, #1
 8007148:	2700      	movs	r7, #0
 800714a:	3328      	adds	r3, #40	; 0x28
 800714c:	701a      	strb	r2, [r3, #0]
 800714e:	68e0      	ldr	r0, [r4, #12]
 8007150:	84a7      	strh	r7, [r4, #36]	; 0x24
 8007152:	f7ff ffba 	bl	80070ca <stream_flush>
 8007156:	1c30      	adds	r0, r6, #0
 8007158:	f7ff ff1a 	bl	8006f90 <usbd_usb>
 800715c:	7f21      	ldrb	r1, [r4, #28]
 800715e:	4329      	orrs	r1, r5
 8007160:	f7ff ffcc 	bl	80070fc <fflush>
 8007164:	7f63      	ldrb	r3, [r4, #29]
 8007166:	8467      	strh	r7, [r4, #34]	; 0x22
 8007168:	42bb      	cmp	r3, r7
 800716a:	d00a      	beq.n	8007182 <cdcd_class_suspend+0x6a>
 800716c:	1c30      	adds	r0, r6, #0
 800716e:	f7ff ff0f 	bl	8006f90 <usbd_usb>
 8007172:	2380      	movs	r3, #128	; 0x80
 8007174:	7f21      	ldrb	r1, [r4, #28]
 8007176:	425b      	negs	r3, r3
 8007178:	4319      	orrs	r1, r3
 800717a:	b2c9      	uxtb	r1, r1
 800717c:	4329      	orrs	r1, r5
 800717e:	f7ff ffbd 	bl	80070fc <fflush>
 8007182:	2301      	movs	r3, #1
 8007184:	342b      	adds	r4, #43	; 0x2b
 8007186:	7023      	strb	r3, [r4, #0]
 8007188:	bdf8      	pop	{r3, r4, r5, r6, r7, pc}

0800718a <fread_async.constprop.2>:
 800718a:	b57f      	push	{r0, r1, r2, r3, r4, r5, r6, lr}
 800718c:	1c03      	adds	r3, r0, #0
 800718e:	2080      	movs	r0, #128	; 0x80
 8007190:	9103      	str	r1, [sp, #12]
 8007192:	2101      	movs	r1, #1
 8007194:	0140      	lsls	r0, r0, #5
 8007196:	9002      	str	r0, [sp, #8]
 8007198:	9301      	str	r3, [sp, #4]
 800719a:	9204      	str	r2, [sp, #16]
 800719c:	9105      	str	r1, [sp, #20]
 800719e:	1c51      	adds	r1, r2, #1
 80071a0:	d004      	beq.n	80071ac <fread_async.constprop.2+0x22>
 80071a2:	1c11      	adds	r1, r2, #0
 80071a4:	2029      	movs	r0, #41	; 0x29
 80071a6:	1c1a      	adds	r2, r3, #0
 80071a8:	ab01      	add	r3, sp, #4
 80071aa:	e003      	b.n	80071b4 <fread_async.constprop.2+0x2a>
 80071ac:	2200      	movs	r2, #0
 80071ae:	2014      	movs	r0, #20
 80071b0:	1c13      	adds	r3, r2, #0
 80071b2:	a901      	add	r1, sp, #4
 80071b4:	f7f9 f810 	bl	80001d8 <svc_call>
 80071b8:	b007      	add	sp, #28
 80071ba:	bd00      	pop	{pc}

080071bc <cdcd_notify_serial_state>:
 80071bc:	b570      	push	{r4, r5, r6, lr}
 80071be:	1c05      	adds	r5, r0, #0
 80071c0:	6888      	ldr	r0, [r1, #8]
 80071c2:	1c0c      	adds	r4, r1, #0
 80071c4:	1c16      	adds	r6, r2, #0
 80071c6:	f7ff ff20 	bl	800700a <block_open>
 80071ca:	2800      	cmp	r0, #0
 80071cc:	d10c      	bne.n	80071e8 <cdcd_notify_serial_state+0x2c>
 80071ce:	1c28      	adds	r0, r5, #0
 80071d0:	f7ff fede 	bl	8006f90 <usbd_usb>
 80071d4:	7f61      	ldrb	r1, [r4, #29]
 80071d6:	4b11      	ldr	r3, [pc, #68]	; (800721c <cdcd_notify_serial_state+0x60>)
 80071d8:	4319      	orrs	r1, r3
 80071da:	f7ff ff8f 	bl	80070fc <fflush>
 80071de:	68a0      	ldr	r0, [r4, #8]
 80071e0:	f7ff ff13 	bl	800700a <block_open>
 80071e4:	2800      	cmp	r0, #0
 80071e6:	d017      	beq.n	8007218 <cdcd_notify_serial_state+0x5c>
 80071e8:	23a1      	movs	r3, #161	; 0xa1
 80071ea:	2201      	movs	r2, #1
 80071ec:	7003      	strb	r3, [r0, #0]
 80071ee:	3b81      	subs	r3, #129	; 0x81
 80071f0:	7043      	strb	r3, [r0, #1]
 80071f2:	2300      	movs	r3, #0
 80071f4:	7102      	strb	r2, [r0, #4]
 80071f6:	1892      	adds	r2, r2, r2
 80071f8:	7083      	strb	r3, [r0, #2]
 80071fa:	70c3      	strb	r3, [r0, #3]
 80071fc:	7143      	strb	r3, [r0, #5]
 80071fe:	7182      	strb	r2, [r0, #6]
 8007200:	71c3      	strb	r3, [r0, #7]
 8007202:	8106      	strh	r6, [r0, #8]
 8007204:	1c28      	adds	r0, r5, #0
 8007206:	f7ff fec3 	bl	8006f90 <usbd_usb>
 800720a:	4b04      	ldr	r3, [pc, #16]	; (800721c <cdcd_notify_serial_state+0x60>)
 800720c:	7f61      	ldrb	r1, [r4, #29]
 800720e:	68a2      	ldr	r2, [r4, #8]
 8007210:	4319      	orrs	r1, r3
 8007212:	230a      	movs	r3, #10
 8007214:	f7ff ff02 	bl	800701c <fwrite_async>
 8007218:	bd70      	pop	{r4, r5, r6, pc}
 800721a:	46c0      	nop			; (mov r8, r8)
 800721c:	00060080 	.word	0x00060080

08007220 <cdcd_destroy>:
 8007220:	b510      	push	{r4, lr}
 8007222:	1c04      	adds	r4, r0, #0
 8007224:	6880      	ldr	r0, [r0, #8]
 8007226:	f7ff ff13 	bl	8007050 <block_destroy>
 800722a:	6820      	ldr	r0, [r4, #0]
 800722c:	f7ff ff10 	bl	8007050 <block_destroy>
 8007230:	2200      	movs	r2, #0
 8007232:	69a1      	ldr	r1, [r4, #24]
 8007234:	1c13      	adds	r3, r2, #0
 8007236:	2019      	movs	r0, #25
 8007238:	f7f8 ffce 	bl	80001d8 <svc_call>
 800723c:	2200      	movs	r2, #0
 800723e:	68e1      	ldr	r1, [r4, #12]
 8007240:	1c13      	adds	r3, r2, #0
 8007242:	2021      	movs	r0, #33	; 0x21
 8007244:	f7f8 ffc8 	bl	80001d8 <svc_call>
 8007248:	6860      	ldr	r0, [r4, #4]
 800724a:	f7ff ff01 	bl	8007050 <block_destroy>
 800724e:	2200      	movs	r2, #0
 8007250:	6961      	ldr	r1, [r4, #20]
 8007252:	1c13      	adds	r3, r2, #0
 8007254:	2019      	movs	r0, #25
 8007256:	f7f8 ffbf 	bl	80001d8 <svc_call>
 800725a:	2200      	movs	r2, #0
 800725c:	6921      	ldr	r1, [r4, #16]
 800725e:	1c13      	adds	r3, r2, #0
 8007260:	2021      	movs	r0, #33	; 0x21
 8007262:	f7f8 ffb9 	bl	80001d8 <svc_call>
 8007266:	2380      	movs	r3, #128	; 0x80
 8007268:	059b      	lsls	r3, r3, #22
 800726a:	689a      	ldr	r2, [r3, #8]
 800726c:	6818      	ldr	r0, [r3, #0]
 800726e:	6812      	ldr	r2, [r2, #0]
 8007270:	3008      	adds	r0, #8
 8007272:	6953      	ldr	r3, [r2, #20]
 8007274:	1c21      	adds	r1, r4, #0
 8007276:	4798      	blx	r3
 8007278:	bd10      	pop	{r4, pc}
 800727a:	0000      	movs	r0, r0

0800727c <cdcd_class_configured>:
 800727c:	b5f0      	push	{r4, r5, r6, r7, lr}
 800727e:	1c07      	adds	r7, r0, #0
 8007280:	b08d      	sub	sp, #52	; 0x34
 8007282:	1c08      	adds	r0, r1, #0
 8007284:	1c0c      	adds	r4, r1, #0
 8007286:	f7ff fe85 	bl	8006f94 <usbdp_get_first_interface>
 800728a:	2600      	movs	r6, #0
 800728c:	1c05      	adds	r5, r0, #0
 800728e:	9605      	str	r6, [sp, #20]
 8007290:	9604      	str	r6, [sp, #16]
 8007292:	9601      	str	r6, [sp, #4]
 8007294:	9600      	str	r6, [sp, #0]
 8007296:	9603      	str	r6, [sp, #12]
 8007298:	2d00      	cmp	r5, #0
 800729a:	d021      	beq.n	80072e0 <cdcd_class_configured+0x64>
 800729c:	1c20      	adds	r0, r4, #0
 800729e:	1c29      	adds	r1, r5, #0
 80072a0:	2205      	movs	r2, #5
 80072a2:	f7ff fe9c 	bl	8006fde <usbdp_interface_get_first_descriptor>
 80072a6:	2800      	cmp	r0, #0
 80072a8:	d014      	beq.n	80072d4 <cdcd_class_configured+0x58>
 80072aa:	796b      	ldrb	r3, [r5, #5]
 80072ac:	2b02      	cmp	r3, #2
 80072ae:	d009      	beq.n	80072c4 <cdcd_class_configured+0x48>
 80072b0:	2b0a      	cmp	r3, #10
 80072b2:	d10f      	bne.n	80072d4 <cdcd_class_configured+0x58>
 80072b4:	7882      	ldrb	r2, [r0, #2]
 80072b6:	3375      	adds	r3, #117	; 0x75
 80072b8:	401a      	ands	r2, r3
 80072ba:	9203      	str	r2, [sp, #12]
 80072bc:	7903      	ldrb	r3, [r0, #4]
 80072be:	9301      	str	r3, [sp, #4]
 80072c0:	78ae      	ldrb	r6, [r5, #2]
 80072c2:	e007      	b.n	80072d4 <cdcd_class_configured+0x58>
 80072c4:	237f      	movs	r3, #127	; 0x7f
 80072c6:	7882      	ldrb	r2, [r0, #2]
 80072c8:	401a      	ands	r2, r3
 80072ca:	9200      	str	r2, [sp, #0]
 80072cc:	7903      	ldrb	r3, [r0, #4]
 80072ce:	9304      	str	r3, [sp, #16]
 80072d0:	78ab      	ldrb	r3, [r5, #2]
 80072d2:	9305      	str	r3, [sp, #20]
 80072d4:	1c29      	adds	r1, r5, #0
 80072d6:	1c20      	adds	r0, r4, #0
 80072d8:	f7ff fe6e 	bl	8006fb8 <usbdp_get_next_interface>
 80072dc:	1c05      	adds	r5, r0, #0
 80072de:	e7db      	b.n	8007298 <cdcd_class_configured+0x1c>
 80072e0:	9b00      	ldr	r3, [sp, #0]
 80072e2:	2b00      	cmp	r3, #0
 80072e4:	d100      	bne.n	80072e8 <cdcd_class_configured+0x6c>
 80072e6:	e102      	b.n	80074ee <cdcd_class_configured+0x272>
 80072e8:	2380      	movs	r3, #128	; 0x80
 80072ea:	059b      	lsls	r3, r3, #22
 80072ec:	689a      	ldr	r2, [r3, #8]
 80072ee:	6818      	ldr	r0, [r3, #0]
 80072f0:	6812      	ldr	r2, [r2, #0]
 80072f2:	3008      	adds	r0, #8
 80072f4:	68d3      	ldr	r3, [r2, #12]
 80072f6:	2134      	movs	r1, #52	; 0x34
 80072f8:	4798      	blx	r3
 80072fa:	1e04      	subs	r4, r0, #0
 80072fc:	d100      	bne.n	8007300 <cdcd_class_configured+0x84>
 80072fe:	e0f6      	b.n	80074ee <cdcd_class_configured+0x272>
 8007300:	466a      	mov	r2, sp
 8007302:	1c03      	adds	r3, r0, #0
 8007304:	7d12      	ldrb	r2, [r2, #20]
 8007306:	3329      	adds	r3, #41	; 0x29
 8007308:	701a      	strb	r2, [r3, #0]
 800730a:	9302      	str	r3, [sp, #8]
 800730c:	466b      	mov	r3, sp
 800730e:	781b      	ldrb	r3, [r3, #0]
 8007310:	a907      	add	r1, sp, #28
 8007312:	7743      	strb	r3, [r0, #29]
 8007314:	466b      	mov	r3, sp
 8007316:	8a1b      	ldrh	r3, [r3, #16]
 8007318:	9a01      	ldr	r2, [sp, #4]
 800731a:	8403      	strh	r3, [r0, #32]
 800731c:	1c03      	adds	r3, r0, #0
 800731e:	332a      	adds	r3, #42	; 0x2a
 8007320:	701e      	strb	r6, [r3, #0]
 8007322:	9300      	str	r3, [sp, #0]
 8007324:	466b      	mov	r3, sp
 8007326:	7b1b      	ldrb	r3, [r3, #12]
 8007328:	7703      	strb	r3, [r0, #28]
 800732a:	466b      	mov	r3, sp
 800732c:	889b      	ldrh	r3, [r3, #4]
 800732e:	83c3      	strh	r3, [r0, #30]
 8007330:	2301      	movs	r3, #1
 8007332:	425b      	negs	r3, r3
 8007334:	6183      	str	r3, [r0, #24]
 8007336:	6143      	str	r3, [r0, #20]
 8007338:	60c3      	str	r3, [r0, #12]
 800733a:	6103      	str	r3, [r0, #16]
 800733c:	6083      	str	r3, [r0, #8]
 800733e:	6003      	str	r3, [r0, #0]
 8007340:	6043      	str	r3, [r0, #4]
 8007342:	1c03      	adds	r3, r0, #0
 8007344:	332b      	adds	r3, #43	; 0x2b
 8007346:	701d      	strb	r5, [r3, #0]
 8007348:	2024      	movs	r0, #36	; 0x24
 800734a:	1c2b      	adds	r3, r5, #0
 800734c:	f7f8 ff44 	bl	80001d8 <svc_call>
 8007350:	9b07      	ldr	r3, [sp, #28]
 8007352:	2017      	movs	r0, #23
 8007354:	6063      	str	r3, [r4, #4]
 8007356:	a907      	add	r1, sp, #28
 8007358:	2220      	movs	r2, #32
 800735a:	1c2b      	adds	r3, r5, #0
 800735c:	9507      	str	r5, [sp, #28]
 800735e:	f7f8 ff3b 	bl	80001d8 <svc_call>
 8007362:	9907      	ldr	r1, [sp, #28]
 8007364:	aa07      	add	r2, sp, #28
 8007366:	6121      	str	r1, [r4, #16]
 8007368:	1c2b      	adds	r3, r5, #0
 800736a:	2018      	movs	r0, #24
 800736c:	9507      	str	r5, [sp, #28]
 800736e:	f7f8 ff33 	bl	80001d8 <svc_call>
 8007372:	9b07      	ldr	r3, [sp, #28]
 8007374:	6862      	ldr	r2, [r4, #4]
 8007376:	6163      	str	r3, [r4, #20]
 8007378:	3201      	adds	r2, #1
 800737a:	d06e      	beq.n	800745a <cdcd_class_configured+0x1de>
 800737c:	3301      	adds	r3, #1
 800737e:	d06c      	beq.n	800745a <cdcd_class_configured+0x1de>
 8007380:	1c23      	adds	r3, r4, #0
 8007382:	2201      	movs	r2, #1
 8007384:	3308      	adds	r3, #8
 8007386:	9303      	str	r3, [sp, #12]
 8007388:	3320      	adds	r3, #32
 800738a:	84a5      	strh	r5, [r4, #36]	; 0x24
 800738c:	701a      	strb	r2, [r3, #0]
 800738e:	8be3      	ldrh	r3, [r4, #30]
 8007390:	1c38      	adds	r0, r7, #0
 8007392:	9301      	str	r3, [sp, #4]
 8007394:	f7ff fdfc 	bl	8006f90 <usbd_usb>
 8007398:	2280      	movs	r2, #128	; 0x80
 800739a:	26c0      	movs	r6, #192	; 0xc0
 800739c:	7f23      	ldrb	r3, [r4, #28]
 800739e:	4252      	negs	r2, r2
 80073a0:	4313      	orrs	r3, r2
 80073a2:	b2db      	uxtb	r3, r3
 80073a4:	02f6      	lsls	r6, r6, #11
 80073a6:	4333      	orrs	r3, r6
 80073a8:	9309      	str	r3, [sp, #36]	; 0x24
 80073aa:	2302      	movs	r3, #2
 80073ac:	4a51      	ldr	r2, [pc, #324]	; (80074f4 <cdcd_class_configured+0x278>)
 80073ae:	930a      	str	r3, [sp, #40]	; 0x28
 80073b0:	9b01      	ldr	r3, [sp, #4]
 80073b2:	9007      	str	r0, [sp, #28]
 80073b4:	a807      	add	r0, sp, #28
 80073b6:	9208      	str	r2, [sp, #32]
 80073b8:	930b      	str	r3, [sp, #44]	; 0x2c
 80073ba:	f7ff fe8e 	bl	80070da <ipc_call_ms.constprop.4>
 80073be:	9b00      	ldr	r3, [sp, #0]
 80073c0:	6920      	ldr	r0, [r4, #16]
 80073c2:	7819      	ldrb	r1, [r3, #0]
 80073c4:	23e0      	movs	r3, #224	; 0xe0
 80073c6:	0209      	lsls	r1, r1, #8
 80073c8:	3101      	adds	r1, #1
 80073ca:	031b      	lsls	r3, r3, #12
 80073cc:	31ff      	adds	r1, #255	; 0xff
 80073ce:	4319      	orrs	r1, r3
 80073d0:	f7ff fe46 	bl	8007060 <stream_listen>
 80073d4:	8be2      	ldrh	r2, [r4, #30]
 80073d6:	2024      	movs	r0, #36	; 0x24
 80073d8:	a907      	add	r1, sp, #28
 80073da:	1c2b      	adds	r3, r5, #0
 80073dc:	f7f8 fefc 	bl	80001d8 <svc_call>
 80073e0:	9b07      	ldr	r3, [sp, #28]
 80073e2:	2017      	movs	r0, #23
 80073e4:	6023      	str	r3, [r4, #0]
 80073e6:	a907      	add	r1, sp, #28
 80073e8:	2220      	movs	r2, #32
 80073ea:	1c2b      	adds	r3, r5, #0
 80073ec:	9507      	str	r5, [sp, #28]
 80073ee:	f7f8 fef3 	bl	80001d8 <svc_call>
 80073f2:	9907      	ldr	r1, [sp, #28]
 80073f4:	aa07      	add	r2, sp, #28
 80073f6:	60e1      	str	r1, [r4, #12]
 80073f8:	1c2b      	adds	r3, r5, #0
 80073fa:	2018      	movs	r0, #24
 80073fc:	9507      	str	r5, [sp, #28]
 80073fe:	f7f8 feeb 	bl	80001d8 <svc_call>
 8007402:	9b07      	ldr	r3, [sp, #28]
 8007404:	6822      	ldr	r2, [r4, #0]
 8007406:	61a3      	str	r3, [r4, #24]
 8007408:	3201      	adds	r2, #1
 800740a:	d026      	beq.n	800745a <cdcd_class_configured+0x1de>
 800740c:	3301      	adds	r3, #1
 800740e:	d024      	beq.n	800745a <cdcd_class_configured+0x1de>
 8007410:	8be3      	ldrh	r3, [r4, #30]
 8007412:	8465      	strh	r5, [r4, #34]	; 0x22
 8007414:	1c38      	adds	r0, r7, #0
 8007416:	9301      	str	r3, [sp, #4]
 8007418:	f7ff fdba 	bl	8006f90 <usbd_usb>
 800741c:	7f23      	ldrb	r3, [r4, #28]
 800741e:	4a35      	ldr	r2, [pc, #212]	; (80074f4 <cdcd_class_configured+0x278>)
 8007420:	4333      	orrs	r3, r6
 8007422:	9309      	str	r3, [sp, #36]	; 0x24
 8007424:	2302      	movs	r3, #2
 8007426:	930a      	str	r3, [sp, #40]	; 0x28
 8007428:	9b01      	ldr	r3, [sp, #4]
 800742a:	9007      	str	r0, [sp, #28]
 800742c:	a807      	add	r0, sp, #28
 800742e:	930b      	str	r3, [sp, #44]	; 0x2c
 8007430:	9208      	str	r2, [sp, #32]
 8007432:	f7ff fe52 	bl	80070da <ipc_call_ms.constprop.4>
 8007436:	1c38      	adds	r0, r7, #0
 8007438:	f7ff fdaa 	bl	8006f90 <usbd_usb>
 800743c:	7f21      	ldrb	r1, [r4, #28]
 800743e:	6822      	ldr	r2, [r4, #0]
 8007440:	4331      	orrs	r1, r6
 8007442:	f7ff fea2 	bl	800718a <fread_async.constprop.2>
 8007446:	1c2b      	adds	r3, r5, #0
 8007448:	8c22      	ldrh	r2, [r4, #32]
 800744a:	2024      	movs	r0, #36	; 0x24
 800744c:	a907      	add	r1, sp, #28
 800744e:	f7f8 fec3 	bl	80001d8 <svc_call>
 8007452:	9b07      	ldr	r3, [sp, #28]
 8007454:	60a3      	str	r3, [r4, #8]
 8007456:	3301      	adds	r3, #1
 8007458:	d103      	bne.n	8007462 <cdcd_class_configured+0x1e6>
 800745a:	1c20      	adds	r0, r4, #0
 800745c:	f7ff fee0 	bl	8007220 <cdcd_destroy>
 8007460:	e045      	b.n	80074ee <cdcd_class_configured+0x272>
 8007462:	1c38      	adds	r0, r7, #0
 8007464:	8c25      	ldrh	r5, [r4, #32]
 8007466:	f7ff fd93 	bl	8006f90 <usbd_usb>
 800746a:	2280      	movs	r2, #128	; 0x80
 800746c:	7f63      	ldrb	r3, [r4, #29]
 800746e:	4252      	negs	r2, r2
 8007470:	4313      	orrs	r3, r2
 8007472:	b2db      	uxtb	r3, r3
 8007474:	4333      	orrs	r3, r6
 8007476:	2603      	movs	r6, #3
 8007478:	4a1e      	ldr	r2, [pc, #120]	; (80074f4 <cdcd_class_configured+0x278>)
 800747a:	9007      	str	r0, [sp, #28]
 800747c:	a807      	add	r0, sp, #28
 800747e:	9309      	str	r3, [sp, #36]	; 0x24
 8007480:	9208      	str	r2, [sp, #32]
 8007482:	950b      	str	r5, [sp, #44]	; 0x2c
 8007484:	960a      	str	r6, [sp, #40]	; 0x28
 8007486:	f7ff fe28 	bl	80070da <ipc_call_ms.constprop.4>
 800748a:	1c21      	adds	r1, r4, #0
 800748c:	1c38      	adds	r0, r7, #0
 800748e:	1c32      	adds	r2, r6, #0
 8007490:	f7ff fe94 	bl	80071bc <cdcd_notify_serial_state>
 8007494:	9b02      	ldr	r3, [sp, #8]
 8007496:	4d18      	ldr	r5, [pc, #96]	; (80074f8 <cdcd_class_configured+0x27c>)
 8007498:	7819      	ldrb	r1, [r3, #0]
 800749a:	1c2a      	adds	r2, r5, #0
 800749c:	1c23      	adds	r3, r4, #0
 800749e:	1c38      	adds	r0, r7, #0
 80074a0:	f7ff fcfa 	bl	8006e98 <usbd_register_interface>
 80074a4:	9b02      	ldr	r3, [sp, #8]
 80074a6:	7f62      	ldrb	r2, [r4, #29]
 80074a8:	7819      	ldrb	r1, [r3, #0]
 80074aa:	1c38      	adds	r0, r7, #0
 80074ac:	f7ff fd32 	bl	8006f14 <usbd_register_endpoint>
 80074b0:	9b00      	ldr	r3, [sp, #0]
 80074b2:	1c2a      	adds	r2, r5, #0
 80074b4:	7819      	ldrb	r1, [r3, #0]
 80074b6:	1c38      	adds	r0, r7, #0
 80074b8:	1c23      	adds	r3, r4, #0
 80074ba:	f7ff fced 	bl	8006e98 <usbd_register_interface>
 80074be:	9b00      	ldr	r3, [sp, #0]
 80074c0:	7f22      	ldrb	r2, [r4, #28]
 80074c2:	7819      	ldrb	r1, [r3, #0]
 80074c4:	1c38      	adds	r0, r7, #0
 80074c6:	f7ff fd25 	bl	8006f14 <usbd_register_endpoint>
 80074ca:	2300      	movs	r3, #0
 80074cc:	9a03      	ldr	r2, [sp, #12]
 80074ce:	77d3      	strb	r3, [r2, #31]
 80074d0:	2200      	movs	r2, #0
 80074d2:	1de3      	adds	r3, r4, #7
 80074d4:	77da      	strb	r2, [r3, #31]
 80074d6:	23e1      	movs	r3, #225	; 0xe1
 80074d8:	025b      	lsls	r3, r3, #9
 80074da:	62e3      	str	r3, [r4, #44]	; 0x2c
 80074dc:	1c23      	adds	r3, r4, #0
 80074de:	2208      	movs	r2, #8
 80074e0:	3330      	adds	r3, #48	; 0x30
 80074e2:	701a      	strb	r2, [r3, #0]
 80074e4:	3246      	adds	r2, #70	; 0x46
 80074e6:	705a      	strb	r2, [r3, #1]
 80074e8:	2301      	movs	r3, #1
 80074ea:	3432      	adds	r4, #50	; 0x32
 80074ec:	7023      	strb	r3, [r4, #0]
 80074ee:	b00d      	add	sp, #52	; 0x34
 80074f0:	bdf0      	pop	{r4, r5, r6, r7, pc}
 80074f2:	46c0      	nop			; (mov r8, r8)
 80074f4:	00001005 	.word	0x00001005
 80074f8:	08008b5c 	.word	0x08008b5c

080074fc <cdcd_class_reset>:
 80074fc:	b5f0      	push	{r4, r5, r6, r7, lr}
 80074fe:	1c0c      	adds	r4, r1, #0
 8007500:	1c05      	adds	r5, r0, #0
 8007502:	b087      	sub	sp, #28
 8007504:	6908      	ldr	r0, [r1, #16]
 8007506:	f7ff fdcf 	bl	80070a8 <stream_stop_listen>
 800750a:	6920      	ldr	r0, [r4, #16]
 800750c:	f7ff fddd 	bl	80070ca <stream_flush>
 8007510:	1c28      	adds	r0, r5, #0
 8007512:	f7ff fd3d 	bl	8006f90 <usbd_usb>
 8007516:	2380      	movs	r3, #128	; 0x80
 8007518:	26c0      	movs	r6, #192	; 0xc0
 800751a:	7f21      	ldrb	r1, [r4, #28]
 800751c:	425b      	negs	r3, r3
 800751e:	4319      	orrs	r1, r3
 8007520:	02f6      	lsls	r6, r6, #11
 8007522:	b2c9      	uxtb	r1, r1
 8007524:	4331      	orrs	r1, r6
 8007526:	f7ff fde9 	bl	80070fc <fflush>
 800752a:	1c28      	adds	r0, r5, #0
 800752c:	f7ff fd30 	bl	8006f90 <usbd_usb>
 8007530:	2280      	movs	r2, #128	; 0x80
 8007532:	7f23      	ldrb	r3, [r4, #28]
 8007534:	4252      	negs	r2, r2
 8007536:	4313      	orrs	r3, r2
 8007538:	b2db      	uxtb	r3, r3
 800753a:	4a2d      	ldr	r2, [pc, #180]	; (80075f0 <cdcd_class_reset+0xf4>)
 800753c:	4333      	orrs	r3, r6
 800753e:	9001      	str	r0, [sp, #4]
 8007540:	a801      	add	r0, sp, #4
 8007542:	9202      	str	r2, [sp, #8]
 8007544:	9303      	str	r3, [sp, #12]
 8007546:	f7ff fdc8 	bl	80070da <ipc_call_ms.constprop.4>
 800754a:	68e0      	ldr	r0, [r4, #12]
 800754c:	f7ff fdbd 	bl	80070ca <stream_flush>
 8007550:	1c28      	adds	r0, r5, #0
 8007552:	f7ff fd1d 	bl	8006f90 <usbd_usb>
 8007556:	7f21      	ldrb	r1, [r4, #28]
 8007558:	1c27      	adds	r7, r4, #0
 800755a:	4331      	orrs	r1, r6
 800755c:	f7ff fdce 	bl	80070fc <fflush>
 8007560:	1c28      	adds	r0, r5, #0
 8007562:	f7ff fd15 	bl	8006f90 <usbd_usb>
 8007566:	7f23      	ldrb	r3, [r4, #28]
 8007568:	4a21      	ldr	r2, [pc, #132]	; (80075f0 <cdcd_class_reset+0xf4>)
 800756a:	4333      	orrs	r3, r6
 800756c:	372a      	adds	r7, #42	; 0x2a
 800756e:	9001      	str	r0, [sp, #4]
 8007570:	a801      	add	r0, sp, #4
 8007572:	9303      	str	r3, [sp, #12]
 8007574:	9202      	str	r2, [sp, #8]
 8007576:	f7ff fdb0 	bl	80070da <ipc_call_ms.constprop.4>
 800757a:	7839      	ldrb	r1, [r7, #0]
 800757c:	7f22      	ldrb	r2, [r4, #28]
 800757e:	1c28      	adds	r0, r5, #0
 8007580:	f7ff fce6 	bl	8006f50 <usbd_unregister_endpoint>
 8007584:	7839      	ldrb	r1, [r7, #0]
 8007586:	4f1b      	ldr	r7, [pc, #108]	; (80075f4 <cdcd_class_reset+0xf8>)
 8007588:	1c28      	adds	r0, r5, #0
 800758a:	1c3a      	adds	r2, r7, #0
 800758c:	f7ff fca6 	bl	8006edc <usbd_unregister_interface>
 8007590:	7f63      	ldrb	r3, [r4, #29]
 8007592:	2b00      	cmp	r3, #0
 8007594:	d026      	beq.n	80075e4 <cdcd_class_reset+0xe8>
 8007596:	1c28      	adds	r0, r5, #0
 8007598:	f7ff fcfa 	bl	8006f90 <usbd_usb>
 800759c:	2380      	movs	r3, #128	; 0x80
 800759e:	7f61      	ldrb	r1, [r4, #29]
 80075a0:	425b      	negs	r3, r3
 80075a2:	4319      	orrs	r1, r3
 80075a4:	b2c9      	uxtb	r1, r1
 80075a6:	4331      	orrs	r1, r6
 80075a8:	f7ff fda8 	bl	80070fc <fflush>
 80075ac:	1c28      	adds	r0, r5, #0
 80075ae:	f7ff fcef 	bl	8006f90 <usbd_usb>
 80075b2:	2280      	movs	r2, #128	; 0x80
 80075b4:	7f63      	ldrb	r3, [r4, #29]
 80075b6:	4252      	negs	r2, r2
 80075b8:	4313      	orrs	r3, r2
 80075ba:	b2db      	uxtb	r3, r3
 80075bc:	431e      	orrs	r6, r3
 80075be:	9603      	str	r6, [sp, #12]
 80075c0:	1c26      	adds	r6, r4, #0
 80075c2:	4b0b      	ldr	r3, [pc, #44]	; (80075f0 <cdcd_class_reset+0xf4>)
 80075c4:	9001      	str	r0, [sp, #4]
 80075c6:	3629      	adds	r6, #41	; 0x29
 80075c8:	a801      	add	r0, sp, #4
 80075ca:	9302      	str	r3, [sp, #8]
 80075cc:	f7ff fd85 	bl	80070da <ipc_call_ms.constprop.4>
 80075d0:	7831      	ldrb	r1, [r6, #0]
 80075d2:	7f62      	ldrb	r2, [r4, #29]
 80075d4:	1c28      	adds	r0, r5, #0
 80075d6:	f7ff fcbb 	bl	8006f50 <usbd_unregister_endpoint>
 80075da:	7831      	ldrb	r1, [r6, #0]
 80075dc:	1c28      	adds	r0, r5, #0
 80075de:	1c3a      	adds	r2, r7, #0
 80075e0:	f7ff fc7c 	bl	8006edc <usbd_unregister_interface>
 80075e4:	1c20      	adds	r0, r4, #0
 80075e6:	f7ff fe1b 	bl	8007220 <cdcd_destroy>
 80075ea:	b007      	add	sp, #28
 80075ec:	bdf0      	pop	{r4, r5, r6, r7, pc}
 80075ee:	46c0      	nop			; (mov r8, r8)
 80075f0:	00001006 	.word	0x00001006
 80075f4:	08008b5c 	.word	0x08008b5c

080075f8 <cdcd_write>:
 80075f8:	b5f0      	push	{r4, r5, r6, r7, lr}
 80075fa:	1dcb      	adds	r3, r1, #7
 80075fc:	7fdb      	ldrb	r3, [r3, #31]
 80075fe:	b085      	sub	sp, #20
 8007600:	2b00      	cmp	r3, #0
 8007602:	d049      	beq.n	8007698 <cdcd_write+0xa0>
 8007604:	1c0e      	adds	r6, r1, #0
 8007606:	3628      	adds	r6, #40	; 0x28
 8007608:	7833      	ldrb	r3, [r6, #0]
 800760a:	2b00      	cmp	r3, #0
 800760c:	d044      	beq.n	8007698 <cdcd_write+0xa0>
 800760e:	1c0b      	adds	r3, r1, #0
 8007610:	332b      	adds	r3, #43	; 0x2b
 8007612:	781b      	ldrb	r3, [r3, #0]
 8007614:	2b00      	cmp	r3, #0
 8007616:	d13f      	bne.n	8007698 <cdcd_write+0xa0>
 8007618:	9001      	str	r0, [sp, #4]
 800761a:	8c8b      	ldrh	r3, [r1, #36]	; 0x24
 800761c:	1c0c      	adds	r4, r1, #0
 800761e:	2b00      	cmp	r3, #0
 8007620:	d106      	bne.n	8007630 <cdcd_write+0x38>
 8007622:	201a      	movs	r0, #26
 8007624:	6909      	ldr	r1, [r1, #16]
 8007626:	aa03      	add	r2, sp, #12
 8007628:	f7f8 fdd6 	bl	80001d8 <svc_call>
 800762c:	9b03      	ldr	r3, [sp, #12]
 800762e:	84a3      	strh	r3, [r4, #36]	; 0x24
 8007630:	8ca3      	ldrh	r3, [r4, #36]	; 0x24
 8007632:	8be5      	ldrh	r5, [r4, #30]
 8007634:	429d      	cmp	r5, r3
 8007636:	d900      	bls.n	800763a <cdcd_write+0x42>
 8007638:	1c1d      	adds	r5, r3, #0
 800763a:	2d00      	cmp	r5, #0
 800763c:	d020      	beq.n	8007680 <cdcd_write+0x88>
 800763e:	1b5b      	subs	r3, r3, r5
 8007640:	84a3      	strh	r3, [r4, #36]	; 0x24
 8007642:	6860      	ldr	r0, [r4, #4]
 8007644:	f7ff fce1 	bl	800700a <block_open>
 8007648:	1e02      	subs	r2, r0, #0
 800764a:	d019      	beq.n	8007680 <cdcd_write+0x88>
 800764c:	2780      	movs	r7, #128	; 0x80
 800764e:	2000      	movs	r0, #0
 8007650:	05bf      	lsls	r7, r7, #22
 8007652:	683b      	ldr	r3, [r7, #0]
 8007654:	6961      	ldr	r1, [r4, #20]
 8007656:	6018      	str	r0, [r3, #0]
 8007658:	1c2b      	adds	r3, r5, #0
 800765a:	301f      	adds	r0, #31
 800765c:	f7f8 fdbc 	bl	80001d8 <svc_call>
 8007660:	683b      	ldr	r3, [r7, #0]
 8007662:	681b      	ldr	r3, [r3, #0]
 8007664:	2b00      	cmp	r3, #0
 8007666:	d10b      	bne.n	8007680 <cdcd_write+0x88>
 8007668:	7033      	strb	r3, [r6, #0]
 800766a:	9801      	ldr	r0, [sp, #4]
 800766c:	f7ff fc90 	bl	8006f90 <usbd_usb>
 8007670:	7f21      	ldrb	r1, [r4, #28]
 8007672:	4b0a      	ldr	r3, [pc, #40]	; (800769c <cdcd_write+0xa4>)
 8007674:	6862      	ldr	r2, [r4, #4]
 8007676:	4319      	orrs	r1, r3
 8007678:	1c2b      	adds	r3, r5, #0
 800767a:	f7ff fccf 	bl	800701c <fwrite_async>
 800767e:	e00b      	b.n	8007698 <cdcd_write+0xa0>
 8007680:	1c23      	adds	r3, r4, #0
 8007682:	332a      	adds	r3, #42	; 0x2a
 8007684:	7819      	ldrb	r1, [r3, #0]
 8007686:	23e0      	movs	r3, #224	; 0xe0
 8007688:	0209      	lsls	r1, r1, #8
 800768a:	3101      	adds	r1, #1
 800768c:	31ff      	adds	r1, #255	; 0xff
 800768e:	031b      	lsls	r3, r3, #12
 8007690:	4319      	orrs	r1, r3
 8007692:	6920      	ldr	r0, [r4, #16]
 8007694:	f7ff fce4 	bl	8007060 <stream_listen>
 8007698:	b005      	add	sp, #20
 800769a:	bdf0      	pop	{r4, r5, r6, r7, pc}
 800769c:	00060080 	.word	0x00060080

080076a0 <cdcd_class_setup>:
 80076a0:	b5f8      	push	{r3, r4, r5, r6, r7, lr}
 80076a2:	1c0c      	adds	r4, r1, #0
 80076a4:	7851      	ldrb	r1, [r2, #1]
 80076a6:	2921      	cmp	r1, #33	; 0x21
 80076a8:	d02b      	beq.n	8007702 <cdcd_class_setup+0x62>
 80076aa:	2922      	cmp	r1, #34	; 0x22
 80076ac:	d06a      	beq.n	8007784 <cdcd_class_setup+0xe4>
 80076ae:	2920      	cmp	r1, #32
 80076b0:	d000      	beq.n	80076b4 <cdcd_class_setup+0x14>
 80076b2:	e089      	b.n	80077c8 <cdcd_class_setup+0x128>
 80076b4:	1c18      	adds	r0, r3, #0
 80076b6:	f7ff fca8 	bl	800700a <block_open>
 80076ba:	2800      	cmp	r0, #0
 80076bc:	d100      	bne.n	80076c0 <cdcd_class_setup+0x20>
 80076be:	e083      	b.n	80077c8 <cdcd_class_setup+0x128>
 80076c0:	7842      	ldrb	r2, [r0, #1]
 80076c2:	7805      	ldrb	r5, [r0, #0]
 80076c4:	7883      	ldrb	r3, [r0, #2]
 80076c6:	0212      	lsls	r2, r2, #8
 80076c8:	432a      	orrs	r2, r5
 80076ca:	041b      	lsls	r3, r3, #16
 80076cc:	4313      	orrs	r3, r2
 80076ce:	1c1a      	adds	r2, r3, #0
 80076d0:	78c3      	ldrb	r3, [r0, #3]
 80076d2:	061b      	lsls	r3, r3, #24
 80076d4:	4313      	orrs	r3, r2
 80076d6:	62e3      	str	r3, [r4, #44]	; 0x2c
 80076d8:	7903      	ldrb	r3, [r0, #4]
 80076da:	2b02      	cmp	r3, #2
 80076dc:	d874      	bhi.n	80077c8 <cdcd_class_setup+0x128>
 80076de:	4a3c      	ldr	r2, [pc, #240]	; (80077d0 <cdcd_class_setup+0x130>)
 80076e0:	009b      	lsls	r3, r3, #2
 80076e2:	589a      	ldr	r2, [r3, r2]
 80076e4:	1c23      	adds	r3, r4, #0
 80076e6:	3332      	adds	r3, #50	; 0x32
 80076e8:	701a      	strb	r2, [r3, #0]
 80076ea:	7943      	ldrb	r3, [r0, #5]
 80076ec:	2b04      	cmp	r3, #4
 80076ee:	d86b      	bhi.n	80077c8 <cdcd_class_setup+0x128>
 80076f0:	1c22      	adds	r2, r4, #0
 80076f2:	4938      	ldr	r1, [pc, #224]	; (80077d4 <cdcd_class_setup+0x134>)
 80076f4:	3231      	adds	r2, #49	; 0x31
 80076f6:	5ccb      	ldrb	r3, [r1, r3]
 80076f8:	3430      	adds	r4, #48	; 0x30
 80076fa:	7013      	strb	r3, [r2, #0]
 80076fc:	7983      	ldrb	r3, [r0, #6]
 80076fe:	7023      	strb	r3, [r4, #0]
 8007700:	e052      	b.n	80077a8 <cdcd_class_setup+0x108>
 8007702:	1c18      	adds	r0, r3, #0
 8007704:	f7ff fc81 	bl	800700a <block_open>
 8007708:	1e03      	subs	r3, r0, #0
 800770a:	d05d      	beq.n	80077c8 <cdcd_class_setup+0x128>
 800770c:	1c22      	adds	r2, r4, #0
 800770e:	322c      	adds	r2, #44	; 0x2c
 8007710:	7812      	ldrb	r2, [r2, #0]
 8007712:	7002      	strb	r2, [r0, #0]
 8007714:	1c22      	adds	r2, r4, #0
 8007716:	322d      	adds	r2, #45	; 0x2d
 8007718:	7812      	ldrb	r2, [r2, #0]
 800771a:	7042      	strb	r2, [r0, #1]
 800771c:	1c22      	adds	r2, r4, #0
 800771e:	322e      	adds	r2, #46	; 0x2e
 8007720:	7812      	ldrb	r2, [r2, #0]
 8007722:	7082      	strb	r2, [r0, #2]
 8007724:	1c22      	adds	r2, r4, #0
 8007726:	322f      	adds	r2, #47	; 0x2f
 8007728:	7812      	ldrb	r2, [r2, #0]
 800772a:	70c2      	strb	r2, [r0, #3]
 800772c:	1c22      	adds	r2, r4, #0
 800772e:	3232      	adds	r2, #50	; 0x32
 8007730:	7812      	ldrb	r2, [r2, #0]
 8007732:	2a02      	cmp	r2, #2
 8007734:	d006      	beq.n	8007744 <cdcd_class_setup+0xa4>
 8007736:	2a0f      	cmp	r2, #15
 8007738:	d003      	beq.n	8007742 <cdcd_class_setup+0xa2>
 800773a:	2a01      	cmp	r2, #1
 800773c:	d103      	bne.n	8007746 <cdcd_class_setup+0xa6>
 800773e:	2200      	movs	r2, #0
 8007740:	e000      	b.n	8007744 <cdcd_class_setup+0xa4>
 8007742:	2201      	movs	r2, #1
 8007744:	711a      	strb	r2, [r3, #4]
 8007746:	1c22      	adds	r2, r4, #0
 8007748:	3231      	adds	r2, #49	; 0x31
 800774a:	7810      	ldrb	r0, [r2, #0]
 800774c:	3845      	subs	r0, #69	; 0x45
 800774e:	280e      	cmp	r0, #14
 8007750:	d813      	bhi.n	800777a <cdcd_class_setup+0xda>
 8007752:	f000 f8d1 	bl	80078f8 <__gnu_thumb1_case_uqi>
 8007756:	120c      	.short	0x120c
 8007758:	12121212 	.word	0x12121212
 800775c:	080e1212 	.word	0x080e1212
 8007760:	1212120a 	.word	0x1212120a
 8007764:	10          	.byte	0x10
 8007765:	00          	.byte	0x00
 8007766:	2200      	movs	r2, #0
 8007768:	e006      	b.n	8007778 <cdcd_class_setup+0xd8>
 800776a:	2201      	movs	r2, #1
 800776c:	e004      	b.n	8007778 <cdcd_class_setup+0xd8>
 800776e:	2202      	movs	r2, #2
 8007770:	e002      	b.n	8007778 <cdcd_class_setup+0xd8>
 8007772:	2203      	movs	r2, #3
 8007774:	e000      	b.n	8007778 <cdcd_class_setup+0xd8>
 8007776:	2204      	movs	r2, #4
 8007778:	715a      	strb	r2, [r3, #5]
 800777a:	3430      	adds	r4, #48	; 0x30
 800777c:	7822      	ldrb	r2, [r4, #0]
 800777e:	2507      	movs	r5, #7
 8007780:	719a      	strb	r2, [r3, #6]
 8007782:	e023      	b.n	80077cc <cdcd_class_setup+0x12c>
 8007784:	2601      	movs	r6, #1
 8007786:	78d5      	ldrb	r5, [r2, #3]
 8007788:	7893      	ldrb	r3, [r2, #2]
 800778a:	022d      	lsls	r5, r5, #8
 800778c:	431d      	orrs	r5, r3
 800778e:	4035      	ands	r5, r6
 8007790:	1de3      	adds	r3, r4, #7
 8007792:	77dd      	strb	r5, [r3, #31]
 8007794:	7893      	ldrb	r3, [r2, #2]
 8007796:	1c22      	adds	r2, r4, #0
 8007798:	4033      	ands	r3, r6
 800779a:	3208      	adds	r2, #8
 800779c:	77d3      	strb	r3, [r2, #31]
 800779e:	2d00      	cmp	r5, #0
 80077a0:	d004      	beq.n	80077ac <cdcd_class_setup+0x10c>
 80077a2:	1c21      	adds	r1, r4, #0
 80077a4:	f7ff ff28 	bl	80075f8 <cdcd_write>
 80077a8:	2500      	movs	r5, #0
 80077aa:	e00f      	b.n	80077cc <cdcd_class_setup+0x12c>
 80077ac:	1c27      	adds	r7, r4, #0
 80077ae:	3728      	adds	r7, #40	; 0x28
 80077b0:	783b      	ldrb	r3, [r7, #0]
 80077b2:	2b00      	cmp	r3, #0
 80077b4:	d10a      	bne.n	80077cc <cdcd_class_setup+0x12c>
 80077b6:	f7ff fbeb 	bl	8006f90 <usbd_usb>
 80077ba:	7f21      	ldrb	r1, [r4, #28]
 80077bc:	4b06      	ldr	r3, [pc, #24]	; (80077d8 <cdcd_class_setup+0x138>)
 80077be:	4319      	orrs	r1, r3
 80077c0:	f7ff fc9c 	bl	80070fc <fflush>
 80077c4:	703e      	strb	r6, [r7, #0]
 80077c6:	e001      	b.n	80077cc <cdcd_class_setup+0x12c>
 80077c8:	2501      	movs	r5, #1
 80077ca:	426d      	negs	r5, r5
 80077cc:	1c28      	adds	r0, r5, #0
 80077ce:	bdf8      	pop	{r3, r4, r5, r6, r7, pc}
 80077d0:	08008b74 	.word	0x08008b74
 80077d4:	08008b54 	.word	0x08008b54
 80077d8:	00060080 	.word	0x00060080

080077dc <cdcd_class_request>:
 80077dc:	b5f0      	push	{r4, r5, r6, r7, lr}
 80077de:	6853      	ldr	r3, [r2, #4]
 80077e0:	1c0c      	adds	r4, r1, #0
 80077e2:	4940      	ldr	r1, [pc, #256]	; (80078e4 <cdcd_class_request+0x108>)
 80077e4:	b085      	sub	sp, #20
 80077e6:	1c06      	adds	r6, r0, #0
 80077e8:	428b      	cmp	r3, r1
 80077ea:	d054      	beq.n	8007896 <cdcd_class_request+0xba>
 80077ec:	d805      	bhi.n	80077fa <cdcd_class_request+0x1e>
 80077ee:	2b01      	cmp	r3, #1
 80077f0:	d05c      	beq.n	80078ac <cdcd_class_request+0xd0>
 80077f2:	3901      	subs	r1, #1
 80077f4:	428b      	cmp	r3, r1
 80077f6:	d00b      	beq.n	8007810 <cdcd_class_request+0x34>
 80077f8:	e06a      	b.n	80078d0 <cdcd_class_request+0xf4>
 80077fa:	493b      	ldr	r1, [pc, #236]	; (80078e8 <cdcd_class_request+0x10c>)
 80077fc:	428b      	cmp	r3, r1
 80077fe:	d05c      	beq.n	80078ba <cdcd_class_request+0xde>
 8007800:	493a      	ldr	r1, [pc, #232]	; (80078ec <cdcd_class_request+0x110>)
 8007802:	428b      	cmp	r3, r1
 8007804:	d05c      	beq.n	80078c0 <cdcd_class_request+0xe4>
 8007806:	493a      	ldr	r1, [pc, #232]	; (80078f0 <cdcd_class_request+0x114>)
 8007808:	428b      	cmp	r3, r1
 800780a:	d161      	bne.n	80078d0 <cdcd_class_request+0xf4>
 800780c:	68e3      	ldr	r3, [r4, #12]
 800780e:	e055      	b.n	80078bc <cdcd_class_request+0xe0>
 8007810:	6913      	ldr	r3, [r2, #16]
 8007812:	9301      	str	r3, [sp, #4]
 8007814:	1c23      	adds	r3, r4, #0
 8007816:	332b      	adds	r3, #43	; 0x2b
 8007818:	781b      	ldrb	r3, [r3, #0]
 800781a:	2b00      	cmp	r3, #0
 800781c:	d139      	bne.n	8007892 <cdcd_class_request+0xb6>
 800781e:	8c62      	ldrh	r2, [r4, #34]	; 0x22
 8007820:	9901      	ldr	r1, [sp, #4]
 8007822:	428a      	cmp	r2, r1
 8007824:	d206      	bcs.n	8007834 <cdcd_class_request+0x58>
 8007826:	201b      	movs	r0, #27
 8007828:	68e1      	ldr	r1, [r4, #12]
 800782a:	aa03      	add	r2, sp, #12
 800782c:	f7f8 fcd4 	bl	80001d8 <svc_call>
 8007830:	9b03      	ldr	r3, [sp, #12]
 8007832:	8463      	strh	r3, [r4, #34]	; 0x22
 8007834:	8c65      	ldrh	r5, [r4, #34]	; 0x22
 8007836:	9b01      	ldr	r3, [sp, #4]
 8007838:	429d      	cmp	r5, r3
 800783a:	d900      	bls.n	800783e <cdcd_class_request+0x62>
 800783c:	1c1d      	adds	r5, r3, #0
 800783e:	6820      	ldr	r0, [r4, #0]
 8007840:	f7ff fbe3 	bl	800700a <block_open>
 8007844:	1e02      	subs	r2, r0, #0
 8007846:	d012      	beq.n	800786e <cdcd_class_request+0x92>
 8007848:	2d00      	cmp	r5, #0
 800784a:	d010      	beq.n	800786e <cdcd_class_request+0x92>
 800784c:	2780      	movs	r7, #128	; 0x80
 800784e:	2000      	movs	r0, #0
 8007850:	05bf      	lsls	r7, r7, #22
 8007852:	683b      	ldr	r3, [r7, #0]
 8007854:	69a1      	ldr	r1, [r4, #24]
 8007856:	6018      	str	r0, [r3, #0]
 8007858:	1c2b      	adds	r3, r5, #0
 800785a:	301e      	adds	r0, #30
 800785c:	f7f8 fcbc 	bl	80001d8 <svc_call>
 8007860:	683b      	ldr	r3, [r7, #0]
 8007862:	681b      	ldr	r3, [r3, #0]
 8007864:	2b00      	cmp	r3, #0
 8007866:	d102      	bne.n	800786e <cdcd_class_request+0x92>
 8007868:	8c63      	ldrh	r3, [r4, #34]	; 0x22
 800786a:	1b5b      	subs	r3, r3, r5
 800786c:	8463      	strh	r3, [r4, #34]	; 0x22
 800786e:	1c30      	adds	r0, r6, #0
 8007870:	f7ff fb8e 	bl	8006f90 <usbd_usb>
 8007874:	21c0      	movs	r1, #192	; 0xc0
 8007876:	7f23      	ldrb	r3, [r4, #28]
 8007878:	02c9      	lsls	r1, r1, #11
 800787a:	4319      	orrs	r1, r3
 800787c:	6822      	ldr	r2, [r4, #0]
 800787e:	f7ff fc84 	bl	800718a <fread_async.constprop.2>
 8007882:	9b01      	ldr	r3, [sp, #4]
 8007884:	429d      	cmp	r5, r3
 8007886:	d204      	bcs.n	8007892 <cdcd_class_request+0xb6>
 8007888:	1c30      	adds	r0, r6, #0
 800788a:	1c21      	adds	r1, r4, #0
 800788c:	2243      	movs	r2, #67	; 0x43
 800788e:	f7ff fc95 	bl	80071bc <cdcd_notify_serial_state>
 8007892:	2000      	movs	r0, #0
 8007894:	e023      	b.n	80078de <cdcd_class_request+0x102>
 8007896:	7f21      	ldrb	r1, [r4, #28]
 8007898:	4b16      	ldr	r3, [pc, #88]	; (80078f4 <cdcd_class_request+0x118>)
 800789a:	6892      	ldr	r2, [r2, #8]
 800789c:	430b      	orrs	r3, r1
 800789e:	429a      	cmp	r2, r3
 80078a0:	d1f7      	bne.n	8007892 <cdcd_class_request+0xb6>
 80078a2:	1c23      	adds	r3, r4, #0
 80078a4:	2201      	movs	r2, #1
 80078a6:	3328      	adds	r3, #40	; 0x28
 80078a8:	701a      	strb	r2, [r3, #0]
 80078aa:	e001      	b.n	80078b0 <cdcd_class_request+0xd4>
 80078ac:	6913      	ldr	r3, [r2, #16]
 80078ae:	84a3      	strh	r3, [r4, #36]	; 0x24
 80078b0:	1c30      	adds	r0, r6, #0
 80078b2:	1c21      	adds	r1, r4, #0
 80078b4:	f7ff fea0 	bl	80075f8 <cdcd_write>
 80078b8:	e7eb      	b.n	8007892 <cdcd_class_request+0xb6>
 80078ba:	6923      	ldr	r3, [r4, #16]
 80078bc:	60d3      	str	r3, [r2, #12]
 80078be:	e00d      	b.n	80078dc <cdcd_class_request+0x100>
 80078c0:	68d3      	ldr	r3, [r2, #12]
 80078c2:	2b00      	cmp	r3, #0
 80078c4:	d104      	bne.n	80078d0 <cdcd_class_request+0xf4>
 80078c6:	1c21      	adds	r1, r4, #0
 80078c8:	2207      	movs	r2, #7
 80078ca:	f7ff fc77 	bl	80071bc <cdcd_notify_serial_state>
 80078ce:	e005      	b.n	80078dc <cdcd_class_request+0x100>
 80078d0:	2380      	movs	r3, #128	; 0x80
 80078d2:	2202      	movs	r2, #2
 80078d4:	059b      	lsls	r3, r3, #22
 80078d6:	681b      	ldr	r3, [r3, #0]
 80078d8:	4252      	negs	r2, r2
 80078da:	601a      	str	r2, [r3, #0]
 80078dc:	2001      	movs	r0, #1
 80078de:	b005      	add	sp, #20
 80078e0:	bdf0      	pop	{r4, r5, r6, r7, pc}
 80078e2:	46c0      	nop			; (mov r8, r8)
 80078e4:	00001001 	.word	0x00001001
 80078e8:	00001008 	.word	0x00001008
 80078ec:	000f0005 	.word	0x000f0005
 80078f0:	00001007 	.word	0x00001007
 80078f4:	00060080 	.word	0x00060080

080078f8 <__gnu_thumb1_case_uqi>:
 80078f8:	b402      	push	{r1}
 80078fa:	4671      	mov	r1, lr
 80078fc:	0849      	lsrs	r1, r1, #1
 80078fe:	0049      	lsls	r1, r1, #1
 8007900:	5c09      	ldrb	r1, [r1, r0]
 8007902:	0049      	lsls	r1, r1, #1
 8007904:	448e      	add	lr, r1
 8007906:	bc02      	pop	{r1}
 8007908:	4770      	bx	lr
 800790a:	46c0      	nop			; (mov r8, r8)

0800790c <__gnu_thumb1_case_uhi>:
 800790c:	b403      	push	{r0, r1}
 800790e:	4671      	mov	r1, lr
 8007910:	0849      	lsrs	r1, r1, #1
 8007912:	0040      	lsls	r0, r0, #1
 8007914:	0049      	lsls	r1, r1, #1
 8007916:	5a09      	ldrh	r1, [r1, r0]
 8007918:	0049      	lsls	r1, r1, #1
 800791a:	448e      	add	lr, r1
 800791c:	bc03      	pop	{r0, r1}
 800791e:	4770      	bx	lr

08007920 <__aeabi_uidiv>:
 8007920:	2200      	movs	r2, #0
 8007922:	0843      	lsrs	r3, r0, #1
 8007924:	428b      	cmp	r3, r1
 8007926:	d374      	bcc.n	8007a12 <__aeabi_uidiv+0xf2>
 8007928:	0903      	lsrs	r3, r0, #4
 800792a:	428b      	cmp	r3, r1
 800792c:	d35f      	bcc.n	80079ee <__aeabi_uidiv+0xce>
 800792e:	0a03      	lsrs	r3, r0, #8
 8007930:	428b      	cmp	r3, r1
 8007932:	d344      	bcc.n	80079be <__aeabi_uidiv+0x9e>
 8007934:	0b03      	lsrs	r3, r0, #12
 8007936:	428b      	cmp	r3, r1
 8007938:	d328      	bcc.n	800798c <__aeabi_uidiv+0x6c>
 800793a:	0c03      	lsrs	r3, r0, #16
 800793c:	428b      	cmp	r3, r1
 800793e:	d30d      	bcc.n	800795c <__aeabi_uidiv+0x3c>
 8007940:	22ff      	movs	r2, #255	; 0xff
 8007942:	0209      	lsls	r1, r1, #8
 8007944:	ba12      	rev	r2, r2
 8007946:	0c03      	lsrs	r3, r0, #16
 8007948:	428b      	cmp	r3, r1
 800794a:	d302      	bcc.n	8007952 <__aeabi_uidiv+0x32>
 800794c:	1212      	asrs	r2, r2, #8
 800794e:	0209      	lsls	r1, r1, #8
 8007950:	d065      	beq.n	8007a1e <__aeabi_uidiv+0xfe>
 8007952:	0b03      	lsrs	r3, r0, #12
 8007954:	428b      	cmp	r3, r1
 8007956:	d319      	bcc.n	800798c <__aeabi_uidiv+0x6c>
 8007958:	e000      	b.n	800795c <__aeabi_uidiv+0x3c>
 800795a:	0a09      	lsrs	r1, r1, #8
 800795c:	0bc3      	lsrs	r3, r0, #15
 800795e:	428b      	cmp	r3, r1
 8007960:	d301      	bcc.n	8007966 <__aeabi_uidiv+0x46>
 8007962:	03cb      	lsls	r3, r1, #15
 8007964:	1ac0      	subs	r0, r0, r3
 8007966:	4152      	adcs	r2, r2
 8007968:	0b83      	lsrs	r3, r0, #14
 800796a:	428b      	cmp	r3, r1
 800796c:	d301      	bcc.n	8007972 <__aeabi_uidiv+0x52>
 800796e:	038b      	lsls	r3, r1, #14
 8007970:	1ac0      	subs	r0, r0, r3
 8007972:	4152      	adcs	r2, r2
 8007974:	0b43      	lsrs	r3, r0, #13
 8007976:	428b      	cmp	r3, r1
 8007978:	d301      	bcc.n	800797e <__aeabi_uidiv+0x5e>
 800797a:	034b      	lsls	r3, r1, #13
 800797c:	1ac0      	subs	r0, r0, r3
 800797e:	4152      	adcs	r2, r2
 8007980:	0b03      	lsrs	r3, r0, #12
 8007982:	428b      	cmp	r3, r1
 8007984:	d301      	bcc.n	800798a <__aeabi_uidiv+0x6a>
 8007986:	030b      	lsls	r3, r1, #12
 8007988:	1ac0      	subs	r0, r0, r3
 800798a:	4152      	adcs	r2, r2
 800798c:	0ac3      	lsrs	r3, r0, #11
 800798e:	428b      	cmp	r3, r1
 8007990:	d301      	bcc.n	8007996 <__aeabi_uidiv+0x76>
 8007992:	02cb      	lsls	r3, r1, #11
 8007994:	1ac0      	subs	r0, r0, r3
 8007996:	4152      	adcs	r2, r2
 8007998:	0a83      	lsrs	r3, r0, #10
 800799a:	428b      	cmp	r3, r1
 800799c:	d301      	bcc.n	80079a2 <__aeabi_uidiv+0x82>
 800799e:	028b      	lsls	r3, r1, #10
 80079a0:	1ac0      	subs	r0, r0, r3
 80079a2:	4152      	adcs	r2, r2
 80079a4:	0a43      	lsrs	r3, r0, #9
 80079a6:	428b      	cmp	r3, r1
 80079a8:	d301      	bcc.n	80079ae <__aeabi_uidiv+0x8e>
 80079aa:	024b      	lsls	r3, r1, #9
 80079ac:	1ac0      	subs	r0, r0, r3
 80079ae:	4152      	adcs	r2, r2
 80079b0:	0a03      	lsrs	r3, r0, #8
 80079b2:	428b      	cmp	r3, r1
 80079b4:	d301      	bcc.n	80079ba <__aeabi_uidiv+0x9a>
 80079b6:	020b      	lsls	r3, r1, #8
 80079b8:	1ac0      	subs	r0, r0, r3
 80079ba:	4152      	adcs	r2, r2
 80079bc:	d2cd      	bcs.n	800795a <__aeabi_uidiv+0x3a>
 80079be:	09c3      	lsrs	r3, r0, #7
 80079c0:	428b      	cmp	r3, r1
 80079c2:	d301      	bcc.n	80079c8 <__aeabi_uidiv+0xa8>
 80079c4:	01cb      	lsls	r3, r1, #7
 80079c6:	1ac0      	subs	r0, r0, r3
 80079c8:	4152      	adcs	r2, r2
 80079ca:	0983      	lsrs	r3, r0, #6
 80079cc:	428b      	cmp	r3, r1
 80079ce:	d301      	bcc.n	80079d4 <__aeabi_uidiv+0xb4>
 80079d0:	018b      	lsls	r3, r1, #6
 80079d2:	1ac0      	subs	r0, r0, r3
 80079d4:	4152      	adcs	r2, r2
 80079d6:	0943      	lsrs	r3, r0, #5
 80079d8:	428b      	cmp	r3, r1
 80079da:	d301      	bcc.n	80079e0 <__aeabi_uidiv+0xc0>
 80079dc:	014b      	lsls	r3, r1, #5
 80079de:	1ac0      	subs	r0, r0, r3
 80079e0:	4152      	adcs	r2, r2
 80079e2:	0903      	lsrs	r3, r0, #4
 80079e4:	428b      	cmp	r3, r1
 80079e6:	d301      	bcc.n	80079ec <__aeabi_uidiv+0xcc>
 80079e8:	010b      	lsls	r3, r1, #4
 80079ea:	1ac0      	subs	r0, r0, r3
 80079ec:	4152      	adcs	r2, r2
 80079ee:	08c3      	lsrs	r3, r0, #3
 80079f0:	428b      	cmp	r3, r1
 80079f2:	d301      	bcc.n	80079f8 <__aeabi_uidiv+0xd8>
 80079f4:	00cb      	lsls	r3, r1, #3
 80079f6:	1ac0      	subs	r0, r0, r3
 80079f8:	4152      	adcs	r2, r2
 80079fa:	0883      	lsrs	r3, r0, #2
 80079fc:	428b      	cmp	r3, r1
 80079fe:	d301      	bcc.n	8007a04 <__aeabi_uidiv+0xe4>
 8007a00:	008b      	lsls	r3, r1, #2
 8007a02:	1ac0      	subs	r0, r0, r3
 8007a04:	4152      	adcs	r2, r2
 8007a06:	0843      	lsrs	r3, r0, #1
 8007a08:	428b      	cmp	r3, r1
 8007a0a:	d301      	bcc.n	8007a10 <__aeabi_uidiv+0xf0>
 8007a0c:	004b      	lsls	r3, r1, #1
 8007a0e:	1ac0      	subs	r0, r0, r3
 8007a10:	4152      	adcs	r2, r2
 8007a12:	1a41      	subs	r1, r0, r1
 8007a14:	d200      	bcs.n	8007a18 <__aeabi_uidiv+0xf8>
 8007a16:	4601      	mov	r1, r0
 8007a18:	4152      	adcs	r2, r2
 8007a1a:	4610      	mov	r0, r2
 8007a1c:	4770      	bx	lr
 8007a1e:	e7ff      	b.n	8007a20 <__aeabi_uidiv+0x100>
 8007a20:	b501      	push	{r0, lr}
 8007a22:	2000      	movs	r0, #0
 8007a24:	f000 f8fc 	bl	8007c20 <__aeabi_idiv0>
 8007a28:	bd02      	pop	{r1, pc}
 8007a2a:	46c0      	nop			; (mov r8, r8)

08007a2c <__aeabi_uidivmod>:
 8007a2c:	2900      	cmp	r1, #0
 8007a2e:	d0f7      	beq.n	8007a20 <__aeabi_uidiv+0x100>
 8007a30:	b503      	push	{r0, r1, lr}
 8007a32:	f7ff ff75 	bl	8007920 <__aeabi_uidiv>
 8007a36:	bc0e      	pop	{r1, r2, r3}
 8007a38:	4342      	muls	r2, r0
 8007a3a:	1a89      	subs	r1, r1, r2
 8007a3c:	4718      	bx	r3
 8007a3e:	46c0      	nop			; (mov r8, r8)

08007a40 <__aeabi_idiv>:
 8007a40:	4603      	mov	r3, r0
 8007a42:	430b      	orrs	r3, r1
 8007a44:	d47f      	bmi.n	8007b46 <__aeabi_idiv+0x106>
 8007a46:	2200      	movs	r2, #0
 8007a48:	0843      	lsrs	r3, r0, #1
 8007a4a:	428b      	cmp	r3, r1
 8007a4c:	d374      	bcc.n	8007b38 <__aeabi_idiv+0xf8>
 8007a4e:	0903      	lsrs	r3, r0, #4
 8007a50:	428b      	cmp	r3, r1
 8007a52:	d35f      	bcc.n	8007b14 <__aeabi_idiv+0xd4>
 8007a54:	0a03      	lsrs	r3, r0, #8
 8007a56:	428b      	cmp	r3, r1
 8007a58:	d344      	bcc.n	8007ae4 <__aeabi_idiv+0xa4>
 8007a5a:	0b03      	lsrs	r3, r0, #12
 8007a5c:	428b      	cmp	r3, r1
 8007a5e:	d328      	bcc.n	8007ab2 <__aeabi_idiv+0x72>
 8007a60:	0c03      	lsrs	r3, r0, #16
 8007a62:	428b      	cmp	r3, r1
 8007a64:	d30d      	bcc.n	8007a82 <__aeabi_idiv+0x42>
 8007a66:	22ff      	movs	r2, #255	; 0xff
 8007a68:	0209      	lsls	r1, r1, #8
 8007a6a:	ba12      	rev	r2, r2
 8007a6c:	0c03      	lsrs	r3, r0, #16
 8007a6e:	428b      	cmp	r3, r1
 8007a70:	d302      	bcc.n	8007a78 <__aeabi_idiv+0x38>
 8007a72:	1212      	asrs	r2, r2, #8
 8007a74:	0209      	lsls	r1, r1, #8
 8007a76:	d065      	beq.n	8007b44 <__aeabi_idiv+0x104>
 8007a78:	0b03      	lsrs	r3, r0, #12
 8007a7a:	428b      	cmp	r3, r1
 8007a7c:	d319      	bcc.n	8007ab2 <__aeabi_idiv+0x72>
 8007a7e:	e000      	b.n	8007a82 <__aeabi_idiv+0x42>
 8007a80:	0a09      	lsrs	r1, r1, #8
 8007a82:	0bc3      	lsrs	r3, r0, #15
 8007a84:	428b      	cmp	r3, r1
 8007a86:	d301      	bcc.n	8007a8c <__aeabi_idiv+0x4c>
 8007a88:	03cb      	lsls	r3, r1, #15
 8007a8a:	1ac0      	subs	r0, r0, r3
 8007a8c:	4152      	adcs	r2, r2
 8007a8e:	0b83      	lsrs	r3, r0, #14
 8007a90:	428b      	cmp	r3, r1
 8007a92:	d301      	bcc.n	8007a98 <__aeabi_idiv+0x58>
 8007a94:	038b      	lsls	r3, r1, #14
 8007a96:	1ac0      	subs	r0, r0, r3
 8007a98:	4152      	adcs	r2, r2
 8007a9a:	0b43      	lsrs	r3, r0, #13
 8007a9c:	428b      	cmp	r3, r1
 8007a9e:	d301      	bcc.n	8007aa4 <__aeabi_idiv+0x64>
 8007aa0:	034b      	lsls	r3, r1, #13
 8007aa2:	1ac0      	subs	r0, r0, r3
 8007aa4:	4152      	adcs	r2, r2
 8007aa6:	0b03      	lsrs	r3, r0, #12
 8007aa8:	428b      	cmp	r3, r1
 8007aaa:	d301      	bcc.n	8007ab0 <__aeabi_idiv+0x70>
 8007aac:	030b      	lsls	r3, r1, #12
 8007aae:	1ac0      	subs	r0, r0, r3
 8007ab0:	4152      	adcs	r2, r2
 8007ab2:	0ac3      	lsrs	r3, r0, #11
 8007ab4:	428b      	cmp	r3, r1
 8007ab6:	d301      	bcc.n	8007abc <__aeabi_idiv+0x7c>
 8007ab8:	02cb      	lsls	r3, r1, #11
 8007aba:	1ac0      	subs	r0, r0, r3
 8007abc:	4152      	adcs	r2, r2
 8007abe:	0a83      	lsrs	r3, r0, #10
 8007ac0:	428b      	cmp	r3, r1
 8007ac2:	d301      	bcc.n	8007ac8 <__aeabi_idiv+0x88>
 8007ac4:	028b      	lsls	r3, r1, #10
 8007ac6:	1ac0      	subs	r0, r0, r3
 8007ac8:	4152      	adcs	r2, r2
 8007aca:	0a43      	lsrs	r3, r0, #9
 8007acc:	428b      	cmp	r3, r1
 8007ace:	d301      	bcc.n	8007ad4 <__aeabi_idiv+0x94>
 8007ad0:	024b      	lsls	r3, r1, #9
 8007ad2:	1ac0      	subs	r0, r0, r3
 8007ad4:	4152      	adcs	r2, r2
 8007ad6:	0a03      	lsrs	r3, r0, #8
 8007ad8:	428b      	cmp	r3, r1
 8007ada:	d301      	bcc.n	8007ae0 <__aeabi_idiv+0xa0>
 8007adc:	020b      	lsls	r3, r1, #8
 8007ade:	1ac0      	subs	r0, r0, r3
 8007ae0:	4152      	adcs	r2, r2
 8007ae2:	d2cd      	bcs.n	8007a80 <__aeabi_idiv+0x40>
 8007ae4:	09c3      	lsrs	r3, r0, #7
 8007ae6:	428b      	cmp	r3, r1
 8007ae8:	d301      	bcc.n	8007aee <__aeabi_idiv+0xae>
 8007aea:	01cb      	lsls	r3, r1, #7
 8007aec:	1ac0      	subs	r0, r0, r3
 8007aee:	4152      	adcs	r2, r2
 8007af0:	0983      	lsrs	r3, r0, #6
 8007af2:	428b      	cmp	r3, r1
 8007af4:	d301      	bcc.n	8007afa <__aeabi_idiv+0xba>
 8007af6:	018b      	lsls	r3, r1, #6
 8007af8:	1ac0      	subs	r0, r0, r3
 8007afa:	4152      	adcs	r2, r2
 8007afc:	0943      	lsrs	r3, r0, #5
 8007afe:	428b      	cmp	r3, r1
 8007b00:	d301      	bcc.n	8007b06 <__aeabi_idiv+0xc6>
 8007b02:	014b      	lsls	r3, r1, #5
 8007b04:	1ac0      	subs	r0, r0, r3
 8007b06:	4152      	adcs	r2, r2
 8007b08:	0903      	lsrs	r3, r0, #4
 8007b0a:	428b      	cmp	r3, r1
 8007b0c:	d301      	bcc.n	8007b12 <__aeabi_idiv+0xd2>
 8007b0e:	010b      	lsls	r3, r1, #4
 8007b10:	1ac0      	subs	r0, r0, r3
 8007b12:	4152      	adcs	r2, r2
 8007b14:	08c3      	lsrs	r3, r0, #3
 8007b16:	428b      	cmp	r3, r1
 8007b18:	d301      	bcc.n	8007b1e <__aeabi_idiv+0xde>
 8007b1a:	00cb      	lsls	r3, r1, #3
 8007b1c:	1ac0      	subs	r0, r0, r3
 8007b1e:	4152      	adcs	r2, r2
 8007b20:	0883      	lsrs	r3, r0, #2
 8007b22:	428b      	cmp	r3, r1
 8007b24:	d301      	bcc.n	8007b2a <__aeabi_idiv+0xea>
 8007b26:	008b      	lsls	r3, r1, #2
 8007b28:	1ac0      	subs	r0, r0, r3
 8007b2a:	4152      	adcs	r2, r2
 8007b2c:	0843      	lsrs	r3, r0, #1
 8007b2e:	428b      	cmp	r3, r1
 8007b30:	d301      	bcc.n	8007b36 <__aeabi_idiv+0xf6>
 8007b32:	004b      	lsls	r3, r1, #1
 8007b34:	1ac0      	subs	r0, r0, r3
 8007b36:	4152      	adcs	r2, r2
 8007b38:	1a41      	subs	r1, r0, r1
 8007b3a:	d200      	bcs.n	8007b3e <__aeabi_idiv+0xfe>
 8007b3c:	4601      	mov	r1, r0
 8007b3e:	4152      	adcs	r2, r2
 8007b40:	4610      	mov	r0, r2
 8007b42:	4770      	bx	lr
 8007b44:	e05d      	b.n	8007c02 <__aeabi_idiv+0x1c2>
 8007b46:	0fca      	lsrs	r2, r1, #31
 8007b48:	d000      	beq.n	8007b4c <__aeabi_idiv+0x10c>
 8007b4a:	4249      	negs	r1, r1
 8007b4c:	1003      	asrs	r3, r0, #32
 8007b4e:	d300      	bcc.n	8007b52 <__aeabi_idiv+0x112>
 8007b50:	4240      	negs	r0, r0
 8007b52:	4053      	eors	r3, r2
 8007b54:	2200      	movs	r2, #0
 8007b56:	469c      	mov	ip, r3
 8007b58:	0903      	lsrs	r3, r0, #4
 8007b5a:	428b      	cmp	r3, r1
 8007b5c:	d32d      	bcc.n	8007bba <__aeabi_idiv+0x17a>
 8007b5e:	0a03      	lsrs	r3, r0, #8
 8007b60:	428b      	cmp	r3, r1
 8007b62:	d312      	bcc.n	8007b8a <__aeabi_idiv+0x14a>
 8007b64:	22fc      	movs	r2, #252	; 0xfc
 8007b66:	0189      	lsls	r1, r1, #6
 8007b68:	ba12      	rev	r2, r2
 8007b6a:	0a03      	lsrs	r3, r0, #8
 8007b6c:	428b      	cmp	r3, r1
 8007b6e:	d30c      	bcc.n	8007b8a <__aeabi_idiv+0x14a>
 8007b70:	0189      	lsls	r1, r1, #6
 8007b72:	1192      	asrs	r2, r2, #6
 8007b74:	428b      	cmp	r3, r1
 8007b76:	d308      	bcc.n	8007b8a <__aeabi_idiv+0x14a>
 8007b78:	0189      	lsls	r1, r1, #6
 8007b7a:	1192      	asrs	r2, r2, #6
 8007b7c:	428b      	cmp	r3, r1
 8007b7e:	d304      	bcc.n	8007b8a <__aeabi_idiv+0x14a>
 8007b80:	0189      	lsls	r1, r1, #6
 8007b82:	d03a      	beq.n	8007bfa <__aeabi_idiv+0x1ba>
 8007b84:	1192      	asrs	r2, r2, #6
 8007b86:	e000      	b.n	8007b8a <__aeabi_idiv+0x14a>
 8007b88:	0989      	lsrs	r1, r1, #6
 8007b8a:	09c3      	lsrs	r3, r0, #7
 8007b8c:	428b      	cmp	r3, r1
 8007b8e:	d301      	bcc.n	8007b94 <__aeabi_idiv+0x154>
 8007b90:	01cb      	lsls	r3, r1, #7
 8007b92:	1ac0      	subs	r0, r0, r3
 8007b94:	4152      	adcs	r2, r2
 8007b96:	0983      	lsrs	r3, r0, #6
 8007b98:	428b      	cmp	r3, r1
 8007b9a:	d301      	bcc.n	8007ba0 <__aeabi_idiv+0x160>
 8007b9c:	018b      	lsls	r3, r1, #6
 8007b9e:	1ac0      	subs	r0, r0, r3
 8007ba0:	4152      	adcs	r2, r2
 8007ba2:	0943      	lsrs	r3, r0, #5
 8007ba4:	428b      	cmp	r3, r1
 8007ba6:	d301      	bcc.n	8007bac <__aeabi_idiv+0x16c>
 8007ba8:	014b      	lsls	r3, r1, #5
 8007baa:	1ac0      	subs	r0, r0, r3
 8007bac:	4152      	adcs	r2, r2
 8007bae:	0903      	lsrs	r3, r0, #4
 8007bb0:	428b      	cmp	r3, r1
 8007bb2:	d301      	bcc.n	8007bb8 <__aeabi_idiv+0x178>
 8007bb4:	010b      	lsls	r3, r1, #4
 8007bb6:	1ac0      	subs	r0, r0, r3
 8007bb8:	4152      	adcs	r2, r2
 8007bba:	08c3      	lsrs	r3, r0, #3
 8007bbc:	428b      	cmp	r3, r1
 8007bbe:	d301      	bcc.n	8007bc4 <__aeabi_idiv+0x184>
 8007bc0:	00cb      	lsls	r3, r1, #3
 8007bc2:	1ac0      	subs	r0, r0, r3
 8007bc4:	4152      	adcs	r2, r2
 8007bc6:	0883      	lsrs	r3, r0, #2
 8007bc8:	428b      	cmp	r3, r1
 8007bca:	d301      	bcc.n	8007bd0 <__aeabi_idiv+0x190>
 8007bcc:	008b      	lsls	r3, r1, #2
 8007bce:	1ac0      	subs	r0, r0, r3
 8007bd0:	4152      	adcs	r2, r2
 8007bd2:	d2d9      	bcs.n	8007b88 <__aeabi_idiv+0x148>
 8007bd4:	0843      	lsrs	r3, r0, #1
 8007bd6:	428b      	cmp	r3, r1
 8007bd8:	d301      	bcc.n	8007bde <__aeabi_idiv+0x19e>
 8007bda:	004b      	lsls	r3, r1, #1
 8007bdc:	1ac0      	subs	r0, r0, r3
 8007bde:	4152      	adcs	r2, r2
 8007be0:	1a41      	subs	r1, r0, r1
 8007be2:	d200      	bcs.n	8007be6 <__aeabi_idiv+0x1a6>
 8007be4:	4601      	mov	r1, r0
 8007be6:	4663      	mov	r3, ip
 8007be8:	4152      	adcs	r2, r2
 8007bea:	105b      	asrs	r3, r3, #1
 8007bec:	4610      	mov	r0, r2
 8007bee:	d301      	bcc.n	8007bf4 <__aeabi_idiv+0x1b4>
 8007bf0:	4240      	negs	r0, r0
 8007bf2:	2b00      	cmp	r3, #0
 8007bf4:	d500      	bpl.n	8007bf8 <__aeabi_idiv+0x1b8>
 8007bf6:	4249      	negs	r1, r1
 8007bf8:	4770      	bx	lr
 8007bfa:	4663      	mov	r3, ip
 8007bfc:	105b      	asrs	r3, r3, #1
 8007bfe:	d300      	bcc.n	8007c02 <__aeabi_idiv+0x1c2>
 8007c00:	4240      	negs	r0, r0
 8007c02:	b501      	push	{r0, lr}
 8007c04:	2000      	movs	r0, #0
 8007c06:	f000 f80b 	bl	8007c20 <__aeabi_idiv0>
 8007c0a:	bd02      	pop	{r1, pc}

08007c0c <__aeabi_idivmod>:
 8007c0c:	2900      	cmp	r1, #0
 8007c0e:	d0f8      	beq.n	8007c02 <__aeabi_idiv+0x1c2>
 8007c10:	b503      	push	{r0, r1, lr}
 8007c12:	f7ff ff15 	bl	8007a40 <__aeabi_idiv>
 8007c16:	bc0e      	pop	{r1, r2, r3}
 8007c18:	4342      	muls	r2, r0
 8007c1a:	1a89      	subs	r1, r1, r2
 8007c1c:	4718      	bx	r3
 8007c1e:	46c0      	nop			; (mov r8, r8)

08007c20 <__aeabi_idiv0>:
 8007c20:	4770      	bx	lr
 8007c22:	46c0      	nop			; (mov r8, r8)

08007c24 <__clzsi2>:
 8007c24:	211c      	movs	r1, #28
 8007c26:	2301      	movs	r3, #1
 8007c28:	041b      	lsls	r3, r3, #16
 8007c2a:	4298      	cmp	r0, r3
 8007c2c:	d301      	bcc.n	8007c32 <__clzsi2+0xe>
 8007c2e:	0c00      	lsrs	r0, r0, #16
 8007c30:	3910      	subs	r1, #16
 8007c32:	0a1b      	lsrs	r3, r3, #8
 8007c34:	4298      	cmp	r0, r3
 8007c36:	d301      	bcc.n	8007c3c <__clzsi2+0x18>
 8007c38:	0a00      	lsrs	r0, r0, #8
 8007c3a:	3908      	subs	r1, #8
 8007c3c:	091b      	lsrs	r3, r3, #4
 8007c3e:	4298      	cmp	r0, r3
 8007c40:	d301      	bcc.n	8007c46 <__clzsi2+0x22>
 8007c42:	0900      	lsrs	r0, r0, #4
 8007c44:	3904      	subs	r1, #4
 8007c46:	a202      	add	r2, pc, #8	; (adr r2, 8007c50 <__clzsi2+0x2c>)
 8007c48:	5c10      	ldrb	r0, [r2, r0]
 8007c4a:	1840      	adds	r0, r0, r1
 8007c4c:	4770      	bx	lr
 8007c4e:	46c0      	nop			; (mov r8, r8)
 8007c50:	02020304 	.word	0x02020304
 8007c54:	01010101 	.word	0x01010101
 8007c58:	00000000 	.word	0x00000000
 8007c5c:	00000000 	.word	0x00000000

08007c60 <memcpy>:
 8007c60:	b570      	push	{r4, r5, r6, lr}
 8007c62:	2a0f      	cmp	r2, #15
 8007c64:	d932      	bls.n	8007ccc <memcpy+0x6c>
 8007c66:	1c04      	adds	r4, r0, #0
 8007c68:	430c      	orrs	r4, r1
 8007c6a:	1c0b      	adds	r3, r1, #0
 8007c6c:	07a4      	lsls	r4, r4, #30
 8007c6e:	d131      	bne.n	8007cd4 <memcpy+0x74>
 8007c70:	1c15      	adds	r5, r2, #0
 8007c72:	1c04      	adds	r4, r0, #0
 8007c74:	3d10      	subs	r5, #16
 8007c76:	092d      	lsrs	r5, r5, #4
 8007c78:	3501      	adds	r5, #1
 8007c7a:	012d      	lsls	r5, r5, #4
 8007c7c:	1949      	adds	r1, r1, r5
 8007c7e:	681e      	ldr	r6, [r3, #0]
 8007c80:	6026      	str	r6, [r4, #0]
 8007c82:	685e      	ldr	r6, [r3, #4]
 8007c84:	6066      	str	r6, [r4, #4]
 8007c86:	689e      	ldr	r6, [r3, #8]
 8007c88:	60a6      	str	r6, [r4, #8]
 8007c8a:	68de      	ldr	r6, [r3, #12]
 8007c8c:	3310      	adds	r3, #16
 8007c8e:	60e6      	str	r6, [r4, #12]
 8007c90:	3410      	adds	r4, #16
 8007c92:	4299      	cmp	r1, r3
 8007c94:	d1f3      	bne.n	8007c7e <memcpy+0x1e>
 8007c96:	230f      	movs	r3, #15
 8007c98:	1945      	adds	r5, r0, r5
 8007c9a:	4013      	ands	r3, r2
 8007c9c:	2b03      	cmp	r3, #3
 8007c9e:	d91b      	bls.n	8007cd8 <memcpy+0x78>
 8007ca0:	1f1c      	subs	r4, r3, #4
 8007ca2:	2300      	movs	r3, #0
 8007ca4:	08a4      	lsrs	r4, r4, #2
 8007ca6:	3401      	adds	r4, #1
 8007ca8:	00a4      	lsls	r4, r4, #2
 8007caa:	58ce      	ldr	r6, [r1, r3]
 8007cac:	50ee      	str	r6, [r5, r3]
 8007cae:	3304      	adds	r3, #4
 8007cb0:	42a3      	cmp	r3, r4
 8007cb2:	d1fa      	bne.n	8007caa <memcpy+0x4a>
 8007cb4:	18ed      	adds	r5, r5, r3
 8007cb6:	18c9      	adds	r1, r1, r3
 8007cb8:	2303      	movs	r3, #3
 8007cba:	401a      	ands	r2, r3
 8007cbc:	d005      	beq.n	8007cca <memcpy+0x6a>
 8007cbe:	2300      	movs	r3, #0
 8007cc0:	5ccc      	ldrb	r4, [r1, r3]
 8007cc2:	54ec      	strb	r4, [r5, r3]
 8007cc4:	3301      	adds	r3, #1
 8007cc6:	4293      	cmp	r3, r2
 8007cc8:	d1fa      	bne.n	8007cc0 <memcpy+0x60>
 8007cca:	bd70      	pop	{r4, r5, r6, pc}
 8007ccc:	1c05      	adds	r5, r0, #0
 8007cce:	2a00      	cmp	r2, #0
 8007cd0:	d1f5      	bne.n	8007cbe <memcpy+0x5e>
 8007cd2:	e7fa      	b.n	8007cca <memcpy+0x6a>
 8007cd4:	1c05      	adds	r5, r0, #0
 8007cd6:	e7f2      	b.n	8007cbe <memcpy+0x5e>
 8007cd8:	1c1a      	adds	r2, r3, #0
 8007cda:	e7f8      	b.n	8007cce <memcpy+0x6e>

08007cdc <memmove>:
 8007cdc:	b570      	push	{r4, r5, r6, lr}
 8007cde:	4288      	cmp	r0, r1
 8007ce0:	d90b      	bls.n	8007cfa <memmove+0x1e>
 8007ce2:	188b      	adds	r3, r1, r2
 8007ce4:	4298      	cmp	r0, r3
 8007ce6:	d208      	bcs.n	8007cfa <memmove+0x1e>
 8007ce8:	1a99      	subs	r1, r3, r2
 8007cea:	1e53      	subs	r3, r2, #1
 8007cec:	2a00      	cmp	r2, #0
 8007cee:	d003      	beq.n	8007cf8 <memmove+0x1c>
 8007cf0:	5cca      	ldrb	r2, [r1, r3]
 8007cf2:	54c2      	strb	r2, [r0, r3]
 8007cf4:	3b01      	subs	r3, #1
 8007cf6:	d2fb      	bcs.n	8007cf0 <memmove+0x14>
 8007cf8:	bd70      	pop	{r4, r5, r6, pc}
 8007cfa:	2a0f      	cmp	r2, #15
 8007cfc:	d809      	bhi.n	8007d12 <memmove+0x36>
 8007cfe:	1c05      	adds	r5, r0, #0
 8007d00:	2a00      	cmp	r2, #0
 8007d02:	d0f9      	beq.n	8007cf8 <memmove+0x1c>
 8007d04:	2300      	movs	r3, #0
 8007d06:	5ccc      	ldrb	r4, [r1, r3]
 8007d08:	54ec      	strb	r4, [r5, r3]
 8007d0a:	3301      	adds	r3, #1
 8007d0c:	4293      	cmp	r3, r2
 8007d0e:	d1fa      	bne.n	8007d06 <memmove+0x2a>
 8007d10:	e7f2      	b.n	8007cf8 <memmove+0x1c>
 8007d12:	1c04      	adds	r4, r0, #0
 8007d14:	430c      	orrs	r4, r1
 8007d16:	1c0b      	adds	r3, r1, #0
 8007d18:	07a4      	lsls	r4, r4, #30
 8007d1a:	d126      	bne.n	8007d6a <memmove+0x8e>
 8007d1c:	1c15      	adds	r5, r2, #0
 8007d1e:	1c04      	adds	r4, r0, #0
 8007d20:	3d10      	subs	r5, #16
 8007d22:	092d      	lsrs	r5, r5, #4
 8007d24:	3501      	adds	r5, #1
 8007d26:	012d      	lsls	r5, r5, #4
 8007d28:	1949      	adds	r1, r1, r5
 8007d2a:	681e      	ldr	r6, [r3, #0]
 8007d2c:	6026      	str	r6, [r4, #0]
 8007d2e:	685e      	ldr	r6, [r3, #4]
 8007d30:	6066      	str	r6, [r4, #4]
 8007d32:	689e      	ldr	r6, [r3, #8]
 8007d34:	60a6      	str	r6, [r4, #8]
 8007d36:	68de      	ldr	r6, [r3, #12]
 8007d38:	3310      	adds	r3, #16
 8007d3a:	60e6      	str	r6, [r4, #12]
 8007d3c:	3410      	adds	r4, #16
 8007d3e:	4299      	cmp	r1, r3
 8007d40:	d1f3      	bne.n	8007d2a <memmove+0x4e>
 8007d42:	240f      	movs	r4, #15
 8007d44:	1945      	adds	r5, r0, r5
 8007d46:	4014      	ands	r4, r2
 8007d48:	2c03      	cmp	r4, #3
 8007d4a:	d910      	bls.n	8007d6e <memmove+0x92>
 8007d4c:	2300      	movs	r3, #0
 8007d4e:	3c04      	subs	r4, #4
 8007d50:	08a4      	lsrs	r4, r4, #2
 8007d52:	3401      	adds	r4, #1
 8007d54:	00a4      	lsls	r4, r4, #2
 8007d56:	58ce      	ldr	r6, [r1, r3]
 8007d58:	50ee      	str	r6, [r5, r3]
 8007d5a:	3304      	adds	r3, #4
 8007d5c:	42a3      	cmp	r3, r4
 8007d5e:	d1fa      	bne.n	8007d56 <memmove+0x7a>
 8007d60:	2403      	movs	r4, #3
 8007d62:	18ed      	adds	r5, r5, r3
 8007d64:	18c9      	adds	r1, r1, r3
 8007d66:	4022      	ands	r2, r4
 8007d68:	e7ca      	b.n	8007d00 <memmove+0x24>
 8007d6a:	1c05      	adds	r5, r0, #0
 8007d6c:	e7ca      	b.n	8007d04 <memmove+0x28>
 8007d6e:	1c22      	adds	r2, r4, #0
 8007d70:	e7c6      	b.n	8007d00 <memmove+0x24>
 8007d72:	46c0      	nop			; (mov r8, r8)

08007d74 <memset>:
 8007d74:	b570      	push	{r4, r5, r6, lr}
 8007d76:	0783      	lsls	r3, r0, #30
 8007d78:	d03f      	beq.n	8007dfa <memset+0x86>
 8007d7a:	1e54      	subs	r4, r2, #1
 8007d7c:	2a00      	cmp	r2, #0
 8007d7e:	d03b      	beq.n	8007df8 <memset+0x84>
 8007d80:	b2ce      	uxtb	r6, r1
 8007d82:	1c03      	adds	r3, r0, #0
 8007d84:	2503      	movs	r5, #3
 8007d86:	e003      	b.n	8007d90 <memset+0x1c>
 8007d88:	1e62      	subs	r2, r4, #1
 8007d8a:	2c00      	cmp	r4, #0
 8007d8c:	d034      	beq.n	8007df8 <memset+0x84>
 8007d8e:	1c14      	adds	r4, r2, #0
 8007d90:	3301      	adds	r3, #1
 8007d92:	1e5a      	subs	r2, r3, #1
 8007d94:	7016      	strb	r6, [r2, #0]
 8007d96:	422b      	tst	r3, r5
 8007d98:	d1f6      	bne.n	8007d88 <memset+0x14>
 8007d9a:	2c03      	cmp	r4, #3
 8007d9c:	d924      	bls.n	8007de8 <memset+0x74>
 8007d9e:	25ff      	movs	r5, #255	; 0xff
 8007da0:	400d      	ands	r5, r1
 8007da2:	022a      	lsls	r2, r5, #8
 8007da4:	4315      	orrs	r5, r2
 8007da6:	042a      	lsls	r2, r5, #16
 8007da8:	4315      	orrs	r5, r2
 8007daa:	2c0f      	cmp	r4, #15
 8007dac:	d911      	bls.n	8007dd2 <memset+0x5e>
 8007dae:	1c26      	adds	r6, r4, #0
 8007db0:	3e10      	subs	r6, #16
 8007db2:	0936      	lsrs	r6, r6, #4
 8007db4:	3601      	adds	r6, #1
 8007db6:	0136      	lsls	r6, r6, #4
 8007db8:	1c1a      	adds	r2, r3, #0
 8007dba:	199b      	adds	r3, r3, r6
 8007dbc:	6015      	str	r5, [r2, #0]
 8007dbe:	6055      	str	r5, [r2, #4]
 8007dc0:	6095      	str	r5, [r2, #8]
 8007dc2:	60d5      	str	r5, [r2, #12]
 8007dc4:	3210      	adds	r2, #16
 8007dc6:	4293      	cmp	r3, r2
 8007dc8:	d1f8      	bne.n	8007dbc <memset+0x48>
 8007dca:	220f      	movs	r2, #15
 8007dcc:	4014      	ands	r4, r2
 8007dce:	2c03      	cmp	r4, #3
 8007dd0:	d90a      	bls.n	8007de8 <memset+0x74>
 8007dd2:	1f26      	subs	r6, r4, #4
 8007dd4:	08b6      	lsrs	r6, r6, #2
 8007dd6:	3601      	adds	r6, #1
 8007dd8:	00b6      	lsls	r6, r6, #2
 8007dda:	1c1a      	adds	r2, r3, #0
 8007ddc:	199b      	adds	r3, r3, r6
 8007dde:	c220      	stmia	r2!, {r5}
 8007de0:	4293      	cmp	r3, r2
 8007de2:	d1fc      	bne.n	8007dde <memset+0x6a>
 8007de4:	2203      	movs	r2, #3
 8007de6:	4014      	ands	r4, r2
 8007de8:	2c00      	cmp	r4, #0
 8007dea:	d005      	beq.n	8007df8 <memset+0x84>
 8007dec:	b2c9      	uxtb	r1, r1
 8007dee:	191c      	adds	r4, r3, r4
 8007df0:	7019      	strb	r1, [r3, #0]
 8007df2:	3301      	adds	r3, #1
 8007df4:	42a3      	cmp	r3, r4
 8007df6:	d1fb      	bne.n	8007df0 <memset+0x7c>
 8007df8:	bd70      	pop	{r4, r5, r6, pc}
 8007dfa:	1c14      	adds	r4, r2, #0
 8007dfc:	1c03      	adds	r3, r0, #0
 8007dfe:	e7cc      	b.n	8007d9a <memset+0x26>

08007e00 <strlen>:
 8007e00:	b510      	push	{r4, lr}
 8007e02:	0783      	lsls	r3, r0, #30
 8007e04:	d027      	beq.n	8007e56 <strlen+0x56>
 8007e06:	7803      	ldrb	r3, [r0, #0]
 8007e08:	2b00      	cmp	r3, #0
 8007e0a:	d026      	beq.n	8007e5a <strlen+0x5a>
 8007e0c:	1c03      	adds	r3, r0, #0
 8007e0e:	2103      	movs	r1, #3
 8007e10:	e002      	b.n	8007e18 <strlen+0x18>
 8007e12:	781a      	ldrb	r2, [r3, #0]
 8007e14:	2a00      	cmp	r2, #0
 8007e16:	d01c      	beq.n	8007e52 <strlen+0x52>
 8007e18:	3301      	adds	r3, #1
 8007e1a:	420b      	tst	r3, r1
 8007e1c:	d1f9      	bne.n	8007e12 <strlen+0x12>
 8007e1e:	6819      	ldr	r1, [r3, #0]
 8007e20:	4a0f      	ldr	r2, [pc, #60]	; (8007e60 <strlen+0x60>)
 8007e22:	4c10      	ldr	r4, [pc, #64]	; (8007e64 <strlen+0x64>)
 8007e24:	188a      	adds	r2, r1, r2
 8007e26:	438a      	bics	r2, r1
 8007e28:	4222      	tst	r2, r4
 8007e2a:	d10f      	bne.n	8007e4c <strlen+0x4c>
 8007e2c:	3304      	adds	r3, #4
 8007e2e:	6819      	ldr	r1, [r3, #0]
 8007e30:	4a0b      	ldr	r2, [pc, #44]	; (8007e60 <strlen+0x60>)
 8007e32:	188a      	adds	r2, r1, r2
 8007e34:	438a      	bics	r2, r1
 8007e36:	4222      	tst	r2, r4
 8007e38:	d108      	bne.n	8007e4c <strlen+0x4c>
 8007e3a:	3304      	adds	r3, #4
 8007e3c:	6819      	ldr	r1, [r3, #0]
 8007e3e:	4a08      	ldr	r2, [pc, #32]	; (8007e60 <strlen+0x60>)
 8007e40:	188a      	adds	r2, r1, r2
 8007e42:	438a      	bics	r2, r1
 8007e44:	4222      	tst	r2, r4
 8007e46:	d0f1      	beq.n	8007e2c <strlen+0x2c>
 8007e48:	e000      	b.n	8007e4c <strlen+0x4c>
 8007e4a:	3301      	adds	r3, #1
 8007e4c:	781a      	ldrb	r2, [r3, #0]
 8007e4e:	2a00      	cmp	r2, #0
 8007e50:	d1fb      	bne.n	8007e4a <strlen+0x4a>
 8007e52:	1a18      	subs	r0, r3, r0
 8007e54:	bd10      	pop	{r4, pc}
 8007e56:	1c03      	adds	r3, r0, #0
 8007e58:	e7e1      	b.n	8007e1e <strlen+0x1e>
 8007e5a:	2000      	movs	r0, #0
 8007e5c:	e7fa      	b.n	8007e54 <strlen+0x54>
 8007e5e:	46c0      	nop			; (mov r8, r8)
 8007e60:	fefefeff 	.word	0xfefefeff
 8007e64:	80808080 	.word	0x80808080
 8007e68:	44524148 	.word	0x44524148
 8007e6c:	55414620 	.word	0x55414620
 8007e70:	203a544c 	.word	0x203a544c
 8007e74:	63655600 	.word	0x63655600
 8007e78:	20726f74 	.word	0x20726f74
 8007e7c:	6c626174 	.word	0x6c626174
 8007e80:	65722065 	.word	0x65722065
 8007e84:	66206461 	.word	0x66206461
 8007e88:	746c7561 	.word	0x746c7561
 8007e8c:	20746120 	.word	0x20746120
 8007e90:	302e2325 	.word	0x302e2325
 8007e94:	0d0a7838 	.word	0x0d0a7838
 8007e98:	53595300 	.word	0x53595300
 8007e9c:	6c616320 	.word	0x6c616320
 8007ea0:	6877206c 	.word	0x6877206c
 8007ea4:	20656c69 	.word	0x20656c69
 8007ea8:	61736964 	.word	0x61736964
 8007eac:	64656c62 	.word	0x64656c62
 8007eb0:	746e6920 	.word	0x746e6920
 8007eb4:	75727265 	.word	0x75727265
 8007eb8:	20737470 	.word	0x20737470
 8007ebc:	25207461 	.word	0x25207461
 8007ec0:	38302e23 	.word	0x38302e23
 8007ec4:	000d0a78 	.word	0x000d0a78
 8007ec8:	656e6547 	.word	0x656e6547
 8007ecc:	206c6172 	.word	0x206c6172
 8007ed0:	64726168 	.word	0x64726168
 8007ed4:	75616620 	.word	0x75616620
 8007ed8:	6120746c 	.word	0x6120746c
 8007edc:	23252074 	.word	0x23252074
 8007ee0:	7838302e 	.word	0x7838302e
 8007ee4:	4d000d0a 	.word	0x4d000d0a
 8007ee8:	4d204d45 	.word	0x4d204d45
 8007eec:	47414e41 	.word	0x47414e41
 8007ef0:	00203a45 	.word	0x00203a45
 8007ef4:	63617453 	.word	0x63617453
 8007ef8:	676e696b 	.word	0x676e696b
 8007efc:	69616620 	.word	0x69616620
 8007f00:	0064656c 	.word	0x0064656c
 8007f04:	74736e55 	.word	0x74736e55
 8007f08:	696b6361 	.word	0x696b6361
 8007f0c:	6620676e 	.word	0x6620676e
 8007f10:	656c6961 	.word	0x656c6961
 8007f14:	61440064 	.word	0x61440064
 8007f18:	61206174 	.word	0x61206174
 8007f1c:	73656363 	.word	0x73656363
 8007f20:	69762073 	.word	0x69762073
 8007f24:	74616c6f 	.word	0x74616c6f
 8007f28:	006e6f69 	.word	0x006e6f69
 8007f2c:	74736e49 	.word	0x74736e49
 8007f30:	74637572 	.word	0x74637572
 8007f34:	206e6f69 	.word	0x206e6f69
 8007f38:	65636361 	.word	0x65636361
 8007f3c:	76207373 	.word	0x76207373
 8007f40:	616c6f69 	.word	0x616c6f69
 8007f44:	6e6f6974 	.word	0x6e6f6974
 8007f48:	74612000 	.word	0x74612000
 8007f4c:	2e232520 	.word	0x2e232520
 8007f50:	0a783830 	.word	0x0a783830
 8007f54:	63202c0d 	.word	0x63202c0d
 8007f58:	656c6c61 	.word	0x656c6c61
 8007f5c:	23252072 	.word	0x23252072
 8007f60:	7838302e 	.word	0x7838302e
 8007f64:	53554200 	.word	0x53554200
 8007f68:	55414620 	.word	0x55414620
 8007f6c:	203a544c 	.word	0x203a544c
 8007f70:	61745300 	.word	0x61745300
 8007f74:	6e696b63 	.word	0x6e696b63
 8007f78:	61662067 	.word	0x61662067
 8007f7c:	64656c69 	.word	0x64656c69
 8007f80:	20746120 	.word	0x20746120
 8007f84:	302e2325 	.word	0x302e2325
 8007f88:	0d0a7838 	.word	0x0d0a7838
 8007f8c:	736e5500 	.word	0x736e5500
 8007f90:	6b636174 	.word	0x6b636174
 8007f94:	20676e69 	.word	0x20676e69
 8007f98:	6c696166 	.word	0x6c696166
 8007f9c:	61206465 	.word	0x61206465
 8007fa0:	23252074 	.word	0x23252074
 8007fa4:	7838302e 	.word	0x7838302e
 8007fa8:	44000d0a 	.word	0x44000d0a
 8007fac:	20617461 	.word	0x20617461
 8007fb0:	20737562 	.word	0x20737562
 8007fb4:	6f727265 	.word	0x6f727265
 8007fb8:	74612072 	.word	0x74612072
 8007fbc:	2e232520 	.word	0x2e232520
 8007fc0:	2c783830 	.word	0x2c783830
 8007fc4:	6c616320 	.word	0x6c616320
 8007fc8:	2072656c 	.word	0x2072656c
 8007fcc:	302e2325 	.word	0x302e2325
 8007fd0:	0d0a7838 	.word	0x0d0a7838
 8007fd4:	736e4900 	.word	0x736e4900
 8007fd8:	63757274 	.word	0x63757274
 8007fdc:	6e6f6974 	.word	0x6e6f6974
 8007fe0:	73756220 	.word	0x73756220
 8007fe4:	72726520 	.word	0x72726520
 8007fe8:	6120726f 	.word	0x6120726f
 8007fec:	23252074 	.word	0x23252074
 8007ff0:	7838302e 	.word	0x7838302e
 8007ff4:	6163202c 	.word	0x6163202c
 8007ff8:	72656c6c 	.word	0x72656c6c
 8007ffc:	2e232520 	.word	0x2e232520
 8008000:	0a783830 	.word	0x0a783830
 8008004:	5355000d 	.word	0x5355000d
 8008008:	20454741 	.word	0x20454741
 800800c:	4c554146 	.word	0x4c554146
 8008010:	00203a54 	.word	0x00203a54
 8008014:	69766944 	.word	0x69766944
 8008018:	6e6f6973 	.word	0x6e6f6973
 800801c:	20796220 	.word	0x20796220
 8008020:	6f72657a 	.word	0x6f72657a
 8008024:	616e5500 	.word	0x616e5500
 8008028:	6e67696c 	.word	0x6e67696c
 800802c:	61206465 	.word	0x61206465
 8008030:	73656363 	.word	0x73656363
 8008034:	6f4e0073 	.word	0x6f4e0073
 8008038:	706f6320 	.word	0x706f6320
 800803c:	65636f72 	.word	0x65636f72
 8008040:	726f7373 	.word	0x726f7373
 8008044:	756f6620 	.word	0x756f6620
 8008048:	5500646e 	.word	0x5500646e
 800804c:	6665646e 	.word	0x6665646e
 8008050:	64656e69 	.word	0x64656e69
 8008054:	736e6920 	.word	0x736e6920
 8008058:	63757274 	.word	0x63757274
 800805c:	6e6f6974 	.word	0x6e6f6974
 8008060:	766e4900 	.word	0x766e4900
 8008064:	64696c61 	.word	0x64696c61
 8008068:	61747320 	.word	0x61747320
 800806c:	00006574 	.word	0x00006574

08008070 <__KERNEL_NAME>:
 8008070:	08008074 4f784552 2e302053 00362e32     t...RExOS 0.2.6.
 8008080:	6e72654b 70206c65 63696e61 6d000d0a     Kernel panic...m
 8008090:	726f6d65 75642079 3020706d 38302578     emory dump 0x%08
 80080a0:	78302d78 78383025 30000d0a 38302578     x-0x%08x...0x%08
 80080b0:	00203a78 58323025 61570020 6e696e72     x: .%02X .Warnin
 80080c0:	69203a67 76207172 6f746365 64252072     g: irq vector %d
 80080d0:	75747320 61632062 64656c6c 00000d0a      stub called....

080080e0 <__KIRQ_STUB>:
 80080e0:	08000571 00000000 00000000 6e726157     q...........Warn
 80080f0:	3a676e69 6e626120 616d726f 7270206c     ing: abnormal pr
 8008100:	7365636f 65742073 6e696d72 6f697461     ocess terminatio
 8008110:	25203a6e 000d0a73 30322d25 7330322e     n: %s...%-20.20s
 8008120:	30250020 20206433 00202020 20623425      .%03d     .%4b 
 8008130:	34250020 20002062 20202020 44212121      .%4b .     !!!D
 8008140:	47414d41 21214445 20202021 20002020     AMAGED!!!     . 
 8008150:	28623325 64323025 20202029 62332500     %3b(%02d)   .%3b
 8008160:	6233252f 32302528 00202964 3a643325     /%3b(%02d) .%3d:
 8008170:	64323025 3330252e 0d0a0064 20202020     %02d.%03d...    
 8008180:	656d616e 20202020 20202020 70202020     name           p
 8008190:	726f6972 20797469 61747320 20206b63     riority  stack  
 80081a0:	657a6973 75202020 20646573 20202020     size   used     
 80081b0:	72662020 20206565 20202020 70752020       free        up
 80081c0:	656d6974 2d000d0a 2d2d2d2d 2d2d2d2d     time...---------
 80081d0:	2d2d2d2d 2d2d2d2d 2d2d2d2d 2d2d2d2d     ----------------
 80081e0:	2d2d2d2d 2d2d2d2d 2d2d2d2d 2d2d2d2d     ----------------
 80081f0:	2d2d2d2d 2d2d2d2d 2d2d2d2d 2d2d2d2d     ----------------
 8008200:	2d2d2d2d 2d2d2d2d 2d2d2d2d 2d2d2d2d     ----------------
 8008210:	74000d0a 6c61746f 20642520 636f7270     ...total %d proc
 8008220:	65737365 0d0a7373 322d2500 30322e30     essess...%-20.20
 8008230:	20202073 20202020 25002020 25286233     s         .%3b(%
 8008240:	29643230 25002020 252f6233 25286233     02d)  .%3b/%3b(%
 8008250:	29643230 72615700 676e696e 5048203a     02d).Warning: HP
 8008260:	73205445 74726174 75747320 61632062     ET start stub ca
 8008270:	64656c6c 57000d0a 696e7261 203a676e     lled...Warning: 
 8008280:	54455048 6f747320 74732070 63206275     HPET stop stub c
 8008290:	656c6c61 000d0a64 6e726157 3a676e69     alled...Warning:
 80082a0:	45504820 6c652054 65737061 74732064      HPET elapsed st
 80082b0:	63206275 656c6c61 000d0a64 6e726157     ub called...Warn
 80082c0:	3a676e69 6c616320 676e696c 69617720     ing: calling wai
 80082d0:	50492074 69772043 72206874 69656365     t IPC with recei
 80082e0:	20726576 656d6173 20736120 6c6c6163     ver same as call
 80082f0:	63207265 63206e61 65737561 61656420     er can cause dea
 8008300:	636f6c64 7020216b 65636f72 203a7373     dlock! process: 
 8008310:	0d0a7325 72724500 203a726f 65636572     %s...Error: rece
 8008320:	72657669 20732520 20435049 7265766f     iver %s IPC over
 8008330:	776f6c66 000d0a21 646e6553 203a7265     flow!...Sender: 
 8008340:	6e72656b 0d0a6c65 6e655300 3a726564     kernel...Sender:
 8008350:	0a732520 6d63000d 25203a64 202c5823      %s...cmd: %#X, 
 8008360:	203a3170 2c582325 3a327020 58232520     p1: %#X, p2: %#X
 8008370:	3370202c 2325203a 000d0a58              , p3: %#X...

0800837c <__LIB>:
 800837c:	0800846c 0800848c 080083c4 080084b0     l...............
 800838c:	08008448 080084b8                       H.......

08008394 <MDAY>:
 8008394:	001c001f 001e001f 001e001f 001f001f     ................
 80083a4:	001f001e 001f001e 001d001f 001e001f     ................
 80083b4:	001e001f 001f001f 001f001e 001f001e     ................

080083c4 <__LIB_TIME>:
 80083c4:	08002295 08002369 08002569 08002495     ."..i#..i%...$..
 80083d4:	08002591 080024c5 080024e5 08002509     .%...$...$...%..
 80083e4:	0800252d 08002609 080025ed 080025d1     -%...&...%...%..

080083f4 <YDAY>:
 80083f4:	001f0000 005a003b 00970078 00d400b5     ....;.Z.x.......
 8008404:	011100f3 014e0130 001f0000 005b003c     ....0.N.....<.[.
 8008414:	00980079 00d500b6 011200f4 014f0131     y...........1.O.

08008424 <zeroes>:
 8008424:	30303030 30303030 4d4b3030 002d0047     0000000000KMG.-.
 8008434:	7830002b 20004f00                                +.0x.O.

0800843b <spaces>:
 800843b:	20202020 20202020 00002020 002e4d00                        ...

08008448 <__LIB_ARRAY>:
 8008448:	08002e4d 08002e7b 08002e97 08002ebd     M...{...........
 8008458:	08002ec5 08002f0d 08002f01 08002f57     ...../.../..W/..
 8008468:	08002f9f                                ./..

0800846c <__LIB_STD>:
 800846c:	080029a3 080029c9 08002623 080026ff     .)...)..#&...&..
 800847c:	08002777 08002637 08002843 080028b1     w'..7&..C(...(..

0800848c <__LIB_STDIO>:
 800848c:	08002a71 08002fcd 08002e31 080029a3     q*.../..1....)..
 800849c:	080029c9 08003033 08003005 0800304f     .)..30...0..O0..
 80084ac:	0800306f                                o0..

080084b0 <__LIB_HEAP>:
 80084b0:	08003095 080030b5                       .0...0..

080084b8 <__LIB_GPIO>:
 80084b8:	08003215 08003273 080031c9 080031f1     .2..s2...1...1..
 80084c8:	080030c5 080030dd 080030ed 08003105     .0...0...0...1..
 80084d8:	08003115 08003131 08003141 0800316d     .1..11..A1..m1..

080084e8 <__APP>:
 80084e8:	080085b0 00000400 000000c8 01000001     ................
 80084f8:	00000005 08003481 72657661 20656761     .....4..average 
 8008508:	6e72656b 63206c65 206c6c61 656d6974     kernel call time
 8008518:	6425203a 7564252e 000d0a73 72657661     : %d.%dus...aver
 8008528:	20656761 74697773 74206863 3a656d69     age switch time:
 8008538:	2e642520 73756425 63000d0a 2065726f      %d.%dus...core 
 8008548:	636f6c63 25203a6b 000d0a64 20707041     clock: %d...App 
 8008558:	74696e69 61000d0a 74207070 72656d69     init...app timer
 8008568:	6d697420 74756f65 73657420 000d0a74      timeout test...
 8008578:	64636c76 6425203a 55000d0a 6e61686e     vlcd: %d...Unhan
 8008588:	64656c64 646d6320 2325203a 000d0a58     dled cmd: %#X...
 8008598:	646e6573 203a7265 0a582325 3170000d     sender: %#X...p1
 80085a8:	2325203a 000d0a58 20707041 6e69616d     : %#X...App main
 80085b8:	43020900                                         .

080085b9 <__CONFIGURATION_DESCRIPTOR>:
 80085b9:	00430209 80040102 000409fa 02020100     ..C.............
 80085c9:	24050401 04012000 05020224 01000624     ...$. ..$...$...
 80085d9:	03012405 82050701 05001003 00010409     .$..............
 80085e9:	00000a02 81050700 00004002 02010507     .........@......
 80085f9:	10000040                                         @..

080085fc <__STRING_DEFAULT>:
 80085fc:	00440310 00660065 00750061 0074006c     ..D.e.f.a.u.l.t.
 800860c:	20425355 72617473 000d0a74 20425355     USB start...USB 
 800861c:	706f7473 72000d0a 25203a78 25002064     stop...rx: %d .%
 800862c:	785c0063 43007525 206d6d6f 74696e69     c.\x%u.Comm init
 800863c:	10000d0a                                         ...

0800863f <__STRING_PRODUCT>:
 800863f:	00550310 00420053 00430020 00430044     ..U.S.B. .C.D.C.

0800864f <__STRING_MANUFACTURER>:
 800864f:	0052030e 00780045 004f0020 01120053              ..R.E.x. .O.S.

0800865d <__DEVICE_DESCRIPTOR>:
 800865d:	01100112 40000002 a4aa0525 02010100     .......@%.......
 800866d:	03040103                                         ..

0800866f <__STRING_WLANGS>:
 800866f:	04090304                                ....

08008673 <__STRING_SERIAL>:
 8008673:	0030031a 00320031 00340033 00360035     ..0.1.2.3.4.5.6.
 8008683:	00380037 00410039 00000042 00000000              7.8.9.A.B....

08008690 <GPIO>:
 8008690:	50000000 50000400 50000800 50000c00     ...P...P...P...P
 80086a0:	00000000 00000000 00000000 50001c00     ...............P

080086b0 <TIMER_REGS>:
 80086b0:	40000000 40001000 40010800 40011400     ...@...@...@...@

080086c0 <TIMER_POWER_PORT>:
 80086c0:	40021038 40021038 40021034 40021034     8..@8..@4..@4..@

080086d0 <TIMER_POWER_BIT>:
 80086d0:	00000000 00000004 00000002 00000005     ................

080086e0 <CSWTCH.15>:
 80086e0:	78010101 0a020068                                ...xh

080086e5 <CSWTCH.16>:
 80086e5:	000a0200 0f000000                                .......

080086ec <TIMER_VECTORS>:
 80086ec:	0000000f 00000011 00000014 00000016     ................

080086fc <__STM32_CORE>:
 80086fc:	08008714 00000400 0000005a 01000001     ........Z.......
 800870c:	00000005 08004991 334d5453 6f632032     .....I..STM32 co
 800871c:	64206572 65766972 00000072              re driver...

08008728 <UART_VECTORS>:
 8008728:	0000001b 0000001c                       ........

08008730 <UART_POWER_PINS>:
 8008730:	0000000e 00000011                       ........

08008738 <UART_REGS>:
 8008738:	40013800 40004400 3a425355 72616820     .8.@.D.@USB: har
 8008748:	72617764 72652065 0a726f72 5355000d     dware error...US
 8008758:	70203a42 656b6361 656d2074 79726f6d     B: packet memory
 8008768:	65766f20 6f6c6672 000d0a77               overflow...

08008774 <ADC_PINS>:
 8008774:	03020100 07060504 21201110 25242322     .......... !"#$%

08008784 <__USBD>:
 8008784:	08008b2a 00000320 00000096 01000001     *... ...........
 8008794:	0000000a 08006d35 44425355 616c6320     ....5m..USBD cla
 80087a4:	53207373 50555445 75747320 0d0a2162     ss SETUP stub!..
 80087b4:	42535500 6c632044 20737361 75716572     .USBD class requ
 80087c4:	20747365 62757473 000d0a21 44425355     est stub!...USBD
 80087d4:	74616620 203a6c61 62757473 6c616320      fatal: stub cal
 80087e4:	0a64656c 5355000d 67203a42 64207465     led...USB: get d
 80087f4:	63697665 74732065 73757461 55000d0a     evice status...U
 8008804:	203a4253 69766564 73206563 66207465     SB: device set f
 8008814:	75746165 52206572 544f4d45 41572045     eature REMOTE WA
 8008824:	5055454b 55000d0a 203a4253 69766564     KEUP...USB: devi
 8008834:	63206563 7261656c 61656620 65727574     ce clear feature
 8008844:	55000d0a 73204253 41207465 45524444     ...USB set ADDRE
 8008854:	25205353 0d0a5823 42535500 74656720     SS %#X...USB get
 8008864:	56454420 20454349 63736564 74706972      DEVICE descript
 8008874:	0d0a726f 42535500 74656720 4e4f4320     or...USB get CON
 8008884:	55474946 49544152 25204e4f 65642064     FIGURATION %d de
 8008894:	69726373 726f7470 55000d0a 67204253     scriptor...USB g
 80088a4:	53207465 4e495254 64252047 73656420     et STRING %d des
 80088b4:	70697263 2c726f74 6e614c20 3a444967     criptor, LangID:
 80088c4:	58232520 55000d0a 203a4253 49525453      %#X...USB: STRI
 80088d4:	6420474e 72637365 6f747069 64252072     NG descriptor %d
 80088e4:	616c202c 695f676e 25203a64 6e205823     , lang_id: %#X n
 80088f4:	7020746f 65736572 0d0a746e 42535500     ot present...USB
 8008904:	6567203a 6f632074 6769666e 74617275     : get configurat
 8008914:	0a6e6f69 5355000d 73203a42 63207465     ion...USB: set c
 8008924:	69666e6f 61727567 6e6f6974 0a642520     onfiguration %d.
 8008934:	5355000d 66204442 6c617461 6f4e203a     ..USBD fatal: No
 8008944:	6c657320 65746365 6f632064 6769666e      selected config
 8008954:	74617275 206e6f69 29642528 756f6620     uration (%d) fou
 8008964:	0d0a646e 42535500 61662044 3a6c6174     nd...USBD fatal:
 8008974:	74754f20 20666f20 6f6d656d 0d0a7972      Out of memory..
 8008984:	42535500 49203a44 7265746e 65636166     .USBD: Interface
 8008994:	20642520 6e207369 6320746f 69666e6f      %d is not confi
 80089a4:	65727567 000d0a64 3a425355 74656720     gured...USB: get
 80089b4:	646e6520 6e696f70 74732074 73757461      endpoint status
 80089c4:	55000d0a 203a4253 70646e65 746e696f     ...USB: endpoint
 80089d4:	74657320 61656620 65727574 55000d0a      set feature...U
 80089e4:	203a4253 70646e65 746e696f 656c6320     SB: endpoint cle
 80089f4:	66207261 75746165 0d0a6572 686e5500     ar feature...Unh
 8008a04:	6c646e61 00206465 49564544 49004543     andled .DEVICE.I
 8008a14:	5245544e 45434146 444e4500 4e494f50     NTERFACE.ENDPOIN
 8008a24:	72200054 65757165 0d0a7473 526d6200     T. request...bmR
 8008a34:	65757165 79547473 203a6570 0d0a5825     equestType: %X..
 8008a44:	65526200 73657571 25203a74 000d0a58     .bRequest: %X...
 8008a54:	6c615677 203a6575 0d0a5825 6e497700     wValue: %X...wIn
 8008a64:	3a786564 0a582520 4c77000d 74676e65     dex: %X...wLengt
 8008a74:	25203a68 000d0a58 44425355 766e6920     h: %X...USBD inv
 8008a84:	64696c61 74657320 73207075 65746174     alid setup state
 8008a94:	206e6f20 64616572 6425203a 55000d0a      on read: %d...U
 8008aa4:	20444253 61766e69 2064696c 74617473     SBD invalid stat
 8008ab4:	6e6f2065 69727720 203a6574 0d0a6425     e on write: %d..
 8008ac4:	42535500 76656420 20656369 65736572     .USB device rese
 8008ad4:	000d0a74 20425355 69766564 73206563     t...USB device s
 8008ae4:	65707375 0d0a646e 42535500 76656420     uspend...USB dev
 8008af4:	20656369 656b6177 0d0a7075 42535500     ice wakeup...USB
 8008b04:	42324220 54455320 72205055 69656365      B2B SETUP recei
 8008b14:	2c646576 61747320 203a6574 0d0a6425     ved, state: %d..
 8008b24:	3a732500 53550020 65642042 65636976     .%s: .USB device
 8008b34:	61747320 00006b63                        stack..

08008b3c <__USBD_STUB_CLASS>:
 8008b3c:	00000000 08005f3d 08005f3d 08005f3d     ....=_..=_..=_..
 8008b4c:	08005f5d 08005f71                       ]_..q_..

08008b54 <LC_BAUD_PARITY>:
 8008b54:	4d454f4e 00000053                       NOEMS...

08008b5c <__CDCD_CLASS>:
 8008b5c:	0800727d 080074fd 08007119 08007085     }r...t...q...p..
 8008b6c:	080076a1 080077dd                       .v...w..

08008b74 <LC_BAUD_STOP_BITS>:
 8008b74:	00000001 0000000f 00000002              ............
